; Listing generated by Microsoft (R) Optimizing Compiler Version 19.00.23506.0 

	TITLE	E:\study\JPEG2000\visually_lossless_JPEG2000\ModifiedKakadu\coresys\compressed\codestream.cpp
	.686P
	.XMM
	include listing.inc
	.model	flat

INCLUDELIB MSVCRT
INCLUDELIB OLDNAMES

PUBLIC	??_H@YGXPAXIIP6EPAX0@Z@Z			; `vector constructor iterator'
PUBLIC	?__empty_global_delete@@YAXPAX@Z		; __empty_global_delete
PUBLIC	?__empty_global_delete@@YAXPAXI@Z		; __empty_global_delete
PUBLIC	___local_stdio_printf_options
PUBLIC	??$__vcrt_va_start_verify_argument_type@QBD@@YAXXZ ; __vcrt_va_start_verify_argument_type<char const * const>
PUBLIC	_sprintf
PUBLIC	?put_text@kdu_message@@UAEXPBG@Z		; kdu_message::put_text
PUBLIC	??6kdu_message@@QAEAAV0@H@Z			; kdu_message::operator<<
PUBLIC	?put_text@kdu_message_formatter@@UAEXPBG@Z	; kdu_message_formatter::put_text
PUBLIC	?put_text@kdu_error@@UAEXPBG@Z			; kdu_error::put_text
PUBLIC	?put_text@kdu_warning@@UAEXPBG@Z		; kdu_warning::put_text
PUBLIC	??1kdu_output@@UAE@XZ				; kdu_output::~kdu_output
PUBLIC	?put@kdu_output@@QAEHG@Z			; kdu_output::put
PUBLIC	?put@kdu_output@@QAEHI@Z			; kdu_output::put
PUBLIC	?write@kdu_output@@QAEXPAEH@Z			; kdu_output::write
PUBLIC	??_Gkdu_output@@UAEPAXI@Z			; kdu_output::`scalar deleting destructor'
PUBLIC	??1siz_params@@UAE@XZ				; siz_params::~siz_params
PUBLIC	??0kdu_kernel_step_info@@QAE@XZ			; kdu_kernel_step_info::kdu_kernel_step_info
PUBLIC	??1kdu_kernels@@QAE@XZ				; kdu_kernels::~kdu_kernels
PUBLIC	??1kdu_thread_entity@@UAE@XZ			; kdu_thread_entity::~kdu_thread_entity
PUBLIC	?new_instance@kdu_thread_entity@@UAEPAV1@XZ	; kdu_thread_entity::new_instance
PUBLIC	?get_num_locks@kdu_thread_entity@@UAEHXZ	; kdu_thread_entity::get_num_locks
PUBLIC	?do_sync@kdu_thread_entity@@MAEX_N@Z		; kdu_thread_entity::do_sync
PUBLIC	?need_sync@kdu_thread_entity@@MAE_NXZ		; kdu_thread_entity::need_sync
PUBLIC	?on_finished@kdu_thread_entity@@MAEX_N@Z	; kdu_thread_entity::on_finished
PUBLIC	??_Gkdu_thread_entity@@UAEPAXI@Z		; kdu_thread_entity::`scalar deleting destructor'
PUBLIC	?kdu_get_core_version@@YAPBDXZ			; kdu_get_core_version
PUBLIC	?to_apparent@kdu_coords@@QAEX_N00@Z		; kdu_coords::to_apparent
PUBLIC	??_4kdu_dims@@QAE?AU0@AAU0@@Z			; kdu_dims::operator&=
PUBLIC	?intersects@kdu_dims@@QAE_NAAU1@@Z		; kdu_dims::intersects
PUBLIC	?get_text@kdu_codestream_comment@@QAEPBDXZ	; kdu_codestream_comment::get_text
PUBLIC	?check_readonly@kdu_codestream_comment@@QAE_NXZ	; kdu_codestream_comment::check_readonly
PUBLIC	?put_text@kdu_codestream_comment@@QAE_NPBD@Z	; kdu_codestream_comment::put_text
PUBLIC	?create@kdu_codestream@@QAEXPAVsiz_params@@PAVkdu_compressed_target@@PAUkdu_dims@@H_J@Z ; kdu_codestream::create
PUBLIC	?create@kdu_codestream@@QAEXPAVkdu_compressed_source@@PAVkdu_thread_env@@@Z ; kdu_codestream::create
PUBLIC	?create@kdu_codestream@@QAEXPAVsiz_params@@@Z	; kdu_codestream::create
PUBLIC	?restart@kdu_codestream@@QAEXPAVkdu_compressed_target@@@Z ; kdu_codestream::restart
PUBLIC	?restart@kdu_codestream@@QAEXPAVkdu_compressed_source@@PAVkdu_thread_env@@@Z ; kdu_codestream::restart
PUBLIC	?share_buffering@kdu_codestream@@QAEXV1@@Z	; kdu_codestream::share_buffering
PUBLIC	?destroy@kdu_codestream@@QAEXXZ			; kdu_codestream::destroy
PUBLIC	?enable_restart@kdu_codestream@@QAEXXZ		; kdu_codestream::enable_restart
PUBLIC	?set_persistent@kdu_codestream@@QAEXXZ		; kdu_codestream::set_persistent
PUBLIC	?augment_cache_threshold@kdu_codestream@@QAE_JH@Z ; kdu_codestream::augment_cache_threshold
PUBLIC	?set_tile_unloading_threshold@kdu_codestream@@QAEHH@Z ; kdu_codestream::set_tile_unloading_threshold
PUBLIC	?is_last_fragment@kdu_codestream@@QAE_NXZ	; kdu_codestream::is_last_fragment
PUBLIC	?access_siz@kdu_codestream@@QAEPAVsiz_params@@XZ ; kdu_codestream::access_siz
PUBLIC	?get_num_components@kdu_codestream@@QAEH_N@Z	; kdu_codestream::get_num_components
PUBLIC	?get_bit_depth@kdu_codestream@@QAEHH_N@Z	; kdu_codestream::get_bit_depth
PUBLIC	?get_signed@kdu_codestream@@QAE_NH_N@Z		; kdu_codestream::get_signed
PUBLIC	?get_subsampling@kdu_codestream@@QAEXHAAUkdu_coords@@_N@Z ; kdu_codestream::get_subsampling
PUBLIC	?get_registration@kdu_codestream@@QAEXHUkdu_coords@@AAU2@_N@Z ; kdu_codestream::get_registration
PUBLIC	?get_dims@kdu_codestream@@QAEXHAAUkdu_dims@@_N@Z ; kdu_codestream::get_dims
PUBLIC	?get_tile_partition@kdu_codestream@@QAEXAAUkdu_dims@@@Z ; kdu_codestream::get_tile_partition
PUBLIC	?get_valid_tiles@kdu_codestream@@QAEXAAUkdu_dims@@@Z ; kdu_codestream::get_valid_tiles
PUBLIC	?find_tile@kdu_codestream@@QAE_NHUkdu_coords@@AAU2@_N@Z ; kdu_codestream::find_tile
PUBLIC	?get_tile_dims@kdu_codestream@@QAEXUkdu_coords@@HAAUkdu_dims@@_N@Z ; kdu_codestream::get_tile_dims
PUBLIC	?get_max_tile_layers@kdu_codestream@@QAEHXZ	; kdu_codestream::get_max_tile_layers
PUBLIC	?get_min_dwt_levels@kdu_codestream@@QAEHXZ	; kdu_codestream::get_min_dwt_levels
PUBLIC	?can_flip@kdu_codestream@@QAE_N_N@Z		; kdu_codestream::can_flip
PUBLIC	?map_region@kdu_codestream@@QAEXHUkdu_dims@@AAU2@_N@Z ; kdu_codestream::map_region
PUBLIC	?set_textualization@kdu_codestream@@QAEXPAVkdu_message@@@Z ; kdu_codestream::set_textualization
PUBLIC	?set_max_bytes@kdu_codestream@@QAEX_J_N1@Z	; kdu_codestream::set_max_bytes
PUBLIC	?set_min_slope_threshold@kdu_codestream@@QAEXG@Z ; kdu_codestream::set_min_slope_threshold
PUBLIC	?set_resilient@kdu_codestream@@QAEX_N@Z		; kdu_codestream::set_resilient
PUBLIC	?set_fussy@kdu_codestream@@QAEXXZ		; kdu_codestream::set_fussy
PUBLIC	?set_fast@kdu_codestream@@QAEXXZ		; kdu_codestream::set_fast
PUBLIC	?apply_input_restrictions@kdu_codestream@@QAEXHHHHPAUkdu_dims@@W4kdu_component_access_mode@@@Z ; kdu_codestream::apply_input_restrictions
PUBLIC	?apply_input_restrictions@kdu_codestream@@QAEXHPAHHHPAUkdu_dims@@W4kdu_component_access_mode@@@Z ; kdu_codestream::apply_input_restrictions
PUBLIC	?change_appearance@kdu_codestream@@QAEX_N00@Z	; kdu_codestream::change_appearance
PUBLIC	?set_block_truncation@kdu_codestream@@QAEXH@Z	; kdu_codestream::set_block_truncation
PUBLIC	?open_tile@kdu_codestream@@QAE?AVkdu_tile@@Ukdu_coords@@PAVkdu_thread_env@@@Z ; kdu_codestream::open_tile
PUBLIC	?get_comment@kdu_codestream@@QAE?AVkdu_codestream_comment@@V2@@Z ; kdu_codestream::get_comment
PUBLIC	?add_comment@kdu_codestream@@QAE?AVkdu_codestream_comment@@XZ ; kdu_codestream::add_comment
PUBLIC	?flush@kdu_codestream@@QAEXPA_JHPAG_N2NPAVkdu_thread_env@@@Z ; kdu_codestream::flush
PUBLIC	?trans_out@kdu_codestream@@QAEH_JPA_JH_NPAVkdu_thread_env@@@Z ; kdu_codestream::trans_out
PUBLIC	?ready_for_flush@kdu_codestream@@QAE_NPAVkdu_thread_env@@@Z ; kdu_codestream::ready_for_flush
PUBLIC	?get_total_bytes@kdu_codestream@@QAE_J_N@Z	; kdu_codestream::get_total_bytes
PUBLIC	?get_num_tparts@kdu_codestream@@QAEHXZ		; kdu_codestream::get_num_tparts
PUBLIC	?collect_timing_stats@kdu_codestream@@QAEXH@Z	; kdu_codestream::collect_timing_stats
PUBLIC	?get_timing_stats@kdu_codestream@@QAENPA_J_N@Z	; kdu_codestream::get_timing_stats
PUBLIC	?get_compressed_data_memory@kdu_codestream@@QAE_J_N@Z ; kdu_codestream::get_compressed_data_memory
PUBLIC	?get_compressed_state_memory@kdu_codestream@@QAE_J_N@Z ; kdu_codestream::get_compressed_state_memory
PUBLIC	??0kdu_thread_env@@QAE@XZ			; kdu_thread_env::kdu_thread_env
PUBLIC	??1kdu_thread_env@@UAE@XZ			; kdu_thread_env::~kdu_thread_env
PUBLIC	?new_instance@kdu_thread_env@@UAEPAVkdu_thread_entity@@XZ ; kdu_thread_env::new_instance
PUBLIC	?get_num_locks@kdu_thread_env@@UAEHXZ		; kdu_thread_env::get_num_locks
PUBLIC	?need_sync@kdu_thread_env@@MAE_NXZ		; kdu_thread_env::need_sync
PUBLIC	?do_sync@kdu_thread_env@@MAEX_N@Z		; kdu_thread_env::do_sync
PUBLIC	?on_finished@kdu_thread_env@@MAEX_N@Z		; kdu_thread_env::on_finished
PUBLIC	??_Ekdu_thread_env@@UAEPAXI@Z			; kdu_thread_env::`vector deleting destructor'
PUBLIC	?print_marker_code@@YAXGAAVkdu_message@@@Z	; print_marker_code
PUBLIC	??1kd_buf_server@@QAE@XZ			; kd_buf_server::~kd_buf_server
PUBLIC	?get@kd_buf_server@@QAEPAUkd_code_buffer@@XZ	; kd_buf_server::get
PUBLIC	?release@kd_buf_server@@QAEXPAUkd_code_buffer@@@Z ; kd_buf_server::release
PUBLIC	?get_page_block@kd_buf_server@@QAEPAUkd_code_buffer@@HAAPAU2@@Z ; kd_buf_server::get_page_block
PUBLIC	?attach_thread_buf_server@kd_buf_server@@QAEXPAVkd_thread_buf_server@@@Z ; kd_buf_server::attach_thread_buf_server
PUBLIC	?detach_thread_buf_server@kd_buf_server@@QAEXPAVkd_thread_buf_server@@@Z ; kd_buf_server::detach_thread_buf_server
PUBLIC	?alloc_pages@kd_buf_server@@AAEXXZ		; kd_buf_server::alloc_pages
PUBLIC	?set_codestream_buf_server@kd_thread_buf_server@@QAEXPAVkd_buf_server@@@Z ; kd_thread_buf_server::set_codestream_buf_server
PUBLIC	?adjust_peak_buffers@kd_thread_buf_server@@QAEXXZ ; kd_thread_buf_server::adjust_peak_buffers
PUBLIC	?augment_local_store@kd_thread_buf_server@@QAEX_N@Z ; kd_thread_buf_server::augment_local_store
PUBLIC	??1kd_compressed_output@@UAE@XZ			; kd_compressed_output::~kd_compressed_output
PUBLIC	?flush_buf@kd_compressed_output@@MAEXXZ		; kd_compressed_output::flush_buf
PUBLIC	??_Gkd_compressed_output@@UAEPAXI@Z		; kd_compressed_output::`scalar deleting destructor'
PUBLIC	??1kd_input@@UAE@XZ				; kd_input::~kd_input
PUBLIC	?get@kd_input@@QAE_NAAE@Z			; kd_input::get
PUBLIC	?read@kd_input@@QAEHPAEH@Z			; kd_input::read
PUBLIC	?read@kd_input@@QAEHAAPAUkd_code_buffer@@AAEPAVkd_buf_server@@H@Z ; kd_input::read
PUBLIC	?ignore@kd_input@@UAE_J_J@Z			; kd_input::ignore
PUBLIC	?process_unexpected_marker@kd_input@@AAEXE@Z	; kd_input::process_unexpected_marker
PUBLIC	??_Gkd_input@@UAEPAXI@Z				; kd_input::`scalar deleting destructor'
PUBLIC	??0kd_compressed_input@@QAE@PAVkdu_compressed_source@@@Z ; kd_compressed_input::kd_compressed_input
PUBLIC	?set_tileheader_scope@kd_compressed_input@@QAE_NHH@Z ; kd_compressed_input::set_tileheader_scope
PUBLIC	?seek@kd_compressed_input@@QAEX_J@Z		; kd_compressed_input::seek
PUBLIC	?ignore@kd_compressed_input@@UAE_J_J@Z		; kd_compressed_input::ignore
PUBLIC	?set_max_bytes@kd_compressed_input@@QAEX_J@Z	; kd_compressed_input::set_max_bytes
PUBLIC	?get_bytes_read@kd_compressed_input@@QAE_JXZ	; kd_compressed_input::get_bytes_read
PUBLIC	?get_suspended_bytes@kd_compressed_input@@QAE_JXZ ; kd_compressed_input::get_suspended_bytes
PUBLIC	?load_buf@kd_compressed_input@@MAE_NXZ		; kd_compressed_input::load_buf
PUBLIC	??_Gkd_compressed_input@@UAEPAXI@Z		; kd_compressed_input::`scalar deleting destructor'
PUBLIC	??1kd_pph_input@@UAE@XZ				; kd_pph_input::~kd_pph_input
PUBLIC	?add_bytes@kd_pph_input@@QAEXPAEH@Z		; kd_pph_input::add_bytes
PUBLIC	?load_buf@kd_pph_input@@MAE_NXZ			; kd_pph_input::load_buf
PUBLIC	??_Gkd_pph_input@@UAEPAXI@Z			; kd_pph_input::`scalar deleting destructor'
PUBLIC	??0kd_marker@@QAE@ABV0@@Z			; kd_marker::kd_marker
PUBLIC	?read@kd_marker@@QAE_N_N0@Z			; kd_marker::read
PUBLIC	??1kd_pp_markers@@QAE@XZ			; kd_pp_markers::~kd_pp_markers
PUBLIC	?add_marker@kd_pp_markers@@QAEXAAVkd_marker@@@Z	; kd_pp_markers::add_marker
PUBLIC	?transfer_tpart@kd_pp_markers@@QAEXPAVkd_pph_input@@@Z ; kd_pp_markers::transfer_tpart
PUBLIC	?ignore_tpart@kd_pp_markers@@QAEXXZ		; kd_pp_markers::ignore_tpart
PUBLIC	?advance_list@kd_pp_markers@@AAEXXZ		; kd_pp_markers::advance_list
PUBLIC	?init@kd_tlm_generator@@QAE_NHH@Z		; kd_tlm_generator::init
PUBLIC	?write_dummy_tlms@kd_tlm_generator@@QAEXPAVkd_compressed_output@@@Z ; kd_tlm_generator::write_dummy_tlms
PUBLIC	?add_tpart_length@kd_tlm_generator@@QAEXH_J@Z	; kd_tlm_generator::add_tpart_length
PUBLIC	?write_tlms@kd_tlm_generator@@QAEXPAVkdu_compressed_target@@H_J@Z ; kd_tlm_generator::write_tlms
PUBLIC	??1kd_tpart_pointer_server@@QAE@XZ		; kd_tpart_pointer_server::~kd_tpart_pointer_server
PUBLIC	?add_tlm_marker@kd_tpart_pointer_server@@QAEXAAVkd_marker@@@Z ; kd_tpart_pointer_server::add_tlm_marker
PUBLIC	?translate_markers@kd_tpart_pointer_server@@QAEX_JHPAUkd_tile_ref@@@Z ; kd_tpart_pointer_server::translate_markers
PUBLIC	?add_tpart@kd_tpart_pointer_server@@QAEXPAUkd_tile_ref@@_J@Z ; kd_tpart_pointer_server::add_tpart
PUBLIC	?add_plt_marker@kd_precinct_pointer_server@@QAEXAAVkd_marker@@PAVkdu_params@@1@Z ; kd_precinct_pointer_server::add_plt_marker
PUBLIC	?start_tpart_body@kd_precinct_pointer_server@@QAEX_JIPAVkdu_params@@1_N2@Z ; kd_precinct_pointer_server::start_tpart_body
PUBLIC	?pop_address@kd_precinct_pointer_server@@AAE_JXZ ; kd_precinct_pointer_server::pop_address
PUBLIC	?disable@kd_precinct_pointer_server@@AAEXXZ	; kd_precinct_pointer_server::disable
PUBLIC	??0kd_compressed_stats@@QAE@_J0_N@Z		; kd_compressed_stats::kd_compressed_stats
PUBLIC	?init@kd_compressed_stats@@QAEXXZ		; kd_compressed_stats::init
PUBLIC	?update_stats@kd_compressed_stats@@QAE_NAAV1@@Z	; kd_compressed_stats::update_stats
PUBLIC	?update_quant_slope_thresholds@kd_compressed_stats@@QAEXXZ ; kd_compressed_stats::update_quant_slope_thresholds
PUBLIC	??0kd_codestream_comment@@QAE@XZ		; kd_codestream_comment::kd_codestream_comment
PUBLIC	?set_text@kd_codestream_comment@@QAEXHPAE@Z	; kd_codestream_comment::set_text
PUBLIC	?write_marker@kd_codestream_comment@@QAEHPAVkdu_output@@H@Z ; kd_codestream_comment::write_marker
PUBLIC	?init@kd_packet_sequencer@@QAEXXZ		; kd_packet_sequencer::init
PUBLIC	?save_state@kd_packet_sequencer@@QAEXXZ		; kd_packet_sequencer::save_state
PUBLIC	?restore_state@kd_packet_sequencer@@QAEXXZ	; kd_packet_sequencer::restore_state
PUBLIC	?next_in_sequence@kd_packet_sequencer@@QAEPAVkd_precinct_ref@@AAPAUkd_resolution@@AAUkdu_coords@@@Z ; kd_packet_sequencer::next_in_sequence
PUBLIC	?next_progression@kd_packet_sequencer@@AAE_NXZ	; kd_packet_sequencer::next_progression
PUBLIC	?next_in_lrcp@kd_packet_sequencer@@AAEPAVkd_precinct_ref@@AAPAUkd_resolution@@AAUkdu_coords@@@Z ; kd_packet_sequencer::next_in_lrcp
PUBLIC	?next_in_rlcp@kd_packet_sequencer@@AAEPAVkd_precinct_ref@@AAPAUkd_resolution@@AAUkdu_coords@@@Z ; kd_packet_sequencer::next_in_rlcp
PUBLIC	?next_in_rpcl@kd_packet_sequencer@@AAEPAVkd_precinct_ref@@AAPAUkd_resolution@@AAUkdu_coords@@@Z ; kd_packet_sequencer::next_in_rpcl
PUBLIC	?next_in_pcrl@kd_packet_sequencer@@AAEPAVkd_precinct_ref@@AAPAUkd_resolution@@AAUkdu_coords@@@Z ; kd_packet_sequencer::next_in_pcrl
PUBLIC	?next_in_cprl@kd_packet_sequencer@@AAEPAVkd_precinct_ref@@AAPAUkd_resolution@@AAUkdu_coords@@@Z ; kd_packet_sequencer::next_in_cprl
PUBLIC	??0kd_reslength_checker@@QAE@XZ			; kd_reslength_checker::kd_reslength_checker
PUBLIC	??1kd_reslength_checker@@QAE@XZ			; kd_reslength_checker::~kd_reslength_checker
PUBLIC	?init@kd_reslength_checker@@QAE_NPAVcod_params@@@Z ; kd_reslength_checker::init
PUBLIC	?set_layer@kd_reslength_checker@@QAEXH@Z	; kd_reslength_checker::set_layer
PUBLIC	?check_packet@kd_reslength_checker@@QAE_N_JH@Z	; kd_reslength_checker::check_packet
PUBLIC	??_Ekd_reslength_checker@@QAEPAXI@Z		; kd_reslength_checker::`vector deleting destructor'
PUBLIC	??0kd_global_rescomp@@QAE@XZ			; kd_global_rescomp::kd_global_rescomp
PUBLIC	??1kd_global_rescomp@@QAE@XZ			; kd_global_rescomp::~kd_global_rescomp
PUBLIC	?close_all@kd_global_rescomp@@QAEXXZ		; kd_global_rescomp::close_all
PUBLIC	?initialize@kd_global_rescomp@@QAEXPAUkd_codestream@@HH@Z ; kd_global_rescomp::initialize
PUBLIC	?notify_tile_status@kd_global_rescomp@@QAEXUkdu_dims@@_N@Z ; kd_global_rescomp::notify_tile_status
PUBLIC	?add_ready_precinct@kd_global_rescomp@@QAEXPAUkd_precinct@@@Z ; kd_global_rescomp::add_ready_precinct
PUBLIC	?close_ready_precinct@kd_global_rescomp@@QAEXPAUkd_precinct@@@Z ; kd_global_rescomp::close_ready_precinct
PUBLIC	??_Ekd_global_rescomp@@QAEPAXI@Z		; kd_global_rescomp::`vector deleting destructor'
PUBLIC	??0kd_comp_info@@QAE@XZ				; kd_comp_info::kd_comp_info
PUBLIC	??0kd_output_comp_info@@QAE@XZ			; kd_output_comp_info::kd_output_comp_info
PUBLIC	??0kd_mct_ss_model@@QAE@XZ			; kd_mct_ss_model::kd_mct_ss_model
PUBLIC	??1kd_mct_ss_model@@QAE@XZ			; kd_mct_ss_model::~kd_mct_ss_model
PUBLIC	??_Ekd_mct_ss_model@@QAEPAXI@Z			; kd_mct_ss_model::`vector deleting destructor'
PUBLIC	??0kd_mct_block@@QAE@XZ				; kd_mct_block::kd_mct_block
PUBLIC	??1kd_mct_block@@QAE@XZ				; kd_mct_block::~kd_mct_block
PUBLIC	?analyze_sensitivity@kd_mct_block@@QAEXHMAAH0_N@Z ; kd_mct_block::analyze_sensitivity
PUBLIC	?create_matrix_ss_model@kd_mct_block@@AAEXXZ	; kd_mct_block::create_matrix_ss_model
PUBLIC	?create_rxform_ss_model@kd_mct_block@@AAEXXZ	; kd_mct_block::create_rxform_ss_model
PUBLIC	?create_old_rxform_ss_model@kd_mct_block@@AAEXXZ ; kd_mct_block::create_old_rxform_ss_model
PUBLIC	?create_dependency_ss_model@kd_mct_block@@AAEXXZ ; kd_mct_block::create_dependency_ss_model
PUBLIC	?create_dwt_ss_model@kd_mct_block@@AAEXXZ	; kd_mct_block::create_dwt_ss_model
PUBLIC	??_Ekd_mct_block@@QAEPAXI@Z			; kd_mct_block::`vector deleting destructor'
PUBLIC	?create_stages@kd_mct_stage@@SAXAAPAU1@0PAVkdu_params@@HHPAUkd_comp_info@@HPAUkd_output_comp_info@@@Z ; kd_mct_stage::create_stages
PUBLIC	?apply_output_restrictions@kd_mct_stage@@QAEXPAUkd_output_comp_info@@HPBH@Z ; kd_mct_stage::apply_output_restrictions
PUBLIC	??0kd_codestream@@QAE@XZ			; kd_codestream::kd_codestream
PUBLIC	??1kd_codestream@@QAE@XZ			; kd_codestream::~kd_codestream
PUBLIC	?construct_common@kd_codestream@@QAEXXZ		; kd_codestream::construct_common
PUBLIC	?construct_output_comp_info@kd_codestream@@QAEXXZ ; kd_codestream::construct_output_comp_info
PUBLIC	?finalize_construction@kd_codestream@@QAEXXZ	; kd_codestream::finalize_construction
PUBLIC	?restrict_to_fragment@kd_codestream@@QAEXUkdu_dims@@H_J@Z ; kd_codestream::restrict_to_fragment
PUBLIC	?restart@kd_codestream@@QAEXXZ			; kd_codestream::restart
PUBLIC	?create_tile@kd_codestream@@QAEPAUkd_tile@@Ukdu_coords@@@Z ; kd_codestream::create_tile
PUBLIC	?trim_compressed_data@kd_codestream@@QAEXXZ	; kd_codestream::trim_compressed_data
PUBLIC	?calculate_min_header_cost@kd_codestream@@QAEXXZ ; kd_codestream::calculate_min_header_cost
PUBLIC	?simulate_output@kd_codestream@@QAE_JAA_JHG_N1_JPA_J@Z ; kd_codestream::simulate_output
PUBLIC	?pcrd_opt@kd_codestream@@QAEX_NN@Z		; kd_codestream::pcrd_opt
PUBLIC	?generate_codestream@kd_codestream@@QAE_NH@Z	; kd_codestream::generate_codestream
PUBLIC	?set_reserved_layer_info_bytes@kd_codestream@@QAEXH@Z ; kd_codestream::set_reserved_layer_info_bytes
PUBLIC	?gen_layer_info_comment@kd_codestream@@QAEXHPA_JPAG@Z ; kd_codestream::gen_layer_info_comment
PUBLIC	?unload_tiles_to_cache_threshold@kd_codestream@@QAEXXZ ; kd_codestream::unload_tiles_to_cache_threshold
PUBLIC	?read_main_header@kd_codestream@@AAEXXZ		; kd_codestream::read_main_header
PUBLIC	?freeze_comments@kd_codestream@@AAEXXZ		; kd_codestream::freeze_comments
PUBLIC	?release@kd_precinct@@QAEXXZ			; kd_precinct::release
PUBLIC	??1kd_precinct_server@@QAE@XZ			; kd_precinct_server::~kd_precinct_server
PUBLIC	??0kd_thread_env@@QAE@PAVkdu_thread_env@@@Z	; kd_thread_env::kd_thread_env
PUBLIC	?reconcile_stats@kd_thread_env@@QAEXXZ		; kd_thread_env::reconcile_stats
PUBLIC	?flush@kd_thread_env@@QAEX_N@Z			; kd_thread_env::flush
PUBLIC	?discard_all@kd_thread_env@@QAEXXZ		; kd_thread_env::discard_all
PUBLIC	?kd_create_dwt_description@@YAXHHPAVkdu_params@@HAA_N11AAHAAPAUkdu_kernel_step_info@@AAPAM@Z ; kd_create_dwt_description
PUBLIC	?_OptionsStorage@?1??__local_stdio_printf_options@@9@4_KA ; `__local_stdio_printf_options'::`2'::_OptionsStorage
PUBLIC	??_C@_02NJNOFBBI@?$CFx?$AA@			; `string'
PUBLIC	??_C@_02DPKJAMEF@?$CFd?$AA@			; `string'
PUBLIC	??_C@_02GMHACPFF@?$CFu?$AA@			; `string'
PUBLIC	??_7kdu_output@@6B@				; kdu_output::`vftable'
PUBLIC	??_7kdu_thread_entity@@6B@			; kdu_thread_entity::`vftable'
PUBLIC	__TI1H
PUBLIC	__CTA1H
PUBLIC	??_R0H@8					; int `RTTI Type Descriptor'
PUBLIC	__CT??_R0H@84
PUBLIC	??_7kdu_thread_env@@6B@				; kdu_thread_env::`vftable'
PUBLIC	??_7kd_compressed_output@@6B@			; kd_compressed_output::`vftable'
PUBLIC	??_7kd_input@@6B@				; kd_input::`vftable'
PUBLIC	??_7kd_compressed_input@@6B@			; kd_compressed_input::`vftable'
PUBLIC	??_7kd_pph_input@@6B@				; kd_pph_input::`vftable'
PUBLIC	??_C@_04GOIBNGKI@v6?41?$AA@			; `string'
PUBLIC	??_C@_03IFCLAPBJ@ATK?$AA@			; `string'
PUBLIC	??_C@_0BE@KMIJLGEL@Kakadu?5Core?5Error?3?6?$AA@	; `string'
PUBLIC	??_C@_0FL@HPBHAILG@Unable?5to?5find?5ATK?5marker?5segmen@ ; `string'
PUBLIC	??_C@_0L@BNGLHLNI@Ksymmetric?$AA@		; `string'
PUBLIC	??_C@_0L@JOGHAEOB@Kextension?$AA@		; `string'
PUBLIC	??_C@_0M@OFOCCDJH@Kreversible?$AA@		; `string'
PUBLIC	??_C@_06PJGAHNDG@Ksteps?$AA@			; `string'
PUBLIC	??_C@_0GE@PPANCHNM@Custom?5DWT?5kernel?5found?5in?5ATK?5m@ ; `string'
PUBLIC	??_C@_07KKABNIJP@Kcoeffs?$AA@			; `string'
PUBLIC	??_C@_03KHJBFGJE@SOC?$AA@			; `string'
PUBLIC	??_C@_03KCBCNCAC@SOT?$AA@			; `string'
PUBLIC	??_C@_03OINAMAFD@SOD?$AA@			; `string'
PUBLIC	??_C@_03MGHOBHAG@SOP?$AA@			; `string'
PUBLIC	??_C@_03CGGNGDFB@EPH?$AA@			; `string'
PUBLIC	??_C@_03NCODFONH@EOC?$AA@			; `string'
PUBLIC	??_C@_03DIBMIDDO@SIZ?$AA@			; `string'
PUBLIC	??_C@_03LABBAEJP@CBD?$AA@			; `string'
PUBLIC	??_C@_03BLMOALMK@MCT?$AA@			; `string'
PUBLIC	??_C@_03BOENIPFM@MCC?$AA@			; `string'
PUBLIC	??_C@_03LCPIMAFA@MCO?$AA@			; `string'
PUBLIC	??_C@_03LIMJJHMM@COD?$AA@			; `string'
PUBLIC	??_C@_03PHIIABAL@COC?$AA@			; `string'
PUBLIC	??_C@_03BLBGDEDA@ADS?$AA@			; `string'
PUBLIC	??_C@_03CPEMBAGM@DFS?$AA@			; `string'
PUBLIC	??_C@_03ELMDPBLM@QCD?$AA@			; `string'
PUBLIC	??_C@_03EICGHHL@QCC?$AA@			; `string'
PUBLIC	??_C@_03KEJABOAE@RGN?$AA@			; `string'
PUBLIC	??_C@_03LFCEPJHK@POC?$AA@			; `string'
PUBLIC	??_C@_03IHBKPECM@CRG?$AA@			; `string'
PUBLIC	??_C@_03GJALCMIF@COM?$AA@			; `string'
PUBLIC	??_C@_03KGIDPNPK@TLM?$AA@			; `string'
PUBLIC	??_C@_03CJOBGKKN@PLM?$AA@			; `string'
PUBLIC	??_C@_03LCOBMDLF@PLT?$AA@			; `string'
PUBLIC	??_C@_03DMNNDALJ@PPM?$AA@			; `string'
PUBLIC	??_C@_03KHNNJJKB@PPT?$AA@			; `string'
PUBLIC	??_C@_02MDDDDAID@0x?$AA@			; `string'
PUBLIC	??_C@_01MNNFJEPP@?$DM?$AA@			; `string'
PUBLIC	??_C@_01PPODPGHN@?$DO?$AA@			; `string'
PUBLIC	__TI1G
PUBLIC	__CTA1G
PUBLIC	??_R0G@8					; unsigned short `RTTI Type Descriptor'
PUBLIC	__CT??_R0G@82
PUBLIC	??_C@_0LF@DMBAEAHP@Attempting?5to?5load?5cached?5tile?5h@ ; `string'
PUBLIC	??_C@_0LF@EOEFHEHA@Attempting?5to?5load?5cached?5precin@ ; `string'
PUBLIC	??_C@_0JA@OOKKCCPN@Attempting?5to?5seek?5inside?5a?5comp@ ; `string'
PUBLIC	??_C@_0BG@JPDDDEGK@Kakadu?5Core?5Warning?3?6?$AA@ ; `string'
PUBLIC	??_C@_0CH@FKDCCKNG@Skipping?5over?5corrupt?5SOP?5marker@ ; `string'
PUBLIC	??_C@_0CH@NAEOEPLF@Skipping?5over?5corrupt?5SOT?5marker@ ; `string'
PUBLIC	??_C@_0CG@FBIDHMHH@Disregarding?5non?9terminal?5EOC?5ma@ ; `string'
PUBLIC	??_C@_0FO@JCNPOBGN@Encountered?5one?5or?5more?5marker?5c@ ; `string'
PUBLIC	??_C@_0CJ@GCHDIIBC@Unrecognized?1unimplemented?5marke@ ; `string'
PUBLIC	??_C@_0BI@PDKABIHP@?0?5found?5in?5code?9stream?4?$AA@ ; `string'
PUBLIC	??_C@_0DH@CINALLDE@PPM?1PPT?5marker?5segments?5must?5be?5@ ; `string'
PUBLIC	??_C@_0IB@IHNJIGBG@Found?5multiple?5PPM?1PPT?5marker?5se@ ; `string'
PUBLIC	??_C@_0DI@CKEFAKFB@Insufficient?5packet?5header?5data?5@ ; `string'
PUBLIC	??_C@_0KG@EMHBDNCD@Encountered?5malformed?5PPM?5marker@ ; `string'
PUBLIC	??_C@_0FP@BOACKPIA@Insufficient?5packet?5header?5data?5@ ; `string'
PUBLIC	??_C@_0IA@FPINHJNP@Attempting?5to?5write?5TLM?5?$CItile?9pa@ ; `string'
PUBLIC	??_C@_0HO@CCHNKHBP@Attempting?5to?5invoke?5?$GAkd_tlm_gen@ ; `string'
PUBLIC	??_C@_0DD@NPPLBJLB@TLM?5marker?5segments?5must?5be?5at?5l@ ; `string'
PUBLIC	??_C@_0FH@FGOHBFDA@Found?5multiple?5TLM?5marker?5segmen@ ; `string'
PUBLIC	??_C@_0DG@MNLOLHMH@Illegal?5Stlm?5field?5encountered?5i@ ; `string'
PUBLIC	??_C@_0KF@DLMNKMGF@Malformed?5TLM?5marker?5segment?5enc@ ; `string'
PUBLIC	??_C@_0BAC@JCJFPLLE@Illegal?5TLM?5marker?5segment?5data?5@ ; `string'
PUBLIC	??_C@_0IA@MHJOOLGJ@TLM?5marker?5segments?5contain?5one?5@ ; `string'
PUBLIC	??_C@_0BDH@HFCLMIKM@PLT?5marker?5segments?5appear?5out?5o@ ; `string'
PUBLIC	??_C@_0BFL@CANGKIAI@There?5appears?5to?5be?5a?5problem?5wi@ ; `string'
PUBLIC	??_C@_07BJCMAMHC@Clayers?$AA@			; `string'
PUBLIC	??_C@_06IKJBDDKO@Corder?$AA@			; `string'
PUBLIC	??_C@_06NMKHLFPN@Porder?$AA@			; `string'
PUBLIC	??_C@_0BAD@EAIFLCLN@Unexpected?5change?5in?5coding?5para@ ; `string'
PUBLIC	??_C@_0JE@NAFKBLL@Malformed?5PLT?5marker?5segment?5enc@ ; `string'
PUBLIC	??_C@_0BAD@MAAGNDO@Unexpected?5change?5in?5coding?5para@ ; `string'
PUBLIC	??_C@_0BBI@KLDFJIGH@Unexpectedly?5ran?5out?5of?5packet?5l@ ; `string'
PUBLIC	??_C@_0CCA@PJBKNCFI@Tile?9part?5holds?5some?5but?5not?5all@ ; `string'
PUBLIC	??_C@_0CFK@EADCMAPD@You?5have?5invoked?5?$GAkdu_codestream@ ; `string'
PUBLIC	??_C@_0LL@CAMCHDPO@The?5compressed?5data?5buffer?5serve@ ; `string'
PUBLIC	??_C@_0OO@EOPDAIEN@The?5compressed?5data?5buffer?5serve@ ; `string'
PUBLIC	??_C@_0DA@BOBLKNCL@Supplied?5progression?5order?5attri@ ; `string'
PUBLIC	??_C@_0DD@EDBDEPHJ@?5are?5insuffient?5to?5cover?5all?5pac@ ; `string'
PUBLIC	??_C@_0BCG@LKLOKBKN@Profile?5violation?5detected?5?$CIcode@ ; `string'
PUBLIC	??_C@_0LN@NLKIMLNE@Attempting?5to?5use?5a?5spatially?5pr@ ; `string'
PUBLIC	??_C@_0M@HKNEBDCB@Creslengths?$AA@		; `string'
PUBLIC	??_C@_00CNPNBAHC@?$AA@				; `string'
PUBLIC	??_C@_0OO@PCLKLFBK@Call?5to?5?$GAkdu_codestream_comment?3@ ; `string'
PUBLIC	??_C@_0M@BMJAMMCN@Mnum_stages?$AA@		; `string'
PUBLIC	??_C@_04OOAAMMCO@Cmct?$AA@			; `string'
PUBLIC	??_C@_07CNNLMAHC@Mstages?$AA@			; `string'
PUBLIC	??_C@_0BD@ONKCHMLA@Mstage_collections?$AA@	; `string'
PUBLIC	??_C@_0CL@PILHNAFH@Unable?5to?5access?5the?5description@ ; `string'
PUBLIC	??_C@_0PF@HDJMLNFB@?5?$CIstarting?5from?50?$CJ?5in?5the?5multi?9@ ; `string'
PUBLIC	??_C@_0JM@EMODBKHC@Multi?9component?5transform?5blocks@ ; `string'
PUBLIC	??_C@_0KO@EOEMFLGL@Multi?9component?5transform?5block?5@ ; `string'
PUBLIC	??_C@_0O@BOOPOFOH@Mstage_inputs?$AA@		; `string'
PUBLIC	??_C@_0P@HHFGMPDO@Mstage_outputs?$AA@		; `string'
PUBLIC	??_C@_0O@FPIFFAOF@Mstage_xforms?$AA@		; `string'
PUBLIC	??_C@_0N@EBBFOCKJ@Mvector_size?$AA@		; `string'
PUBLIC	??_C@_0KO@HEFENJF@Unable?5to?5access?5the?5offset?5para@ ; `string'
PUBLIC	??_C@_0M@KNDNPDMI@?5and?5value?5?$AA@		; `string'
PUBLIC	??_C@_0HA@CPLCDADH@?0?5corresponding?5to?5the?5number?5of@ ; `string'
PUBLIC	??_C@_0PM@HMICKPCP@Except?5for?5irreversible?5matrix?9b@ ; `string'
PUBLIC	??_C@_0N@FIDBGNAL@Mmatrix_size?$AA@		; `string'
PUBLIC	??_C@_0KO@JDHHKMLN@Unable?5to?5access?5the?5matrix?5para@ ; `string'
PUBLIC	??_C@_0BBM@IKPPNJIM@?0?5corresponding?5to?5the?5total?5num@ ; `string'
PUBLIC	??_C@_0N@CCNKIJHO@Mtriang_size?$AA@		; `string'
PUBLIC	??_C@_0KO@HBMKDEMJ@Unable?5to?5access?5the?5matrix?5para@ ; `string'
PUBLIC	??_C@_0BIH@NMGBAOPH@?0?5corresponding?5to?5the?5total?5num@ ; `string'
PUBLIC	??_C@_0JG@ECJLCCBG@Multi?9component?5transform?5stage?5@ ; `string'
PUBLIC	??_C@_0IM@HJCMNLOE@Multi?9component?5transform?5stage?5@ ; `string'
PUBLIC	??_C@_0BBI@DKKKDOEN@Multi?9component?5transform?5does?5n@ ; `string'
PUBLIC	??_C@_0KL@GPKLLFMI@The?5last?5stage?5of?5the?5multi?9comp@ ; `string'
PUBLIC	??_C@_0BHN@CGGDHAAL@Although?5not?5strictly?5illegal?0?5t@ ; `string'
PUBLIC	??_C@_0P@NJDNNBNG@Mmatrix_coeffs?$AA@		; `string'
PUBLIC	??_C@_0P@CMBCAAOP@Mtriang_coeffs?$AA@		; `string'
PUBLIC	??_C@_08HFDHOMDN@Sprofile?$AA@			; `string'
PUBLIC	??_C@_0M@LFKICJFJ@Scomponents?$AA@		; `string'
PUBLIC	??_C@_05HNJHHEPH@Ssize?$AA@			; `string'
PUBLIC	??_C@_07PEMLCIHF@Sorigin?$AA@			; `string'
PUBLIC	??_C@_06EPMBOCAF@Stiles?$AA@			; `string'
PUBLIC	??_C@_0N@KMIIMNEN@Stile_origin?$AA@		; `string'
PUBLIC	??_C@_0IE@HJOAKJGP@Illegal?5canvas?5coordinates?3?5the?5@ ; `string'
PUBLIC	??_C@_0II@BGDHKLNP@Trying?5to?5create?5a?5?$GAkdu_codestre@ ; `string'
PUBLIC	??_C@_0L@BADPNFGK@Sprecision?$AA@		; `string'
PUBLIC	??_C@_0FK@PBAGHHBG@No?5information?5available?5concern@ ; `string'
PUBLIC	??_C@_07MGJMMJC@Ssigned?$AA@			; `string'
PUBLIC	??_C@_0EO@LBIEHJAI@No?5information?5available?5regardi@ ; `string'
PUBLIC	??_C@_09IGDOMJM@Ssampling?$AA@			; `string'
PUBLIC	??_C@_0EE@ECOMFEJN@No?5information?5available?5concern@ ; `string'
PUBLIC	??_C@_0HD@LMPODLJE@Maximum?5number?5of?5allowable?5tile@ ; `string'
PUBLIC	??_C@_0NN@GLDINDPL@Profile?5violation?5detected?5?$CIcode@ ; `string'
PUBLIC	??_C@_0LM@OKEOLEGN@Profile?5violation?5detected?5?$CIcode@ ; `string'
PUBLIC	??_C@_0MI@KDNKFEHF@Profile?5violation?5detected?5?$CIcode@ ; `string'
PUBLIC	??_C@_0BBI@OCAIKCLE@Profile?5violation?5detected?5?$CIcode@ ; `string'
PUBLIC	??_C@_0BBL@KLDBMFIF@Profile?5violation?5detected?5?$CIcode@ ; `string'
PUBLIC	??_C@_0M@NJJFAENN@Sextensions?$AA@		; `string'
PUBLIC	??_C@_0M@FAIBBHLL@Mcomponents?$AA@		; `string'
PUBLIC	??_C@_0JB@BCDJMPPA@The?5?$GAMcomponents?8?5parameter?5attr@ ; `string'
PUBLIC	??_C@_0IA@FCOMNLBF@Number?5of?5multi?9component?5transf@ ; `string'
PUBLIC	??_C@_0L@OMLPDKKH@Mprecision?$AA@		; `string'
PUBLIC	??_C@_07GFFIOPIL@Msigned?$AA@			; `string'
PUBLIC	??_C@_09NPOAGBMD@CRGoffset?$AA@			; `string'
PUBLIC	??_C@_07MIOINIMK@Cdecomp?$AA@			; `string'
PUBLIC	??_C@_0MJ@FDIMAMPF@The?5fragment?5region?5supplied?5to?5@ ; `string'
PUBLIC	??_C@_0ED@OJAJOCED@The?5fragment?5region?5supplied?5to?5@ ; `string'
PUBLIC	??_C@_0KD@BEOENLDH@The?5fragment?5region?5supplied?5to?5@ ; `string'
PUBLIC	??_C@_0FC@DHCIJBNO@You?5must?5close?5all?5open?5tile?5int@ ; `string'
PUBLIC	??_C@_0BB@MMIMJKHF@Kdu?9Layer?9Info?3?5?$AA@	; `string'
PUBLIC	??_C@_0EF@DAJKGEFP@Kdu?9Layer?9Info?3?5log_2?$HLDelta?9D?$CIMS@ ; `string'
PUBLIC	??_C@_0O@GOIICFII@?$CF6?41f?0?5?$CF8?41e?6?$AA@	; `string'
PUBLIC	??_C@_0CJ@KOLIFCGA@Main?5code?9stream?5header?5appears?5@ ; `string'
PUBLIC	??_C@_0GH@CBFAGHCH@You?5cannot?5use?5PPM?5or?5PPT?5marker@ ; `string'
PUBLIC	??_C@_0KL@JPMPCIAA@Profile?5violation?5detected?5?$CIcode@ ; `string'
PUBLIC	??_C@_0MM@CDEHNDAJ@Dynamic?5indexing?5of?5tile?9parts?0?5@ ; `string'
PUBLIC	??_C@_0M@DAABJAJJ@Kakadu?9v6?41?$AA@		; `string'
PUBLIC	??_C@_0BBD@JFFMFNED@Attempting?5to?5run?5rate?9control?5s@ ; `string'
PUBLIC	??_C@_0BBE@DMFGKAON@Using?5the?5?$GAkdu_codestream?3?3gener@ ; `string'
PUBLIC	??_C@_03MNMMELJE@ORG?$AA@			; `string'
PUBLIC	??_C@_0L@CIAEHHDE@ORGgen_tlm?$AA@		; `string'
PUBLIC	??_C@_0BGA@CEHDEKMG@Unable?5to?5generate?5the?5TLM?5marke@ ; `string'
PUBLIC	??_C@_0BHK@LFLLGIPF@Unable?5to?5generate?5the?5TLM?5marke@ ; `string'
PUBLIC	??_C@_0CL@KMFCLNLD@Code?9stream?5must?5start?5with?5an?5S@ ; `string'
PUBLIC	??_C@_0FH@CKLGEIAA@Code?9stream?5must?5contain?5a?5valid@ ; `string'
PUBLIC	??_C@_0KI@GFLIIJEF@You?5may?5not?5use?5the?5?$GAkdu_codestr@ ; `string'
PUBLIC	??_C@_0MD@MOKJCILO@You?5may?5not?5use?5the?5output?5form?5@ ; `string'
PUBLIC	??_C@_0MB@GNICMEAH@You?5may?5not?5use?5the?5input?5form?5o@ ; `string'
PUBLIC	??_C@_0LL@KPFADBNA@You?5cannot?5use?5the?5?$GAkdu_codestre@ ; `string'
PUBLIC	??_C@_0FA@JIHDPBJH@You?5may?5not?5call?5?$GAkdu_codestream@ ; `string'
PUBLIC	??_C@_0GD@FICOODEH@You?5may?5only?5set?5the?5codestream?5@ ; `string'
PUBLIC	??_C@_0EM@OGOFBDKF@Attempting?5to?5impose?5too?5small?5a@ ; `string'
PUBLIC	??_C@_0DL@OBAGKPCA@?5bytes?5is?5insufficient?5to?5accomo@ ; `string'
PUBLIC	??_C@_0EC@IHLMBNEM@?$CCkdu_codestream?3?3set_max_bytes?$CC?5@ ; `string'
PUBLIC	??_C@_0IL@NFJOEHBJ@The?5?$GAkdu_codestream?3?3apply_input@ ; `string'
PUBLIC	??_C@_0GO@DAONBPDM@You?5may?5apply?5restrictions?5to?5th@ ; `string'
PUBLIC	??_C@_0KF@HPOIMBFL@You?5may?5not?5apply?5restrictions?5t@ ; `string'
PUBLIC	??_C@_0HD@FCIAAPLI@The?5range?5of?5apparent?5image?5comp@ ; `string'
PUBLIC	??_C@_0HK@LCIPMOP@The?5range?5of?5apparent?5output?5ima@ ; `string'
PUBLIC	??_C@_0FL@KCCGCDMA@You?5may?5change?5the?5apparent?5geom@ ; `string'
PUBLIC	??_C@_0JC@LBCJLKIB@You?5may?5not?5change?5the?5apparent?5@ ; `string'
PUBLIC	??_C@_07BGFFFHMP@Clevels?$AA@			; `string'
PUBLIC	??_C@_0EI@FINBMEOC@Attempting?5to?5access?5a?5tile?5whic@ ; `string'
PUBLIC	??_C@_0JF@GPFDNPBI@When?5generating?5code?9stream?5outp@ ; `string'
PUBLIC	??_C@_0KC@BHKKEAHA@You?5cannot?5currently?5use?5the?5?$GACr@ ; `string'
PUBLIC	??_C@_0KM@DJNDCKID@Unable?5to?5find?5modified?5distorti@ ; `string'
PUBLIC	??_C@_0BAM@PBALKCJD@You?5cannot?5currently?5use?5the?5?$GACr@ ; `string'
PUBLIC	??_C@_0IB@LAIBJLIH@You?5have?5set?5the?5byte?5limit?5too?5@ ; `string'
PUBLIC	??_R4kdu_output@@6B@				; kdu_output::`RTTI Complete Object Locator'
PUBLIC	??_R0?AVkdu_output@@@8				; kdu_output `RTTI Type Descriptor'
PUBLIC	??_R3kdu_output@@8				; kdu_output::`RTTI Class Hierarchy Descriptor'
PUBLIC	??_R2kdu_output@@8				; kdu_output::`RTTI Base Class Array'
PUBLIC	??_R1A@?0A@EA@kdu_output@@8			; kdu_output::`RTTI Base Class Descriptor at (0,-1,0,64)'
PUBLIC	??_R4kdu_thread_entity@@6B@			; kdu_thread_entity::`RTTI Complete Object Locator'
PUBLIC	??_R0?AVkdu_thread_entity@@@8			; kdu_thread_entity `RTTI Type Descriptor'
PUBLIC	??_R3kdu_thread_entity@@8			; kdu_thread_entity::`RTTI Class Hierarchy Descriptor'
PUBLIC	??_R2kdu_thread_entity@@8			; kdu_thread_entity::`RTTI Base Class Array'
PUBLIC	??_R1A@?0A@EA@kdu_thread_entity@@8		; kdu_thread_entity::`RTTI Base Class Descriptor at (0,-1,0,64)'
PUBLIC	??_R4kdu_thread_env@@6B@			; kdu_thread_env::`RTTI Complete Object Locator'
PUBLIC	??_R0?AVkdu_thread_env@@@8			; kdu_thread_env `RTTI Type Descriptor'
PUBLIC	??_R3kdu_thread_env@@8				; kdu_thread_env::`RTTI Class Hierarchy Descriptor'
PUBLIC	??_R2kdu_thread_env@@8				; kdu_thread_env::`RTTI Base Class Array'
PUBLIC	??_R1A@?0A@EA@kdu_thread_env@@8			; kdu_thread_env::`RTTI Base Class Descriptor at (0,-1,0,64)'
PUBLIC	??_R4kd_compressed_output@@6B@			; kd_compressed_output::`RTTI Complete Object Locator'
PUBLIC	??_R0?AVkd_compressed_output@@@8		; kd_compressed_output `RTTI Type Descriptor'
PUBLIC	??_R3kd_compressed_output@@8			; kd_compressed_output::`RTTI Class Hierarchy Descriptor'
PUBLIC	??_R2kd_compressed_output@@8			; kd_compressed_output::`RTTI Base Class Array'
PUBLIC	??_R1A@?0A@EA@kd_compressed_output@@8		; kd_compressed_output::`RTTI Base Class Descriptor at (0,-1,0,64)'
PUBLIC	??_R4kd_input@@6B@				; kd_input::`RTTI Complete Object Locator'
PUBLIC	??_R0?AVkd_input@@@8				; kd_input `RTTI Type Descriptor'
PUBLIC	??_R3kd_input@@8				; kd_input::`RTTI Class Hierarchy Descriptor'
PUBLIC	??_R2kd_input@@8				; kd_input::`RTTI Base Class Array'
PUBLIC	??_R1A@?0A@EA@kd_input@@8			; kd_input::`RTTI Base Class Descriptor at (0,-1,0,64)'
PUBLIC	??_R4kd_compressed_input@@6B@			; kd_compressed_input::`RTTI Complete Object Locator'
PUBLIC	??_R0?AVkd_compressed_input@@@8			; kd_compressed_input `RTTI Type Descriptor'
PUBLIC	??_R3kd_compressed_input@@8			; kd_compressed_input::`RTTI Class Hierarchy Descriptor'
PUBLIC	??_R2kd_compressed_input@@8			; kd_compressed_input::`RTTI Base Class Array'
PUBLIC	??_R1A@?0A@EA@kd_compressed_input@@8		; kd_compressed_input::`RTTI Base Class Descriptor at (0,-1,0,64)'
PUBLIC	??_R4kd_pph_input@@6B@				; kd_pph_input::`RTTI Complete Object Locator'
PUBLIC	??_R0?AVkd_pph_input@@@8			; kd_pph_input `RTTI Type Descriptor'
PUBLIC	??_R3kd_pph_input@@8				; kd_pph_input::`RTTI Class Hierarchy Descriptor'
PUBLIC	??_R2kd_pph_input@@8				; kd_pph_input::`RTTI Base Class Array'
PUBLIC	??_R1A@?0A@EA@kd_pph_input@@8			; kd_pph_input::`RTTI Base Class Descriptor at (0,-1,0,64)'
PUBLIC	__real@3f000000
PUBLIC	__real@3f70000000000000
PUBLIC	__real@3f800000
PUBLIC	__real@3fe0000000000000
PUBLIC	__real@3ff0000000000000
PUBLIC	__real@408f400000000000
PUBLIC	__real@40f0000000000000
PUBLIC	__real@bf800000
PUBLIC	__xmm@3ff00000000000003ff0000000000000
PUBLIC	__xmm@80000000800000008000000080000000
PUBLIC	__xmm@bff0000000000000bff0000000000000
EXTRN	??_L@YGXPAXIIP6EX0@Z1@Z:PROC			; `eh vector constructor iterator'
EXTRN	??_M@YGXPAXIIP6EX0@Z@Z:PROC			; `eh vector destructor iterator'
EXTRN	__purecall:PROC
EXTRN	??2@YAPAXI@Z:PROC				; operator new
EXTRN	??3@YAXPAXI@Z:PROC				; operator delete
EXTRN	?__global_delete@@YAXPAXI@Z:PROC		; __global_delete
EXTRN	??_U@YAPAXI@Z:PROC				; operator new[]
EXTRN	??_V@YAXPAX@Z:PROC				; operator delete[]
EXTRN	??_V@YAXPAXI@Z:PROC				; operator delete[]
EXTRN	___std_terminate:PROC
EXTRN	__imp__strncat:PROC
EXTRN	__imp__strncmp:PROC
EXTRN	__imp__ReleaseMutex@4:PROC
EXTRN	__imp__WaitForSingleObject@8:PROC
EXTRN	__imp__free:PROC
EXTRN	__imp__malloc:PROC
EXTRN	__imp____stdio_common_vsprintf:PROC
EXTRN	??0kdu_error@@QAE@PBD@Z:PROC			; kdu_error::kdu_error
EXTRN	??1kdu_error@@UAE@XZ:PROC			; kdu_error::~kdu_error
EXTRN	??0kdu_warning@@QAE@PBD@Z:PROC			; kdu_warning::kdu_warning
EXTRN	??1kdu_warning@@UAE@XZ:PROC			; kdu_warning::~kdu_warning
EXTRN	??_Ekdu_output@@UAEPAXI@Z:PROC			; kdu_output::`vector deleting destructor'
EXTRN	??1kdu_params@@UAE@XZ:PROC			; kdu_params::~kdu_params
EXTRN	?link@kdu_params@@QAEPAV1@PAV1@HHHH@Z:PROC	; kdu_params::link
EXTRN	?copy_from@kdu_params@@QAEXPAV1@HHHHH_N11@Z:PROC ; kdu_params::copy_from
EXTRN	?access_cluster@kdu_params@@QAEPAV1@PBD@Z:PROC	; kdu_params::access_cluster
EXTRN	?access_relation@kdu_params@@QAEPAV1@HHH_N@Z:PROC ; kdu_params::access_relation
EXTRN	?access_unique@kdu_params@@QAEPAV1@HHH@Z:PROC	; kdu_params::access_unique
EXTRN	?clear_marks@kdu_params@@QAEXXZ:PROC		; kdu_params::clear_marks
EXTRN	?any_changes@kdu_params@@QAE_NXZ:PROC		; kdu_params::any_changes
EXTRN	?translate_marker_segment@kdu_params@@QAE_NGHQAEHH@Z:PROC ; kdu_params::translate_marker_segment
EXTRN	?generate_marker_segments@kdu_params@@QAEHPAVkdu_output@@HH@Z:PROC ; kdu_params::generate_marker_segments
EXTRN	?get@kdu_params@@QAE_NPBDHHAAH_N22@Z:PROC	; kdu_params::get
EXTRN	?get@kdu_params@@QAE_NPBDHHAA_N_N22@Z:PROC	; kdu_params::get
EXTRN	?get@kdu_params@@QAE_NPBDHHAAM_N22@Z:PROC	; kdu_params::get
EXTRN	?set@kdu_params@@QAEXPBDHHH@Z:PROC		; kdu_params::set
EXTRN	?textualize_attributes@kdu_params@@QAEXAAVkdu_message@@HH_N@Z:PROC ; kdu_params::textualize_attributes
EXTRN	?finalize_all@kdu_params@@QAEXH_N@Z:PROC	; kdu_params::finalize_all
EXTRN	??0siz_params@@QAE@XZ:PROC			; siz_params::siz_params
EXTRN	??0mct_params@@QAE@XZ:PROC			; mct_params::mct_params
EXTRN	??0mcc_params@@QAE@XZ:PROC			; mcc_params::mcc_params
EXTRN	??0mco_params@@QAE@XZ:PROC			; mco_params::mco_params
EXTRN	??0atk_params@@QAE@XZ:PROC			; atk_params::atk_params
EXTRN	??0cod_params@@QAE@XZ:PROC			; cod_params::cod_params
EXTRN	??0ads_params@@QAE@XZ:PROC			; ads_params::ads_params
EXTRN	??0dfs_params@@QAE@XZ:PROC			; dfs_params::dfs_params
EXTRN	??0qcd_params@@QAE@XZ:PROC			; qcd_params::qcd_params
EXTRN	??0rgn_params@@QAE@XZ:PROC			; rgn_params::rgn_params
EXTRN	??0poc_params@@QAE@XZ:PROC			; poc_params::poc_params
EXTRN	??0crg_params@@QAE@XZ:PROC			; crg_params::crg_params
EXTRN	??0org_params@@QAE@XZ:PROC			; org_params::org_params
EXTRN	?init@kdu_kernels@@QAEXHPBUkdu_kernel_step_info@@PBM_N22@Z:PROC ; kdu_kernels::init
EXTRN	?get_impulse_response@kdu_kernels@@QAEPAMW4kdu_kernel_type@@AAHPAH2@Z:PROC ; kdu_kernels::get_impulse_response
EXTRN	?clear@kdu_kernels@@AAEXXZ:PROC			; kdu_kernels::clear
EXTRN	?reset@kdu_kernels@@AAEXXZ:PROC			; kdu_kernels::reset
EXTRN	__imp__clock:PROC
EXTRN	??0kdu_thread_entity@@QAE@XZ:PROC		; kdu_thread_entity::kdu_thread_entity
EXTRN	??2kdu_thread_entity@@SAPAXI@Z:PROC		; kdu_thread_entity::operator new
EXTRN	??3kdu_thread_entity@@SAXPAX@Z:PROC		; kdu_thread_entity::operator delete
EXTRN	?get_current_thread_entity@kdu_thread_entity@@QAEPAV1@XZ:PROC ; kdu_thread_entity::get_current_thread_entity
EXTRN	?destroy@kdu_thread_entity@@QAE_NXZ:PROC	; kdu_thread_entity::destroy
EXTRN	?handle_exception@kdu_thread_entity@@UAEXH@Z:PROC ; kdu_thread_entity::handle_exception
EXTRN	??_Ekdu_thread_entity@@UAEPAXI@Z:PROC		; kdu_thread_entity::`vector deleting destructor'
EXTRN	??0kdu_block@@AAE@XZ:PROC			; kdu_block::kdu_block
EXTRN	??1kdu_block@@AAE@XZ:PROC			; kdu_block::~kdu_block
EXTRN	??_Ekd_compressed_output@@UAEPAXI@Z:PROC	; kd_compressed_output::`vector deleting destructor'
EXTRN	??_Ekd_input@@UAEPAXI@Z:PROC			; kd_input::`vector deleting destructor'
EXTRN	??_Ekd_compressed_input@@UAEPAXI@Z:PROC		; kd_compressed_input::`vector deleting destructor'
EXTRN	??_Ekd_pph_input@@UAEPAXI@Z:PROC		; kd_pph_input::`vector deleting destructor'
EXTRN	??0kd_tile@@QAE@PAUkd_codestream@@PAUkd_tile_ref@@Ukdu_coords@@Ukdu_dims@@@Z:PROC ; kd_tile::kd_tile
EXTRN	??1kd_tile@@QAE@XZ:PROC				; kd_tile::~kd_tile
EXTRN	?release@kd_tile@@QAEXXZ:PROC			; kd_tile::release
EXTRN	?initialize@kd_tile@@QAEXXZ:PROC		; kd_tile::initialize
EXTRN	?recycle@kd_tile@@QAEXPAUkd_tile_ref@@Ukdu_coords@@Ukdu_dims@@@Z:PROC ; kd_tile::recycle
EXTRN	?restart@kd_tile@@QAEXXZ:PROC			; kd_tile::restart
EXTRN	?reinitialize@kd_tile@@QAEXXZ:PROC		; kd_tile::reinitialize
EXTRN	?open@kd_tile@@QAEXXZ:PROC			; kd_tile::open
EXTRN	?generate_tile_part@kd_tile@@QAE_JHQAG@Z:PROC	; kd_tile::generate_tile_part
EXTRN	?close@kd_precinct_ref@@QAEXXZ:PROC		; kd_precinct_ref::close
EXTRN	?set_address@kd_precinct_ref@@QAE_NPAUkd_resolution@@Ukdu_coords@@_J@Z:PROC ; kd_precinct_ref::set_address
EXTRN	?instantiate_precinct@kd_precinct_ref@@AAEPAUkd_precinct@@PAUkd_resolution@@Ukdu_coords@@@Z:PROC ; kd_precinct_ref::instantiate_precinct
EXTRN	?trim_data@kd_block@@QAE_NGPAVkd_buf_server@@@Z:PROC ; kd_block::trim_data
EXTRN	?activate@kd_precinct@@QAEXXZ:PROC		; kd_precinct::activate
EXTRN	?simulate_packet@kd_precinct@@QAE_JAA_JHG_N1_J1@Z:PROC ; kd_precinct::simulate_packet
EXTRN	?move_to_inactive_list@kd_precinct_size_class@@QAEXPAUkd_precinct@@@Z:PROC ; kd_precinct_size_class::move_to_inactive_list
EXTRN	?withdraw_from_inactive_list@kd_precinct_size_class@@QAEXPAUkd_precinct@@@Z:PROC ; kd_precinct_size_class::withdraw_from_inactive_list
EXTRN	@__security_check_cookie@4:PROC
EXTRN	__CxxThrowException@8:PROC
EXTRN	___CxxFrameHandler3:PROC
EXTRN	__allmul:PROC
EXTRN	__allshr:PROC
EXTRN	__dtol3:PROC
EXTRN	__libm_sse2_exp_precise:PROC
EXTRN	__libm_sse2_log_precise:PROC
EXTRN	__libm_sse2_pow_precise:PROC
EXTRN	__ltod3:PROC
EXTRN	_floor:PROC
EXTRN	_memcpy:PROC
EXTRN	_memset:PROC
EXTRN	??_7type_info@@6B@:QWORD			; type_info::`vftable'
EXTRN	___security_cookie:DWORD
EXTRN	__fltused:DWORD
;	COMDAT ?_OptionsStorage@?1??__local_stdio_printf_options@@9@4_KA
_BSS	SEGMENT
?_OptionsStorage@?1??__local_stdio_printf_options@@9@4_KA DQ 01H DUP (?) ; `__local_stdio_printf_options'::`2'::_OptionsStorage
_BSS	ENDS
;	COMDAT __xmm@bff0000000000000bff0000000000000
CONST	SEGMENT
__xmm@bff0000000000000bff0000000000000 DB 00H, 00H, 00H, 00H, 00H, 00H, 0f0H
	DB	0bfH, 00H, 00H, 00H, 00H, 00H, 00H, 0f0H, 0bfH
CONST	ENDS
;	COMDAT __xmm@80000000800000008000000080000000
CONST	SEGMENT
__xmm@80000000800000008000000080000000 DB 00H, 00H, 00H, 080H, 00H, 00H, 00H
	DB	080H, 00H, 00H, 00H, 080H, 00H, 00H, 00H, 080H
CONST	ENDS
;	COMDAT __xmm@3ff00000000000003ff0000000000000
CONST	SEGMENT
__xmm@3ff00000000000003ff0000000000000 DB 00H, 00H, 00H, 00H, 00H, 00H, 0f0H
	DB	'?', 00H, 00H, 00H, 00H, 00H, 00H, 0f0H, '?'
CONST	ENDS
;	COMDAT __real@bf800000
CONST	SEGMENT
__real@bf800000 DD 0bf800000r			; -1
CONST	ENDS
;	COMDAT __real@40f0000000000000
CONST	SEGMENT
__real@40f0000000000000 DQ 040f0000000000000r	; 65536
CONST	ENDS
;	COMDAT __real@408f400000000000
CONST	SEGMENT
__real@408f400000000000 DQ 0408f400000000000r	; 1000
CONST	ENDS
;	COMDAT __real@3ff0000000000000
CONST	SEGMENT
__real@3ff0000000000000 DQ 03ff0000000000000r	; 1
CONST	ENDS
;	COMDAT __real@3fe0000000000000
CONST	SEGMENT
__real@3fe0000000000000 DQ 03fe0000000000000r	; 0.5
CONST	ENDS
;	COMDAT __real@3f800000
CONST	SEGMENT
__real@3f800000 DD 03f800000r			; 1
CONST	ENDS
;	COMDAT __real@3f70000000000000
CONST	SEGMENT
__real@3f70000000000000 DQ 03f70000000000000r	; 0.00390625
CONST	ENDS
;	COMDAT __real@3f000000
CONST	SEGMENT
__real@3f000000 DD 03f000000r			; 0.5
CONST	ENDS
;	COMDAT ??_R1A@?0A@EA@kd_pph_input@@8
rdata$r	SEGMENT
??_R1A@?0A@EA@kd_pph_input@@8 DD FLAT:??_R0?AVkd_pph_input@@@8 ; kd_pph_input::`RTTI Base Class Descriptor at (0,-1,0,64)'
	DD	01H
	DD	00H
	DD	0ffffffffH
	DD	00H
	DD	040H
	DD	FLAT:??_R3kd_pph_input@@8
rdata$r	ENDS
;	COMDAT ??_R2kd_pph_input@@8
rdata$r	SEGMENT
??_R2kd_pph_input@@8 DD FLAT:??_R1A@?0A@EA@kd_pph_input@@8 ; kd_pph_input::`RTTI Base Class Array'
	DD	FLAT:??_R1A@?0A@EA@kd_input@@8
rdata$r	ENDS
;	COMDAT ??_R3kd_pph_input@@8
rdata$r	SEGMENT
??_R3kd_pph_input@@8 DD 00H				; kd_pph_input::`RTTI Class Hierarchy Descriptor'
	DD	00H
	DD	02H
	DD	FLAT:??_R2kd_pph_input@@8
rdata$r	ENDS
;	COMDAT ??_R0?AVkd_pph_input@@@8
data$r	SEGMENT
??_R0?AVkd_pph_input@@@8 DD FLAT:??_7type_info@@6B@	; kd_pph_input `RTTI Type Descriptor'
	DD	00H
	DB	'.?AVkd_pph_input@@', 00H
data$r	ENDS
;	COMDAT ??_R4kd_pph_input@@6B@
rdata$r	SEGMENT
??_R4kd_pph_input@@6B@ DD 00H				; kd_pph_input::`RTTI Complete Object Locator'
	DD	00H
	DD	00H
	DD	FLAT:??_R0?AVkd_pph_input@@@8
	DD	FLAT:??_R3kd_pph_input@@8
rdata$r	ENDS
;	COMDAT ??_R1A@?0A@EA@kd_compressed_input@@8
rdata$r	SEGMENT
??_R1A@?0A@EA@kd_compressed_input@@8 DD FLAT:??_R0?AVkd_compressed_input@@@8 ; kd_compressed_input::`RTTI Base Class Descriptor at (0,-1,0,64)'
	DD	01H
	DD	00H
	DD	0ffffffffH
	DD	00H
	DD	040H
	DD	FLAT:??_R3kd_compressed_input@@8
rdata$r	ENDS
;	COMDAT ??_R2kd_compressed_input@@8
rdata$r	SEGMENT
??_R2kd_compressed_input@@8 DD FLAT:??_R1A@?0A@EA@kd_compressed_input@@8 ; kd_compressed_input::`RTTI Base Class Array'
	DD	FLAT:??_R1A@?0A@EA@kd_input@@8
rdata$r	ENDS
;	COMDAT ??_R3kd_compressed_input@@8
rdata$r	SEGMENT
??_R3kd_compressed_input@@8 DD 00H			; kd_compressed_input::`RTTI Class Hierarchy Descriptor'
	DD	00H
	DD	02H
	DD	FLAT:??_R2kd_compressed_input@@8
rdata$r	ENDS
;	COMDAT ??_R0?AVkd_compressed_input@@@8
data$r	SEGMENT
??_R0?AVkd_compressed_input@@@8 DD FLAT:??_7type_info@@6B@ ; kd_compressed_input `RTTI Type Descriptor'
	DD	00H
	DB	'.?AVkd_compressed_input@@', 00H
data$r	ENDS
;	COMDAT ??_R4kd_compressed_input@@6B@
rdata$r	SEGMENT
??_R4kd_compressed_input@@6B@ DD 00H			; kd_compressed_input::`RTTI Complete Object Locator'
	DD	00H
	DD	00H
	DD	FLAT:??_R0?AVkd_compressed_input@@@8
	DD	FLAT:??_R3kd_compressed_input@@8
rdata$r	ENDS
;	COMDAT ??_R1A@?0A@EA@kd_input@@8
rdata$r	SEGMENT
??_R1A@?0A@EA@kd_input@@8 DD FLAT:??_R0?AVkd_input@@@8	; kd_input::`RTTI Base Class Descriptor at (0,-1,0,64)'
	DD	00H
	DD	00H
	DD	0ffffffffH
	DD	00H
	DD	040H
	DD	FLAT:??_R3kd_input@@8
rdata$r	ENDS
;	COMDAT ??_R2kd_input@@8
rdata$r	SEGMENT
??_R2kd_input@@8 DD FLAT:??_R1A@?0A@EA@kd_input@@8	; kd_input::`RTTI Base Class Array'
rdata$r	ENDS
;	COMDAT ??_R3kd_input@@8
rdata$r	SEGMENT
??_R3kd_input@@8 DD 00H					; kd_input::`RTTI Class Hierarchy Descriptor'
	DD	00H
	DD	01H
	DD	FLAT:??_R2kd_input@@8
rdata$r	ENDS
;	COMDAT ??_R0?AVkd_input@@@8
data$r	SEGMENT
??_R0?AVkd_input@@@8 DD FLAT:??_7type_info@@6B@		; kd_input `RTTI Type Descriptor'
	DD	00H
	DB	'.?AVkd_input@@', 00H
data$r	ENDS
;	COMDAT ??_R4kd_input@@6B@
rdata$r	SEGMENT
??_R4kd_input@@6B@ DD 00H				; kd_input::`RTTI Complete Object Locator'
	DD	00H
	DD	00H
	DD	FLAT:??_R0?AVkd_input@@@8
	DD	FLAT:??_R3kd_input@@8
rdata$r	ENDS
;	COMDAT ??_R1A@?0A@EA@kd_compressed_output@@8
rdata$r	SEGMENT
??_R1A@?0A@EA@kd_compressed_output@@8 DD FLAT:??_R0?AVkd_compressed_output@@@8 ; kd_compressed_output::`RTTI Base Class Descriptor at (0,-1,0,64)'
	DD	01H
	DD	00H
	DD	0ffffffffH
	DD	00H
	DD	040H
	DD	FLAT:??_R3kd_compressed_output@@8
rdata$r	ENDS
;	COMDAT ??_R2kd_compressed_output@@8
rdata$r	SEGMENT
??_R2kd_compressed_output@@8 DD FLAT:??_R1A@?0A@EA@kd_compressed_output@@8 ; kd_compressed_output::`RTTI Base Class Array'
	DD	FLAT:??_R1A@?0A@EA@kdu_output@@8
rdata$r	ENDS
;	COMDAT ??_R3kd_compressed_output@@8
rdata$r	SEGMENT
??_R3kd_compressed_output@@8 DD 00H			; kd_compressed_output::`RTTI Class Hierarchy Descriptor'
	DD	00H
	DD	02H
	DD	FLAT:??_R2kd_compressed_output@@8
rdata$r	ENDS
;	COMDAT ??_R0?AVkd_compressed_output@@@8
data$r	SEGMENT
??_R0?AVkd_compressed_output@@@8 DD FLAT:??_7type_info@@6B@ ; kd_compressed_output `RTTI Type Descriptor'
	DD	00H
	DB	'.?AVkd_compressed_output@@', 00H
data$r	ENDS
;	COMDAT ??_R4kd_compressed_output@@6B@
rdata$r	SEGMENT
??_R4kd_compressed_output@@6B@ DD 00H			; kd_compressed_output::`RTTI Complete Object Locator'
	DD	00H
	DD	00H
	DD	FLAT:??_R0?AVkd_compressed_output@@@8
	DD	FLAT:??_R3kd_compressed_output@@8
rdata$r	ENDS
;	COMDAT ??_R1A@?0A@EA@kdu_thread_env@@8
rdata$r	SEGMENT
??_R1A@?0A@EA@kdu_thread_env@@8 DD FLAT:??_R0?AVkdu_thread_env@@@8 ; kdu_thread_env::`RTTI Base Class Descriptor at (0,-1,0,64)'
	DD	01H
	DD	00H
	DD	0ffffffffH
	DD	00H
	DD	040H
	DD	FLAT:??_R3kdu_thread_env@@8
rdata$r	ENDS
;	COMDAT ??_R2kdu_thread_env@@8
rdata$r	SEGMENT
??_R2kdu_thread_env@@8 DD FLAT:??_R1A@?0A@EA@kdu_thread_env@@8 ; kdu_thread_env::`RTTI Base Class Array'
	DD	FLAT:??_R1A@?0A@EA@kdu_thread_entity@@8
rdata$r	ENDS
;	COMDAT ??_R3kdu_thread_env@@8
rdata$r	SEGMENT
??_R3kdu_thread_env@@8 DD 00H				; kdu_thread_env::`RTTI Class Hierarchy Descriptor'
	DD	00H
	DD	02H
	DD	FLAT:??_R2kdu_thread_env@@8
rdata$r	ENDS
;	COMDAT ??_R0?AVkdu_thread_env@@@8
data$r	SEGMENT
??_R0?AVkdu_thread_env@@@8 DD FLAT:??_7type_info@@6B@	; kdu_thread_env `RTTI Type Descriptor'
	DD	00H
	DB	'.?AVkdu_thread_env@@', 00H
data$r	ENDS
;	COMDAT ??_R4kdu_thread_env@@6B@
rdata$r	SEGMENT
??_R4kdu_thread_env@@6B@ DD 00H				; kdu_thread_env::`RTTI Complete Object Locator'
	DD	00H
	DD	00H
	DD	FLAT:??_R0?AVkdu_thread_env@@@8
	DD	FLAT:??_R3kdu_thread_env@@8
rdata$r	ENDS
;	COMDAT ??_R1A@?0A@EA@kdu_thread_entity@@8
rdata$r	SEGMENT
??_R1A@?0A@EA@kdu_thread_entity@@8 DD FLAT:??_R0?AVkdu_thread_entity@@@8 ; kdu_thread_entity::`RTTI Base Class Descriptor at (0,-1,0,64)'
	DD	00H
	DD	00H
	DD	0ffffffffH
	DD	00H
	DD	040H
	DD	FLAT:??_R3kdu_thread_entity@@8
rdata$r	ENDS
;	COMDAT ??_R2kdu_thread_entity@@8
rdata$r	SEGMENT
??_R2kdu_thread_entity@@8 DD FLAT:??_R1A@?0A@EA@kdu_thread_entity@@8 ; kdu_thread_entity::`RTTI Base Class Array'
rdata$r	ENDS
;	COMDAT ??_R3kdu_thread_entity@@8
rdata$r	SEGMENT
??_R3kdu_thread_entity@@8 DD 00H			; kdu_thread_entity::`RTTI Class Hierarchy Descriptor'
	DD	00H
	DD	01H
	DD	FLAT:??_R2kdu_thread_entity@@8
rdata$r	ENDS
;	COMDAT ??_R0?AVkdu_thread_entity@@@8
data$r	SEGMENT
??_R0?AVkdu_thread_entity@@@8 DD FLAT:??_7type_info@@6B@ ; kdu_thread_entity `RTTI Type Descriptor'
	DD	00H
	DB	'.?AVkdu_thread_entity@@', 00H
data$r	ENDS
;	COMDAT ??_R4kdu_thread_entity@@6B@
rdata$r	SEGMENT
??_R4kdu_thread_entity@@6B@ DD 00H			; kdu_thread_entity::`RTTI Complete Object Locator'
	DD	00H
	DD	00H
	DD	FLAT:??_R0?AVkdu_thread_entity@@@8
	DD	FLAT:??_R3kdu_thread_entity@@8
rdata$r	ENDS
;	COMDAT ??_R1A@?0A@EA@kdu_output@@8
rdata$r	SEGMENT
??_R1A@?0A@EA@kdu_output@@8 DD FLAT:??_R0?AVkdu_output@@@8 ; kdu_output::`RTTI Base Class Descriptor at (0,-1,0,64)'
	DD	00H
	DD	00H
	DD	0ffffffffH
	DD	00H
	DD	040H
	DD	FLAT:??_R3kdu_output@@8
rdata$r	ENDS
;	COMDAT ??_R2kdu_output@@8
rdata$r	SEGMENT
??_R2kdu_output@@8 DD FLAT:??_R1A@?0A@EA@kdu_output@@8	; kdu_output::`RTTI Base Class Array'
rdata$r	ENDS
;	COMDAT ??_R3kdu_output@@8
rdata$r	SEGMENT
??_R3kdu_output@@8 DD 00H				; kdu_output::`RTTI Class Hierarchy Descriptor'
	DD	00H
	DD	01H
	DD	FLAT:??_R2kdu_output@@8
rdata$r	ENDS
;	COMDAT ??_R0?AVkdu_output@@@8
data$r	SEGMENT
??_R0?AVkdu_output@@@8 DD FLAT:??_7type_info@@6B@	; kdu_output `RTTI Type Descriptor'
	DD	00H
	DB	'.?AVkdu_output@@', 00H
data$r	ENDS
;	COMDAT ??_R4kdu_output@@6B@
rdata$r	SEGMENT
??_R4kdu_output@@6B@ DD 00H				; kdu_output::`RTTI Complete Object Locator'
	DD	00H
	DD	00H
	DD	FLAT:??_R0?AVkdu_output@@@8
	DD	FLAT:??_R3kdu_output@@8
rdata$r	ENDS
;	COMDAT ??_C@_0IB@LAIBJLIH@You?5have?5set?5the?5byte?5limit?5too?5@
CONST	SEGMENT
??_C@_0IB@LAIBJLIH@You?5have?5set?5the?5byte?5limit?5too?5@ DB 'You have '
	DB	'set the byte limit too low.  All compressed data would have t'
	DB	'o be discarded in the call to `kdu_codestream::trans_out''!', 00H ; `string'
CONST	ENDS
;	COMDAT ??_C@_0BAM@PBALKCJD@You?5cannot?5currently?5use?5the?5?$GACr@
CONST	SEGMENT
??_C@_0BAM@PBALKCJD@You?5cannot?5currently?5use?5the?5?$GACr@ DB 'You can'
	DB	'not currently use the `Creslength'' parameter attribute in co'
	DB	'njunction with `kdu_codestream::trans_out'' (i.e., you cannot'
	DB	' use this parameter to control the compressed lengths of indi'
	DB	'vidual resolutions during transcoding).  Ignoring the `Cresle'
	DB	'ngth'' constraints.', 00H			; `string'
CONST	ENDS
;	COMDAT ??_C@_0KM@DJNDCKID@Unable?5to?5find?5modified?5distorti@
CONST	SEGMENT
??_C@_0KM@DJNDCKID@Unable?5to?5find?5modified?5distorti@ DB 'Unable to fi'
	DB	'nd modified distortion-length slope thresholds which can sati'
	DB	'sfy the compressed length constraints imposed by the supplied'
	DB	' `Creslength'' parameter attribute(s).', 00H ; `string'
CONST	ENDS
;	COMDAT ??_C@_0KC@BHKKEAHA@You?5cannot?5currently?5use?5the?5?$GACr@
CONST	SEGMENT
??_C@_0KC@BHKKEAHA@You?5cannot?5currently?5use?5the?5?$GACr@ DB 'You cann'
	DB	'ot currently use the `Creslength'' parameter attribute in con'
	DB	'junction with incremental flushing of the codestream.  Ignori'
	DB	'ng the `Creslength'' constraints.', 00H	; `string'
CONST	ENDS
;	COMDAT ??_C@_0JF@GPFDNPBI@When?5generating?5code?9stream?5outp@
CONST	SEGMENT
??_C@_0JF@GPFDNPBI@When?5generating?5code?9stream?5outp@ DB 'When generat'
	DB	'ing code-stream output incrementally, each call to `kdu_codes'
	DB	'tream::flush'' must provide the same number of quality layer '
	DB	'specifications.', 00H			; `string'
CONST	ENDS
;	COMDAT ??_C@_0EI@FINBMEOC@Attempting?5to?5access?5a?5tile?5whic@
CONST	SEGMENT
??_C@_0EI@FINBMEOC@Attempting?5to?5access?5a?5tile?5whic@ DB 'Attempting '
	DB	'to access a tile which has already been discarded or closed!', 00H ; `string'
CONST	ENDS
;	COMDAT ??_C@_07BGFFFHMP@Clevels?$AA@
CONST	SEGMENT
??_C@_07BGFFFHMP@Clevels?$AA@ DB 'Clevels', 00H		; `string'
CONST	ENDS
;	COMDAT ??_C@_0JC@LBCJLKIB@You?5may?5not?5change?5the?5apparent?5@
CONST	SEGMENT
??_C@_0JC@LBCJLKIB@You?5may?5not?5change?5the?5apparent?5@ DB 'You may no'
	DB	't change the apparent geometry of the code-stream after the f'
	DB	'irst tile access, unless the codestream object is set up to b'
	DB	'e persistent.', 00H				; `string'
CONST	ENDS
;	COMDAT ??_C@_0FL@KCCGCDMA@You?5may?5change?5the?5apparent?5geom@
CONST	SEGMENT
??_C@_0FL@KCCGCDMA@You?5may?5change?5the?5apparent?5geom@ DB 'You may cha'
	DB	'nge the apparent geometry of the code-stream only after closi'
	DB	'ng all open tiles.', 00H			; `string'
CONST	ENDS
;	COMDAT ??_C@_0HK@LCIPMOP@The?5range?5of?5apparent?5output?5ima@
CONST	SEGMENT
??_C@_0HK@LCIPMOP@The?5range?5of?5apparent?5output?5ima@ DB 'The range of'
	DB	' apparent output image components supplied to `kdu_codestream'
	DB	'::apply_input_restrictions'' is empty or illegal!', 00H ; `string'
CONST	ENDS
;	COMDAT ??_C@_0HD@FCIAAPLI@The?5range?5of?5apparent?5image?5comp@
CONST	SEGMENT
??_C@_0HD@FCIAAPLI@The?5range?5of?5apparent?5image?5comp@ DB 'The range o'
	DB	'f apparent image components supplied to `kdu_codestream::appl'
	DB	'y_input_restrictions'' is empty or illegal!', 00H ; `string'
CONST	ENDS
;	COMDAT ??_C@_0KF@HPOIMBFL@You?5may?5not?5apply?5restrictions?5t@
CONST	SEGMENT
??_C@_0KF@HPOIMBFL@You?5may?5not?5apply?5restrictions?5t@ DB 'You may not'
	DB	' apply restrictions to the resolution or number of image comp'
	DB	'onents after the first tile access, unless the codestream obj'
	DB	'ect is set up to be persistent.', 00H	; `string'
CONST	ENDS
;	COMDAT ??_C@_0GO@DAONBPDM@You?5may?5apply?5restrictions?5to?5th@
CONST	SEGMENT
??_C@_0GO@DAONBPDM@You?5may?5apply?5restrictions?5to?5th@ DB 'You may app'
	DB	'ly restrictions to the resolution or number of image componen'
	DB	'ts only after closing all open tiles.', 00H	; `string'
CONST	ENDS
;	COMDAT ??_C@_0IL@NFJOEHBJ@The?5?$GAkdu_codestream?3?3apply_input@
CONST	SEGMENT
??_C@_0IL@NFJOEHBJ@The?5?$GAkdu_codestream?3?3apply_input@ DB 'The `kdu_c'
	DB	'odestream::apply_input_restrictions'' function may not be inv'
	DB	'oked on codestream objects opened for output (i.e. for compre'
	DB	'ssion).', 00H				; `string'
CONST	ENDS
;	COMDAT ??_C@_0EC@IHLMBNEM@?$CCkdu_codestream?3?3set_max_bytes?$CC?5@
CONST	SEGMENT
??_C@_0EC@IHLMBNEM@?$CCkdu_codestream?3?3set_max_bytes?$CC?5@ DB '"kdu_co'
	DB	'destream::set_max_bytes" may not be called multiple times.', 00H ; `string'
CONST	ENDS
;	COMDAT ??_C@_0DL@OBAGKPCA@?5bytes?5is?5insufficient?5to?5accomo@
CONST	SEGMENT
??_C@_0DL@OBAGKPCA@?5bytes?5is?5insufficient?5to?5accomo@ DB ' bytes is i'
	DB	'nsufficient to accomodate even the main header!', 00H ; `string'
CONST	ENDS
;	COMDAT ??_C@_0EM@OGOFBDKF@Attempting?5to?5impose?5too?5small?5a@
CONST	SEGMENT
??_C@_0EM@OGOFBDKF@Attempting?5to?5impose?5too?5small?5a@ DB 'Attempting '
	DB	'to impose too small a limit on the number of code-stream byte'
	DB	's. ', 00H					; `string'
CONST	ENDS
;	COMDAT ??_C@_0GD@FICOODEH@You?5may?5only?5set?5the?5codestream?5@
CONST	SEGMENT
??_C@_0GD@FICOODEH@You?5may?5only?5set?5the?5codestream?5@ DB 'You may on'
	DB	'ly set the codestream object into its "persistent" mode prior'
	DB	' to opening the first tile.', 00H		; `string'
CONST	ENDS
;	COMDAT ??_C@_0FA@JIHDPBJH@You?5may?5not?5call?5?$GAkdu_codestream@
CONST	SEGMENT
??_C@_0FA@JIHDPBJH@You?5may?5not?5call?5?$GAkdu_codestream@ DB 'You may n'
	DB	'ot call `kdu_codestream::enable_restart'' after opening the f'
	DB	'irst tile.', 00H				; `string'
CONST	ENDS
;	COMDAT ??_C@_0LL@KPFADBNA@You?5cannot?5use?5the?5?$GAkdu_codestre@
CONST	SEGMENT
??_C@_0LL@KPFADBNA@You?5cannot?5use?5the?5?$GAkdu_codestre@ DB 'You canno'
	DB	't use the `kdu_codestream::share_buffering'' function if the '
	DB	'codestream object which will be sharing another codestream''s'
	DB	' buffering has already allocated some internal resources.', 00H ; `string'
CONST	ENDS
;	COMDAT ??_C@_0MB@GNICMEAH@You?5may?5not?5use?5the?5input?5form?5o@
CONST	SEGMENT
??_C@_0MB@GNICMEAH@You?5may?5not?5use?5the?5input?5form?5o@ DB 'You may n'
	DB	'ot use the input form of `kdu_codestream::restart'' if the co'
	DB	'de-stream management machinery was originally created using a'
	DB	'nything other than the input form of `kdu_codestream::create'''
	DB	'.', 00H					; `string'
CONST	ENDS
;	COMDAT ??_C@_0MD@MOKJCILO@You?5may?5not?5use?5the?5output?5form?5@
CONST	SEGMENT
??_C@_0MD@MOKJCILO@You?5may?5not?5use?5the?5output?5form?5@ DB 'You may n'
	DB	'ot use the output form of `kdu_codestream::restart'' if the c'
	DB	'ode-stream management machinery was originally created using '
	DB	'anything other than the output form of `kdu_codestream::creat'
	DB	'e''.', 00H					; `string'
CONST	ENDS
;	COMDAT ??_C@_0KI@GFLIIJEF@You?5may?5not?5use?5the?5?$GAkdu_codestr@
CONST	SEGMENT
??_C@_0KI@GFLIIJEF@You?5may?5not?5use?5the?5?$GAkdu_codestr@ DB 'You may '
	DB	'not use the `kdu_codestream::restart'' function unless `kdu_c'
	DB	'odestream::enable_restart'' was called after the code-stream '
	DB	'management machinery was first created.', 00H ; `string'
CONST	ENDS
;	COMDAT ??_C@_0FH@CKLGEIAA@Code?9stream?5must?5contain?5a?5valid@
CONST	SEGMENT
??_C@_0FH@CKLGEIAA@Code?9stream?5must?5contain?5a?5valid@ DB 'Code-stream'
	DB	' must contain a valid SIZ marker segment, immediately after t'
	DB	'he SOC marker!', 00H			; `string'
CONST	ENDS
;	COMDAT ??_C@_0CL@KMFCLNLD@Code?9stream?5must?5start?5with?5an?5S@
CONST	SEGMENT
??_C@_0CL@KMFCLNLD@Code?9stream?5must?5start?5with?5an?5S@ DB 'Code-strea'
	DB	'm must start with an SOC marker!', 00H	; `string'
CONST	ENDS
;	COMDAT ??_C@_0BHK@LFLLGIPF@Unable?5to?5generate?5the?5TLM?5marke@
CONST	SEGMENT
??_C@_0BHK@LFLLGIPF@Unable?5to?5generate?5the?5TLM?5marke@ DB 'Unable to '
	DB	'generate the TLM marker segments requested via the `ORGgen_tl'
	DB	'm'' parameter attribute.  The reason for this is that the log'
	DB	'ical compressed data target supplied by the application does '
	DB	'not appear to support rewriting (i.e., seeking).  We need thi'
	DB	's to reserve space for the TLM marker segments up front and l'
	DB	'ater overwrite the reserved space with valid tile-part length'
	DB	's.', 00H					; `string'
CONST	ENDS
;	COMDAT ??_C@_0BGA@CEHDEKMG@Unable?5to?5generate?5the?5TLM?5marke@
CONST	SEGMENT
??_C@_0BGA@CEHDEKMG@Unable?5to?5generate?5the?5TLM?5marke@ DB 'Unable to '
	DB	'generate the TLM marker segments requested via the `ORGgen_tl'
	DB	'm'' parameter attribute.  The reason for this is that the tot'
	DB	'al number of tile-parts whose lengths would need to be repres'
	DB	'ented exceeds the amount of data which can legally be stored '
	DB	'in the maximum allowable 256 TLM marker segments, allowing fo'
	DB	'r 6 bytes per tile-part length value.', 00H	; `string'
CONST	ENDS
;	COMDAT ??_C@_0L@CIAEHHDE@ORGgen_tlm?$AA@
CONST	SEGMENT
??_C@_0L@CIAEHHDE@ORGgen_tlm?$AA@ DB 'ORGgen_tlm', 00H	; `string'
CONST	ENDS
;	COMDAT ??_C@_03MNMMELJE@ORG?$AA@
CONST	SEGMENT
??_C@_03MNMMELJE@ORG?$AA@ DB 'ORG', 00H			; `string'
CONST	ENDS
;	COMDAT ??_C@_0BBE@DMFGKAON@Using?5the?5?$GAkdu_codestream?3?3gener@
CONST	SEGMENT
??_C@_0BBE@DMFGKAON@Using?5the?5?$GAkdu_codestream?3?3gener@ DB 'Using th'
	DB	'e `kdu_codestream::generate_codestream'' function in an illeg'
	DB	'al manner.  The `max_layers'' argument may not exceed the max'
	DB	'imum number of layers which are being sized.  The problem may'
	DB	' have arisen from an incorrect use of the incremental code-st'
	DB	'ream flushing capability.', 00H		; `string'
CONST	ENDS
;	COMDAT ??_C@_0BBD@JFFMFNED@Attempting?5to?5run?5rate?9control?5s@
CONST	SEGMENT
??_C@_0BBD@JFFMFNED@Attempting?5to?5run?5rate?9control?5s@ DB 'Attempting'
	DB	' to run rate-control simulation on a precinct for which one o'
	DB	'r more packets have already been written to the code-stream. '
	DB	' Problem is most likely caused by trying to use the increment'
	DB	'al code-stream flushing feature with one of the progression o'
	DB	'rders, LRCP or RLCP.', 00H			; `string'
CONST	ENDS
;	COMDAT ??_C@_0M@DAABJAJJ@Kakadu?9v6?41?$AA@
CONST	SEGMENT
??_C@_0M@DAABJAJJ@Kakadu?9v6?41?$AA@ DB 'Kakadu-v6.1', 00H ; `string'
CONST	ENDS
;	COMDAT ??_C@_0MM@CDEHNDAJ@Dynamic?5indexing?5of?5tile?9parts?0?5@
CONST	SEGMENT
??_C@_0MM@CDEHNDAJ@Dynamic?5indexing?5of?5tile?9parts?0?5@ DB 'Dynamic in'
	DB	'dexing of tile-parts, whether by TLM (tile-part length) marke'
	DB	'r segments or otherwise, cannot be used by the current implem'
	DB	'entation when PPM (packed packet header) marker segments are '
	DB	'also used.', 00H				; `string'
CONST	ENDS
;	COMDAT ??_C@_0KL@JPMPCIAA@Profile?5violation?5detected?5?$CIcode@
CONST	SEGMENT
??_C@_0KL@JPMPCIAA@Profile?5violation?5detected?5?$CIcode@ DB 'Profile vi'
	DB	'olation detected (code-stream is technically illegal).  PPM m'
	DB	'arker segments may not appear within a Profile-0 code-stream.'
	DB	'  You should set "Sprofile" to 1 or 2.', 00H ; `string'
CONST	ENDS
;	COMDAT ??_C@_0GH@CBFAGHCH@You?5cannot?5use?5PPM?5or?5PPT?5marker@
CONST	SEGMENT
??_C@_0GH@CBFAGHCH@You?5cannot?5use?5PPM?5or?5PPT?5marker@ DB 'You cannot'
	DB	' use PPM or PPT marker segments (packed packet headers) with '
	DB	'cached compressed data sources.', 00H	; `string'
CONST	ENDS
;	COMDAT ??_C@_0CJ@KOLIFCGA@Main?5code?9stream?5header?5appears?5@
CONST	SEGMENT
??_C@_0CJ@KOLIFCGA@Main?5code?9stream?5header?5appears?5@ DB 'Main code-s'
	DB	'tream header appears corrupt!', 00H		; `string'
CONST	ENDS
;	COMDAT ??_C@_0O@GOIICFII@?$CF6?41f?0?5?$CF8?41e?6?$AA@
CONST	SEGMENT
??_C@_0O@GOIICFII@?$CF6?41f?0?5?$CF8?41e?6?$AA@ DB '%6.1f, %8.1e', 0aH, 00H ; `string'
CONST	ENDS
;	COMDAT ??_C@_0EF@DAJKGEFP@Kdu?9Layer?9Info?3?5log_2?$HLDelta?9D?$CIMS@
CONST	SEGMENT
??_C@_0EF@DAJKGEFP@Kdu?9Layer?9Info?3?5log_2?$HLDelta?9D?$CIMS@ DB 'Kdu-L'
	DB	'ayer-Info: log_2{Delta-D(MSE)/[2^16*Delta-L(bytes)]}, L(bytes'
	DB	')', 0aH, 00H				; `string'
CONST	ENDS
;	COMDAT ??_C@_0BB@MMIMJKHF@Kdu?9Layer?9Info?3?5?$AA@
CONST	SEGMENT
??_C@_0BB@MMIMJKHF@Kdu?9Layer?9Info?3?5?$AA@ DB 'Kdu-Layer-Info: ', 00H ; `string'
CONST	ENDS
;	COMDAT ??_C@_0FC@DHCIJBNO@You?5must?5close?5all?5open?5tile?5int@
CONST	SEGMENT
??_C@_0FC@DHCIJBNO@You?5must?5close?5all?5open?5tile?5int@ DB 'You must c'
	DB	'lose all open tile interfaces before calling `kdu_codestream:'
	DB	':restart''.', 00H				; `string'
CONST	ENDS
;	COMDAT ??_C@_0KD@BEOENLDH@The?5fragment?5region?5supplied?5to?5@
CONST	SEGMENT
??_C@_0KD@BEOENLDH@The?5fragment?5region?5supplied?5to?5@ DB 'The fragmen'
	DB	't region supplied to `kdu_codestream::create'' represents too'
	DB	' many tiles, allowing for the number of tiles indicated for p'
	DB	'reviously generated fragments.', 00H	; `string'
CONST	ENDS
;	COMDAT ??_C@_0ED@OJAJOCED@The?5fragment?5region?5supplied?5to?5@
CONST	SEGMENT
??_C@_0ED@OJAJOCED@The?5fragment?5region?5supplied?5to?5@ DB 'The fragmen'
	DB	't region supplied to `kdu_codestream::create'' is empty.', 00H ; `string'
CONST	ENDS
;	COMDAT ??_C@_0MJ@FDIMAMPF@The?5fragment?5region?5supplied?5to?5@
CONST	SEGMENT
??_C@_0MJ@FDIMAMPF@The?5fragment?5region?5supplied?5to?5@ DB 'The fragmen'
	DB	't region supplied to `kdu_codestream::create'' does not corre'
	DB	'spond to a whole number of tiles.  Check your dimensions agai'
	DB	'n, remembering to take account of any non-zero tile or image '
	DB	'origin.', 00H				; `string'
CONST	ENDS
;	COMDAT ??_C@_07MIOINIMK@Cdecomp?$AA@
CONST	SEGMENT
??_C@_07MIOINIMK@Cdecomp?$AA@ DB 'Cdecomp', 00H		; `string'
CONST	ENDS
;	COMDAT ??_C@_09NPOAGBMD@CRGoffset?$AA@
CONST	SEGMENT
??_C@_09NPOAGBMD@CRGoffset?$AA@ DB 'CRGoffset', 00H	; `string'
CONST	ENDS
;	COMDAT ??_C@_07GFFIOPIL@Msigned?$AA@
CONST	SEGMENT
??_C@_07GFFIOPIL@Msigned?$AA@ DB 'Msigned', 00H		; `string'
CONST	ENDS
;	COMDAT ??_C@_0L@OMLPDKKH@Mprecision?$AA@
CONST	SEGMENT
??_C@_0L@OMLPDKKH@Mprecision?$AA@ DB 'Mprecision', 00H	; `string'
CONST	ENDS
;	COMDAT ??_C@_0IA@FCOMNLBF@Number?5of?5multi?9component?5transf@
CONST	SEGMENT
??_C@_0IA@FCOMNLBF@Number?5of?5multi?9component?5transf@ DB 'Number of mu'
	DB	'lti-component transform output components defined by CBD mark'
	DB	'er segment exceeds the maximum allowed value of 16384.', 00H ; `string'
CONST	ENDS
;	COMDAT ??_C@_0JB@BCDJMPPA@The?5?$GAMcomponents?8?5parameter?5attr@
CONST	SEGMENT
??_C@_0JB@BCDJMPPA@The?5?$GAMcomponents?8?5parameter?5attr@ DB 'The `Mcom'
	DB	'ponents'' parameter attribute must be assigned a non-zero val'
	DB	'ue if and only if the `MCT'' flag is present in the `Sextensi'
	DB	'ons'' attribute.', 00H			; `string'
CONST	ENDS
;	COMDAT ??_C@_0M@FAIBBHLL@Mcomponents?$AA@
CONST	SEGMENT
??_C@_0M@FAIBBHLL@Mcomponents?$AA@ DB 'Mcomponents', 00H ; `string'
CONST	ENDS
;	COMDAT ??_C@_0M@NJJFAENN@Sextensions?$AA@
CONST	SEGMENT
??_C@_0M@NJJFAENN@Sextensions?$AA@ DB 'Sextensions', 00H ; `string'
CONST	ENDS
;	COMDAT ??_C@_0BBL@KLDBMFIF@Profile?5violation?5detected?5?$CIcode@
CONST	SEGMENT
??_C@_0BBL@KLDBMFIF@Profile?5violation?5detected?5?$CIcode@ DB 'Profile v'
	DB	'iolation detected (code-stream is technically illegal).  If a'
	DB	' Profile-1 code-stream is tiled (has multiple tiles), the wid'
	DB	'th and height of its tiles, projected onto any given image co'
	DB	'mponent, may not exceed 1024.  You might like to set "Sprofil'
	DB	'e" to 2 or avoid using tiles.', 00H		; `string'
CONST	ENDS
;	COMDAT ??_C@_0BBI@OCAIKCLE@Profile?5violation?5detected?5?$CIcode@
CONST	SEGMENT
??_C@_0BBI@OCAIKCLE@Profile?5violation?5detected?5?$CIcode@ DB 'Profile v'
	DB	'iolation detected (code-stream is technically illegal).  Prof'
	DB	'ile-1 code-streams must either be untiled or else the horizon'
	DB	'tal and vertical tile dimensions must be identical (square ti'
	DB	'les on the hi-res canvas).  You might like to set "Sprofile" '
	DB	'to 2 or avoid using tiles.', 00H		; `string'
CONST	ENDS
;	COMDAT ??_C@_0MI@KDNKFEHF@Profile?5violation?5detected?5?$CIcode@
CONST	SEGMENT
??_C@_0MI@KDNKFEHF@Profile?5violation?5detected?5?$CIcode@ DB 'Profile vi'
	DB	'olation detected (code-stream is technically illegal).  Compo'
	DB	'nent sub-sampling factors for Profile-0 code-streams are rest'
	DB	'ricted to the values 1, 2 and 4.  Try setting "Sprofile" to 1'
	DB	' or 2.', 00H				; `string'
CONST	ENDS
;	COMDAT ??_C@_0LM@OKEOLEGN@Profile?5violation?5detected?5?$CIcode@
CONST	SEGMENT
??_C@_0LM@OKEOLEGN@Profile?5violation?5detected?5?$CIcode@ DB 'Profile vi'
	DB	'olation detected (code-stream is technically illegal).  Profi'
	DB	'le-0 code-streams must have image and tiling origins (anchor '
	DB	'points) set to zero.  Try setting "Sprofile" to 1 or 2.', 00H ; `string'
CONST	ENDS
;	COMDAT ??_C@_0NN@GLDINDPL@Profile?5violation?5detected?5?$CIcode@
CONST	SEGMENT
??_C@_0NN@GLDINDPL@Profile?5violation?5detected?5?$CIcode@ DB 'Profile vi'
	DB	'olation detected (code-stream is technically illegal).  Profi'
	DB	'le-0 code-streams must either be untiled or else the tile dim'
	DB	'ensions must be exactly 128x128.  Try setting "Sprofile" to 1'
	DB	' or 2 or avoid using tiles.', 00H		; `string'
CONST	ENDS
;	COMDAT ??_C@_0HD@LMPODLJE@Maximum?5number?5of?5allowable?5tile@
CONST	SEGMENT
??_C@_0HD@LMPODLJE@Maximum?5number?5of?5allowable?5tile@ DB 'Maximum numb'
	DB	'er of allowable tiles is 65535 for any JPEG2000 code-stream. '
	DB	' You have managed to exceed this number!!', 00H ; `string'
CONST	ENDS
;	COMDAT ??_C@_0EE@ECOMFEJN@No?5information?5available?5concern@
CONST	SEGMENT
??_C@_0EE@ECOMFEJN@No?5information?5available?5concern@ DB 'No informatio'
	DB	'n available concerning component sub-sampling factors.', 00H ; `string'
CONST	ENDS
;	COMDAT ??_C@_09IGDOMJM@Ssampling?$AA@
CONST	SEGMENT
??_C@_09IGDOMJM@Ssampling?$AA@ DB 'Ssampling', 00H	; `string'
CONST	ENDS
;	COMDAT ??_C@_0EO@LBIEHJAI@No?5information?5available?5regardi@
CONST	SEGMENT
??_C@_0EO@LBIEHJAI@No?5information?5available?5regardi@ DB 'No informatio'
	DB	'n available regarding whether components are signed or unsign'
	DB	'ed.', 00H					; `string'
CONST	ENDS
;	COMDAT ??_C@_07MGJMMJC@Ssigned?$AA@
CONST	SEGMENT
??_C@_07MGJMMJC@Ssigned?$AA@ DB 'Ssigned', 00H		; `string'
CONST	ENDS
;	COMDAT ??_C@_0FK@PBAGHHBG@No?5information?5available?5concern@
CONST	SEGMENT
??_C@_0FK@PBAGHHBG@No?5information?5available?5concern@ DB 'No informatio'
	DB	'n available concerning component sample bit-depths (i.e., sam'
	DB	'ple precision).', 00H			; `string'
CONST	ENDS
;	COMDAT ??_C@_0L@BADPNFGK@Sprecision?$AA@
CONST	SEGMENT
??_C@_0L@BADPNFGK@Sprecision?$AA@ DB 'Sprecision', 00H	; `string'
CONST	ENDS
;	COMDAT ??_C@_0II@BGDHKLNP@Trying?5to?5create?5a?5?$GAkdu_codestre@
CONST	SEGMENT
??_C@_0II@BGDHKLNP@Trying?5to?5create?5a?5?$GAkdu_codestre@ DB 'Trying to'
	DB	' create a `kdu_codestream'' object with more than 16384 image'
	DB	' components -- this is the maximum number allowed by the stan'
	DB	'dard.', 00H					; `string'
CONST	ENDS
;	COMDAT ??_C@_0IE@HJOAKJGP@Illegal?5canvas?5coordinates?3?5the?5@
CONST	SEGMENT
??_C@_0IE@HJOAKJGP@Illegal?5canvas?5coordinates?3?5the?5@ DB 'Illegal can'
	DB	'vas coordinates: the first tile is required to have a non-emp'
	DB	'ty intersection with the image on the high resolution grid.', 00H ; `string'
CONST	ENDS
;	COMDAT ??_C@_0N@KMIIMNEN@Stile_origin?$AA@
CONST	SEGMENT
??_C@_0N@KMIIMNEN@Stile_origin?$AA@ DB 'Stile_origin', 00H ; `string'
CONST	ENDS
;	COMDAT ??_C@_06EPMBOCAF@Stiles?$AA@
CONST	SEGMENT
??_C@_06EPMBOCAF@Stiles?$AA@ DB 'Stiles', 00H		; `string'
CONST	ENDS
;	COMDAT ??_C@_07PEMLCIHF@Sorigin?$AA@
CONST	SEGMENT
??_C@_07PEMLCIHF@Sorigin?$AA@ DB 'Sorigin', 00H		; `string'
CONST	ENDS
;	COMDAT ??_C@_05HNJHHEPH@Ssize?$AA@
CONST	SEGMENT
??_C@_05HNJHHEPH@Ssize?$AA@ DB 'Ssize', 00H		; `string'
CONST	ENDS
;	COMDAT ??_C@_0M@LFKICJFJ@Scomponents?$AA@
CONST	SEGMENT
??_C@_0M@LFKICJFJ@Scomponents?$AA@ DB 'Scomponents', 00H ; `string'
CONST	ENDS
;	COMDAT ??_C@_08HFDHOMDN@Sprofile?$AA@
CONST	SEGMENT
??_C@_08HFDHOMDN@Sprofile?$AA@ DB 'Sprofile', 00H	; `string'
CONST	ENDS
;	COMDAT ??_C@_0P@CMBCAAOP@Mtriang_coeffs?$AA@
CONST	SEGMENT
??_C@_0P@CMBCAAOP@Mtriang_coeffs?$AA@ DB 'Mtriang_coeffs', 00H ; `string'
CONST	ENDS
;	COMDAT ??_C@_0P@NJDNNBNG@Mmatrix_coeffs?$AA@
CONST	SEGMENT
??_C@_0P@NJDNNBNG@Mmatrix_coeffs?$AA@ DB 'Mmatrix_coeffs', 00H ; `string'
CONST	ENDS
;	COMDAT ??_C@_0BHN@CGGDHAAL@Although?5not?5strictly?5illegal?0?5t@
CONST	SEGMENT
??_C@_0BHN@CGGDHAAL@Although?5not?5strictly?5illegal?0?5t@ DB 'Although n'
	DB	'ot strictly illegal, the present Part-2 codestream contains i'
	DB	'nsufficient information to determine the dimensions of all im'
	DB	'age components output by the multi-component transform, based'
	DB	' on main header marker segments.  The fact that this is not i'
	DB	'llegal is almost certainly an oversight in the development of'
	DB	' the Part-2 syntax, but Kakadu cannot work with such codestre'
	DB	'ams.', 00H					; `string'
CONST	ENDS
;	COMDAT ??_C@_0KL@GPKLLFMI@The?5last?5stage?5of?5the?5multi?9comp@
CONST	SEGMENT
??_C@_0KL@GPKLLFMI@The?5last?5stage?5of?5the?5multi?9comp@ DB 'The last s'
	DB	'tage of the multi-component transform may not produce more ou'
	DB	'tput components than the number specified in the CBD marker s'
	DB	'egment (i.e. the `Mcomponents'' value).', 00H ; `string'
CONST	ENDS
;	COMDAT ??_C@_0BBI@DKKKDOEN@Multi?9component?5transform?5does?5n@
CONST	SEGMENT
??_C@_0BBI@DKKKDOEN@Multi?9component?5transform?5does?5n@ DB 'Multi-compo'
	DB	'nent transform does not satisfy the constraints imposed by Pa'
	DB	'rt 2 of the JPEG2000 standard.  The first transform stage mus'
	DB	't touch every codestream image component (no more and no less'
	DB	'), while subsequent stages must touch every component produce'
	DB	'd by the previous stage.', 00H		; `string'
CONST	ENDS
;	COMDAT ??_C@_0IM@HJCMNLOE@Multi?9component?5transform?5stage?5@
CONST	SEGMENT
??_C@_0IM@HJCMNLOE@Multi?9component?5transform?5stage?5@ DB 'Multi-compon'
	DB	'ent transform stage contains multiple transform blocks which '
	DB	'provide different definitions for the same stage output compo'
	DB	'nent.', 00H					; `string'
CONST	ENDS
;	COMDAT ??_C@_0JG@ECJLCCBG@Multi?9component?5transform?5stage?5@
CONST	SEGMENT
??_C@_0JG@ECJLCCBG@Multi?9component?5transform?5stage?5@ DB 'Multi-compon'
	DB	'ent transform stage appears to have a ridiculous number of co'
	DB	'mponent inputs or outputs -- greater than 65535!  Treating th'
	DB	'is as an error.', 00H			; `string'
CONST	ENDS
;	COMDAT ??_C@_0BIH@NMGBAOPH@?0?5corresponding?5to?5the?5total?5num@
CONST	SEGMENT
??_C@_0BIH@NMGBAOPH@?0?5corresponding?5to?5the?5total?5num@ DB ', corresp'
	DB	'onding to the total number of coefficients in the lower trian'
	DB	'gular matrix which describes the dependency transform in ques'
	DB	'tion.  For irreversible dependency transforms, the matrix sho'
	DB	'uld not contain any diagonal entries.  For reversible depende'
	DB	'ncy transforms, however, all but the first diagonal entries s'
	DB	'hould also be included, as normalization factors for the inte'
	DB	'ger predictors.', 00H			; `string'
CONST	ENDS
;	COMDAT ??_C@_0KO@HBMKDEMJ@Unable?5to?5access?5the?5matrix?5para@
CONST	SEGMENT
??_C@_0KO@HBMKDEMJ@Unable?5to?5access?5the?5matrix?5para@ DB 'Unable to a'
	DB	'ccess the matrix parameters identified by an `Mstage_xforms'''
	DB	' parameter attribute.  Specifically, there should be an `Mtri'
	DB	'ang_size'' attribute, with instance index ', 00H ; `string'
CONST	ENDS
;	COMDAT ??_C@_0N@CCNKIJHO@Mtriang_size?$AA@
CONST	SEGMENT
??_C@_0N@CCNKIJHO@Mtriang_size?$AA@ DB 'Mtriang_size', 00H ; `string'
CONST	ENDS
;	COMDAT ??_C@_0BBM@IKPPNJIM@?0?5corresponding?5to?5the?5total?5num@
CONST	SEGMENT
??_C@_0BBM@IKPPNJIM@?0?5corresponding?5to?5the?5total?5num@ DB ', corresp'
	DB	'onding to the total number of coefficients required to descri'
	DB	'be the irreversible decorrelation transform or reversible SER'
	DB	'M transform in question -- note that reversible transforms ar'
	DB	'e described by M*(M+1) coefficients, where M is the number of'
	DB	' input (or output) components.', 00H	; `string'
CONST	ENDS
;	COMDAT ??_C@_0KO@JDHHKMLN@Unable?5to?5access?5the?5matrix?5para@
CONST	SEGMENT
??_C@_0KO@JDHHKMLN@Unable?5to?5access?5the?5matrix?5para@ DB 'Unable to a'
	DB	'ccess the matrix parameters identified by an `Mstage_xforms'''
	DB	' parameter attribute.  Specifically, there should be an `Mmat'
	DB	'rix_size'' attribute, with instance index ', 00H ; `string'
CONST	ENDS
;	COMDAT ??_C@_0N@FIDBGNAL@Mmatrix_size?$AA@
CONST	SEGMENT
??_C@_0N@FIDBGNAL@Mmatrix_size?$AA@ DB 'Mmatrix_size', 00H ; `string'
CONST	ENDS
;	COMDAT ??_C@_0PM@HMICKPCP@Except?5for?5irreversible?5matrix?9b@
CONST	SEGMENT
??_C@_0PM@HMICKPCP@Except?5for?5irreversible?5matrix?9b@ DB 'Except for i'
	DB	'rreversible matrix-based decorrelation transforms, all multi-'
	DB	'component transform blocks described by the `Mstage_blocks'' '
	DB	'and `Mstage_xforms'' parameter attributes must produce exactl'
	DB	'y one output component for each of their input components.', 00H ; `string'
CONST	ENDS
;	COMDAT ??_C@_0HA@CPLCDADH@?0?5corresponding?5to?5the?5number?5of@
CONST	SEGMENT
??_C@_0HA@CPLCDADH@?0?5corresponding?5to?5the?5number?5of@ DB ', correspo'
	DB	'nding to the number of output components produced by the mult'
	DB	'i-component transform block in question.', 00H ; `string'
CONST	ENDS
;	COMDAT ??_C@_0M@KNDNPDMI@?5and?5value?5?$AA@
CONST	SEGMENT
??_C@_0M@KNDNPDMI@?5and?5value?5?$AA@ DB ' and value ', 00H ; `string'
CONST	ENDS
;	COMDAT ??_C@_0KO@HEFENJF@Unable?5to?5access?5the?5offset?5para@
CONST	SEGMENT
??_C@_0KO@HEFENJF@Unable?5to?5access?5the?5offset?5para@ DB 'Unable to ac'
	DB	'cess the offset parameters identified by an `Mstage_xforms'' '
	DB	'parameter attribute.  Specifically, there should be an `Mvect'
	DB	'or_size'' attribute, with instance index ', 00H ; `string'
CONST	ENDS
;	COMDAT ??_C@_0N@EBBFOCKJ@Mvector_size?$AA@
CONST	SEGMENT
??_C@_0N@EBBFOCKJ@Mvector_size?$AA@ DB 'Mvector_size', 00H ; `string'
CONST	ENDS
;	COMDAT ??_C@_0O@FPIFFAOF@Mstage_xforms?$AA@
CONST	SEGMENT
??_C@_0O@FPIFFAOF@Mstage_xforms?$AA@ DB 'Mstage_xforms', 00H ; `string'
CONST	ENDS
;	COMDAT ??_C@_0P@HHFGMPDO@Mstage_outputs?$AA@
CONST	SEGMENT
??_C@_0P@HHFGMPDO@Mstage_outputs?$AA@ DB 'Mstage_outputs', 00H ; `string'
CONST	ENDS
;	COMDAT ??_C@_0O@BOOPOFOH@Mstage_inputs?$AA@
CONST	SEGMENT
??_C@_0O@BOOPOFOH@Mstage_inputs?$AA@ DB 'Mstage_inputs', 00H ; `string'
CONST	ENDS
;	COMDAT ??_C@_0KO@EOEMFLGL@Multi?9component?5transform?5block?5@
CONST	SEGMENT
??_C@_0KO@EOEMFLGL@Multi?9component?5transform?5block?5@ DB 'Multi-compon'
	DB	'ent transform block identifies more input components or more '
	DB	'output components than the maximum number of image components'
	DB	' in a codestream.  Seems like an error!', 00H ; `string'
CONST	ENDS
;	COMDAT ??_C@_0JM@EMODBKHC@Multi?9component?5transform?5blocks@
CONST	SEGMENT
??_C@_0JM@EMODBKHC@Multi?9component?5transform?5blocks@ DB 'Multi-compone'
	DB	'nt transform blocks must each have a strictly positive number'
	DB	' of inputs and outputs, as identified by the `Mstage_blocks'''
	DB	' parameter attribute.', 00H			; `string'
CONST	ENDS
;	COMDAT ??_C@_0PF@HDJMLNFB@?5?$CIstarting?5from?50?$CJ?5in?5the?5multi?9@
CONST	SEGMENT
??_C@_0PF@HDJMLNFB@?5?$CIstarting?5from?50?$CJ?5in?5the?5multi?9@ DB ' (s'
	DB	'tarting from 0) in the multi-component transform for some til'
	DB	'e (or in the main header).  Either the `Mstages'' attribute c'
	DB	'ontains insufficient entries, or no `Mstage_blocks'' attribut'
	DB	'e exists with the instance identifier provided by `Mstages''.'
	DB	00H						; `string'
CONST	ENDS
;	COMDAT ??_C@_0CL@PILHNAFH@Unable?5to?5access?5the?5description@
CONST	SEGMENT
??_C@_0CL@PILHNAFH@Unable?5to?5access?5the?5description@ DB 'Unable to ac'
	DB	'cess the description of stage ', 00H	; `string'
CONST	ENDS
;	COMDAT ??_C@_0BD@ONKCHMLA@Mstage_collections?$AA@
CONST	SEGMENT
??_C@_0BD@ONKCHMLA@Mstage_collections?$AA@ DB 'Mstage_collections', 00H ; `string'
CONST	ENDS
;	COMDAT ??_C@_07CNNLMAHC@Mstages?$AA@
CONST	SEGMENT
??_C@_07CNNLMAHC@Mstages?$AA@ DB 'Mstages', 00H		; `string'
CONST	ENDS
;	COMDAT ??_C@_04OOAAMMCO@Cmct?$AA@
CONST	SEGMENT
??_C@_04OOAAMMCO@Cmct?$AA@ DB 'Cmct', 00H		; `string'
CONST	ENDS
;	COMDAT ??_C@_0M@BMJAMMCN@Mnum_stages?$AA@
CONST	SEGMENT
??_C@_0M@BMJAMMCN@Mnum_stages?$AA@ DB 'Mnum_stages', 00H ; `string'
CONST	ENDS
;	COMDAT ??_C@_0OO@PCLKLFBK@Call?5to?5?$GAkdu_codestream_comment?3@
CONST	SEGMENT
??_C@_0OO@PCLKLFBK@Call?5to?5?$GAkdu_codestream_comment?3@ DB 'Call to `k'
	DB	'du_codestream_comment::put_text'' leaves the total length of '
	DB	'the codestream comment greater than 65531, which is the longe'
	DB	'st comment that can be represented in a COM marker segment in'
	DB	' the codestream.  Comment is being truncated.', 00H ; `string'
CONST	ENDS
;	COMDAT ??_C@_00CNPNBAHC@?$AA@
CONST	SEGMENT
??_C@_00CNPNBAHC@?$AA@ DB 00H				; `string'
CONST	ENDS
;	COMDAT ??_C@_0M@HKNEBDCB@Creslengths?$AA@
CONST	SEGMENT
??_C@_0M@HKNEBDCB@Creslengths?$AA@ DB 'Creslengths', 00H ; `string'
CONST	ENDS
;	COMDAT ??_C@_0LN@NLKIMLNE@Attempting?5to?5use?5a?5spatially?5pr@
CONST	SEGMENT
??_C@_0LN@NLKIMLNE@Attempting?5to?5use?5a?5spatially?5pr@ DB 'Attempting '
	DB	'to use a spatially progressive packet sequence where position'
	DB	' order dominates component order. This is illegal when the co'
	DB	'mponent sub-sampling factors are not exact powers of 2!', 00H ; `string'
CONST	ENDS
;	COMDAT ??_C@_0BCG@LKLOKBKN@Profile?5violation?5detected?5?$CIcode@
CONST	SEGMENT
??_C@_0BCG@LKLOKBKN@Profile?5violation?5detected?5?$CIcode@ DB 'Profile v'
	DB	'iolation detected (code-stream is technically illegal).  In a'
	DB	' Profile-0 code-stream, the first progression specification f'
	DB	'ound in the first POC marker segment of the main or any tile '
	DB	'header may not describe a progression which starts from resol'
	DB	'ution or component indices other than 0.', 00H ; `string'
CONST	ENDS
;	COMDAT ??_C@_0DD@EDBDEPHJ@?5are?5insuffient?5to?5cover?5all?5pac@
CONST	SEGMENT
??_C@_0DD@EDBDEPHJ@?5are?5insuffient?5to?5cover?5all?5pac@ DB ' are insuf'
	DB	'fient to cover all packets for the tile!', 00H ; `string'
CONST	ENDS
;	COMDAT ??_C@_0DA@BOBLKNCL@Supplied?5progression?5order?5attri@
CONST	SEGMENT
??_C@_0DA@BOBLKNCL@Supplied?5progression?5order?5attri@ DB 'Supplied prog'
	DB	'ression order attributes for tile ', 00H	; `string'
CONST	ENDS
;	COMDAT ??_C@_0OO@EOPDAIEN@The?5compressed?5data?5buffer?5serve@
CONST	SEGMENT
??_C@_0OO@EOPDAIEN@The?5compressed?5data?5buffer?5serve@ DB 'The compress'
	DB	'ed data buffer server is being destroyed before all size acco'
	DB	'unting associated with fixed data structures has been complet'
	DB	'ed.  This is most likely due to a bug in the memory accountin'
	DB	'g logic used for dynamic cache management.', 00H ; `string'
CONST	ENDS
;	COMDAT ??_C@_0LL@CAMCHDPO@The?5compressed?5data?5buffer?5serve@
CONST	SEGMENT
??_C@_0LL@CAMCHDPO@The?5compressed?5data?5buffer?5serve@ DB 'The compress'
	DB	'ed data buffer server is being destroyed before all allocated'
	DB	' buffers have been returned.  The problem is most likely conn'
	DB	'ected with a bug in the code-block destruction code.', 00H ; `string'
CONST	ENDS
;	COMDAT ??_C@_0CFK@EADCMAPD@You?5have?5invoked?5?$GAkdu_codestream@
CONST	SEGMENT
??_C@_0CFK@EADCMAPD@You?5have?5invoked?5?$GAkdu_codestream@ DB 'You have '
	DB	'invoked `kdu_codestream::destroy'' from one thread, thread qu'
	DB	'eues remain in which other threads may potentially do work.  '
	DB	'This is OK, so long as the thread from which you invoke `kdu_'
	DB	'codestream::destroy'' is one of the threads participating in '
	DB	'the `kdu_thread_entity'' group to which the above-mentioned t'
	DB	'hread queues belong.  However, this does not appear to be the'
	DB	' case here.  Typically, it is best to destroy codestreams fro'
	DB	'm the same thread which invokes the `kdu_thread_entity::creat'
	DB	'e'' and `kdu_thread_entity::add_thread'' functions which buil'
	DB	'd cooperating multi-threaded processing systems.', 00H ; `string'
CONST	ENDS
;	COMDAT ??_C@_0CCA@PJBKNCFI@Tile?9part?5holds?5some?5but?5not?5all@
CONST	SEGMENT
??_C@_0CCA@PJBKNCFI@Tile?9part?5holds?5some?5but?5not?5all@ DB 'Tile-part'
	DB	' holds some but not all the packets of a precinct for which P'
	DB	'LT information is being used to extract precinct addresses fo'
	DB	'r random access.  In particular, the current tile has its pac'
	DB	'kets sequenced so that all packets of any given precinct appe'
	DB	'ar consecutively and yet a tile-part boundary has been insert'
	DB	'ed between the packets of a precinct.  While this is not ille'
	DB	'gal, it indicates very poor judgement in the placement of til'
	DB	'e-part boundaries.  To process this code-stream, you will hav'
	DB	'e to open it again with file seeking disabled.', 00H ; `string'
CONST	ENDS
;	COMDAT ??_C@_0BBI@KLDFJIGH@Unexpectedly?5ran?5out?5of?5packet?5l@
CONST	SEGMENT
??_C@_0BBI@KLDFJIGH@Unexpectedly?5ran?5out?5of?5packet?5l@ DB 'Unexpected'
	DB	'ly ran out of packet length information while processing tile'
	DB	'-parts.  Most likely cause is that PLT marker segments are ma'
	DB	'lformed, incomplete, or do not appear until after the packets'
	DB	' whose lengths they describe.  All of these conditions are vi'
	DB	'olations of the standard!', 00H		; `string'
CONST	ENDS
;	COMDAT ??_C@_0BAD@MAAGNDO@Unexpected?5change?5in?5coding?5para@
CONST	SEGMENT
??_C@_0BAD@MAAGNDO@Unexpected?5change?5in?5coding?5para@ DB 'Unexpected c'
	DB	'hange in coding parameters or packet sequencing detected afte'
	DB	'r parsing packet length information in PLT marker segments.  '
	DB	'While this is not illegal, it is highly inadvisable.  To proc'
	DB	'ess this code-stream, open it again with file seeking disable'
	DB	'd!', 00H					; `string'
CONST	ENDS
;	COMDAT ??_C@_0JE@NAFKBLL@Malformed?5PLT?5marker?5segment?5enc@
CONST	SEGMENT
??_C@_0JE@NAFKBLL@Malformed?5PLT?5marker?5segment?5enc@ DB 'Malformed PLT'
	DB	' marker segment encountered in tile-part header.  Segment ter'
	DB	'minates part of the way through a multi-byte packet length sp'
	DB	'ecification!', 00H				; `string'
CONST	ENDS
;	COMDAT ??_C@_0BAD@EAIFLCLN@Unexpected?5change?5in?5coding?5para@
CONST	SEGMENT
??_C@_0BAD@EAIFLCLN@Unexpected?5change?5in?5coding?5para@ DB 'Unexpected '
	DB	'change in coding parameters or packet sequencing detected whi'
	DB	'le parsing packet length information in PLT marker segments. '
	DB	' While this is not illegal, it is highly inadvisable.  To pro'
	DB	'cess this code-stream, open it again with file seeking disabl'
	DB	'ed!', 00H					; `string'
CONST	ENDS
;	COMDAT ??_C@_06NMKHLFPN@Porder?$AA@
CONST	SEGMENT
??_C@_06NMKHLFPN@Porder?$AA@ DB 'Porder', 00H		; `string'
CONST	ENDS
;	COMDAT ??_C@_06IKJBDDKO@Corder?$AA@
CONST	SEGMENT
??_C@_06IKJBDDKO@Corder?$AA@ DB 'Corder', 00H		; `string'
CONST	ENDS
;	COMDAT ??_C@_07BJCMAMHC@Clayers?$AA@
CONST	SEGMENT
??_C@_07BJCMAMHC@Clayers?$AA@ DB 'Clayers', 00H		; `string'
CONST	ENDS
;	COMDAT ??_C@_0BFL@CANGKIAI@There?5appears?5to?5be?5a?5problem?5wi@
CONST	SEGMENT
??_C@_0BFL@CANGKIAI@There?5appears?5to?5be?5a?5problem?5wi@ DB 'There app'
	DB	'ears to be a problem with the PLT marker segments included in'
	DB	' the input code-stream.  The PLT marker segments encountered '
	DB	'so far do not have sufficient length information to describe '
	DB	'the lengths of all packets in the tile-parts encountered so f'
	DB	'ar.  To process this code-stream, you will have to open it ag'
	DB	'ain, with file seeking disabled.', 00H	; `string'
CONST	ENDS
;	COMDAT ??_C@_0BDH@HFCLMIKM@PLT?5marker?5segments?5appear?5out?5o@
CONST	SEGMENT
??_C@_0BDH@HFCLMIKM@PLT?5marker?5segments?5appear?5out?5o@ DB 'PLT marker'
	DB	' segments appear out of order within one or more tile-part he'
	DB	'aders.  While this is not illegal, it is highly inadvisable s'
	DB	'ince it prevents immediate condensation of the pointer inform'
	DB	'ation by efficient parsers.  To process this code-stream, you'
	DB	' will have to open it again, with file seeking disabled.', 00H ; `string'
CONST	ENDS
;	COMDAT ??_C@_0IA@MHJOOLGJ@TLM?5marker?5segments?5contain?5one?5@
CONST	SEGMENT
??_C@_0IA@MHJOOLGJ@TLM?5marker?5segments?5contain?5one?5@ DB 'TLM marker '
	DB	'segments contain one or more illegal lengths (< 14 bytes).  P'
	DB	'roceeding with incomplete tile-part length information.', 00H ; `string'
CONST	ENDS
;	COMDAT ??_C@_0BAC@JCJFPLLE@Illegal?5TLM?5marker?5segment?5data?5@
CONST	SEGMENT
??_C@_0BAC@JCJFPLLE@Illegal?5TLM?5marker?5segment?5data?5@ DB 'Illegal TL'
	DB	'M marker segment data encountered in main header.  An illegal'
	DB	' tile number has been identified, either explicitly or implic'
	DB	'itly (through the rule that missing tile identifiers are lega'
	DB	'l only when tiles appear in order with only one tile-part eac'
	DB	'h).', 00H					; `string'
CONST	ENDS
;	COMDAT ??_C@_0KF@DLMNKMGF@Malformed?5TLM?5marker?5segment?5enc@
CONST	SEGMENT
??_C@_0KF@DLMNKMGF@Malformed?5TLM?5marker?5segment?5enc@ DB 'Malformed TL'
	DB	'M marker segment encountered in main header.  Segment length '
	DB	'is inconsistent with the number of bytes used to represent po'
	DB	'inter info for each tile-part.', 00H	; `string'
CONST	ENDS
;	COMDAT ??_C@_0DG@MNLOLHMH@Illegal?5Stlm?5field?5encountered?5i@
CONST	SEGMENT
??_C@_0DG@MNLOLHMH@Illegal?5Stlm?5field?5encountered?5i@ DB 'Illegal Stlm'
	DB	' field encountered in TLM marker segment!', 00H ; `string'
CONST	ENDS
;	COMDAT ??_C@_0FH@FGOHBFDA@Found?5multiple?5TLM?5marker?5segmen@
CONST	SEGMENT
??_C@_0FH@FGOHBFDA@Found?5multiple?5TLM?5marker?5segmen@ DB 'Found multip'
	DB	'le TLM marker segments with identical Ztlm indices within the'
	DB	' main header!', 00H				; `string'
CONST	ENDS
;	COMDAT ??_C@_0DD@NPPLBJLB@TLM?5marker?5segments?5must?5be?5at?5l@
CONST	SEGMENT
??_C@_0DD@NPPLBJLB@TLM?5marker?5segments?5must?5be?5at?5l@ DB 'TLM marker'
	DB	' segments must be at least 6 bytes long!', 00H ; `string'
CONST	ENDS
;	COMDAT ??_C@_0HO@CCHNKHBP@Attempting?5to?5invoke?5?$GAkd_tlm_gen@
CONST	SEGMENT
??_C@_0HO@CCHNKHBP@Attempting?5to?5invoke?5?$GAkd_tlm_gen@ DB 'Attempting'
	DB	' to invoke `kd_tlm_generator::write_final_tlms'' with a compr'
	DB	'essed data target which does not support repositioning.', 00H ; `string'
CONST	ENDS
;	COMDAT ??_C@_0IA@FPINHJNP@Attempting?5to?5write?5TLM?5?$CItile?9pa@
CONST	SEGMENT
??_C@_0IA@FPINHJNP@Attempting?5to?5write?5TLM?5?$CItile?9pa@ DB 'Attempti'
	DB	'ng to write TLM (tile-part length) data where one tile-part'''
	DB	's length cannot be represented as an unsigned 32-bit value.', 00H ; `string'
CONST	ENDS
;	COMDAT ??_C@_0FP@BOACKPIA@Insufficient?5packet?5header?5data?5@
CONST	SEGMENT
??_C@_0FP@BOACKPIA@Insufficient?5packet?5header?5data?5@ DB 'Insufficient'
	DB	' packet header data in PPM marker segments, or else Nppm valu'
	DB	'es must be incorrect!', 00H			; `string'
CONST	ENDS
;	COMDAT ??_C@_0KG@EMHBDNCD@Encountered?5malformed?5PPM?5marker@
CONST	SEGMENT
??_C@_0KG@EMHBDNCD@Encountered?5malformed?5PPM?5marker@ DB 'Encountered m'
	DB	'alformed PPM marker: 4-byte Nppm values may not straddle mult'
	DB	'iple PPM marker segments.  Problem is most likely due to a pr'
	DB	'eviously incorrect Nppm value.', 00H	; `string'
CONST	ENDS
;	COMDAT ??_C@_0DI@CKEFAKFB@Insufficient?5packet?5header?5data?5@
CONST	SEGMENT
??_C@_0DI@CKEFAKFB@Insufficient?5packet?5header?5data?5@ DB 'Insufficient'
	DB	' packet header data in PPM marker segments!', 00H ; `string'
CONST	ENDS
;	COMDAT ??_C@_0IB@IHNJIGBG@Found?5multiple?5PPM?1PPT?5marker?5se@
CONST	SEGMENT
??_C@_0IB@IHNJIGBG@Found?5multiple?5PPM?1PPT?5marker?5se@ DB 'Found multi'
	DB	'ple PPM/PPT marker segments with identical Zppt/Zppm indices '
	DB	'within the same header scope (main or tile-part header)!', 00H ; `string'
CONST	ENDS
;	COMDAT ??_C@_0DH@CINALLDE@PPM?1PPT?5marker?5segments?5must?5be?5@
CONST	SEGMENT
??_C@_0DH@CINALLDE@PPM?1PPT?5marker?5segments?5must?5be?5@ DB 'PPM/PPT ma'
	DB	'rker segments must be at least 3 bytes long!', 00H ; `string'
CONST	ENDS
;	COMDAT ??_C@_0BI@PDKABIHP@?0?5found?5in?5code?9stream?4?$AA@
CONST	SEGMENT
??_C@_0BI@PDKABIHP@?0?5found?5in?5code?9stream?4?$AA@ DB ', found in code'
	DB	'-stream.', 00H				; `string'
CONST	ENDS
;	COMDAT ??_C@_0CJ@GCHDIIBC@Unrecognized?1unimplemented?5marke@
CONST	SEGMENT
??_C@_0CJ@GCHDIIBC@Unrecognized?1unimplemented?5marke@ DB 'Unrecognized/u'
	DB	'nimplemented marker code, ', 00H		; `string'
CONST	ENDS
;	COMDAT ??_C@_0FO@JCNPOBGN@Encountered?5one?5or?5more?5marker?5c@
CONST	SEGMENT
??_C@_0FO@JCNPOBGN@Encountered?5one?5or?5more?5marker?5c@ DB 'Encountered'
	DB	' one or more marker codes in the range 0xFF30 to 0xFF3F.  The'
	DB	'se are to be ignored.', 00H			; `string'
CONST	ENDS
;	COMDAT ??_C@_0CG@FBIDHMHH@Disregarding?5non?9terminal?5EOC?5ma@
CONST	SEGMENT
??_C@_0CG@FBIDHMHH@Disregarding?5non?9terminal?5EOC?5ma@ DB 'Disregarding'
	DB	' non-terminal EOC marker.', 00H		; `string'
CONST	ENDS
;	COMDAT ??_C@_0CH@NAEOEPLF@Skipping?5over?5corrupt?5SOT?5marker@
CONST	SEGMENT
??_C@_0CH@NAEOEPLF@Skipping?5over?5corrupt?5SOT?5marker@ DB 'Skipping ove'
	DB	'r corrupt SOT marker code!', 00H		; `string'
CONST	ENDS
;	COMDAT ??_C@_0CH@FKDCCKNG@Skipping?5over?5corrupt?5SOP?5marker@
CONST	SEGMENT
??_C@_0CH@FKDCCKNG@Skipping?5over?5corrupt?5SOP?5marker@ DB 'Skipping ove'
	DB	'r corrupt SOP marker code!', 00H		; `string'
CONST	ENDS
;	COMDAT ??_C@_0BG@JPDDDEGK@Kakadu?5Core?5Warning?3?6?$AA@
CONST	SEGMENT
??_C@_0BG@JPDDDEGK@Kakadu?5Core?5Warning?3?6?$AA@ DB 'Kakadu Core Warning'
	DB	':', 0aH, 00H				; `string'
CONST	ENDS
;	COMDAT ??_C@_0JA@OOKKCCPN@Attempting?5to?5seek?5inside?5a?5comp@
CONST	SEGMENT
??_C@_0JA@OOKKCCPN@Attempting?5to?5seek?5inside?5a?5comp@ DB 'Attempting '
	DB	'to seek inside a compressed data source which does not appear'
	DB	' to support seeking.  The source may have been implemented in'
	DB	'correctly.', 00H				; `string'
CONST	ENDS
;	COMDAT ??_C@_0LF@EOEFHEHA@Attempting?5to?5load?5cached?5precin@
CONST	SEGMENT
??_C@_0LF@EOEFHEHA@Attempting?5to?5load?5cached?5precin@ DB 'Attempting t'
	DB	'o load cached precinct packets from a compressed data source '
	DB	'which does not appear to support caching.  It is possible tha'
	DB	't the source has been incorrectly implemented.', 00H ; `string'
CONST	ENDS
;	COMDAT ??_C@_0LF@DMBAEAHP@Attempting?5to?5load?5cached?5tile?5h@
CONST	SEGMENT
??_C@_0LF@DMBAEAHP@Attempting?5to?5load?5cached?5tile?5h@ DB 'Attempting '
	DB	'to load cached tile header data from a compressed data source'
	DB	' which does not appear to support caching.  It is possible th'
	DB	'at the source has been incorrectly implemented.', 00H ; `string'
CONST	ENDS
;	COMDAT __CT??_R0G@82
xdata$x	SEGMENT
__CT??_R0G@82 DD 01H
	DD	FLAT:??_R0G@8
	DD	00H
	DD	0ffffffffH
	ORG $+4
	DD	02H
	DD	00H
xdata$x	ENDS
;	COMDAT ??_R0G@8
data$r	SEGMENT
??_R0G@8 DD	FLAT:??_7type_info@@6B@			; unsigned short `RTTI Type Descriptor'
	DD	00H
	DB	'.G', 00H
data$r	ENDS
;	COMDAT __CTA1G
xdata$x	SEGMENT
__CTA1G	DD	01H
	DD	FLAT:__CT??_R0G@82
xdata$x	ENDS
;	COMDAT __TI1G
xdata$x	SEGMENT
__TI1G	DD	00H
	DD	00H
	DD	00H
	DD	FLAT:__CTA1G
xdata$x	ENDS
;	COMDAT ??_C@_01PPODPGHN@?$DO?$AA@
CONST	SEGMENT
??_C@_01PPODPGHN@?$DO?$AA@ DB '>', 00H			; `string'
CONST	ENDS
;	COMDAT ??_C@_01MNNFJEPP@?$DM?$AA@
CONST	SEGMENT
??_C@_01MNNFJEPP@?$DM?$AA@ DB '<', 00H			; `string'
CONST	ENDS
;	COMDAT ??_C@_02MDDDDAID@0x?$AA@
CONST	SEGMENT
??_C@_02MDDDDAID@0x?$AA@ DB '0x', 00H			; `string'
CONST	ENDS
;	COMDAT ??_C@_03KHNNJJKB@PPT?$AA@
CONST	SEGMENT
??_C@_03KHNNJJKB@PPT?$AA@ DB 'PPT', 00H			; `string'
CONST	ENDS
;	COMDAT ??_C@_03DMNNDALJ@PPM?$AA@
CONST	SEGMENT
??_C@_03DMNNDALJ@PPM?$AA@ DB 'PPM', 00H			; `string'
CONST	ENDS
;	COMDAT ??_C@_03LCOBMDLF@PLT?$AA@
CONST	SEGMENT
??_C@_03LCOBMDLF@PLT?$AA@ DB 'PLT', 00H			; `string'
CONST	ENDS
;	COMDAT ??_C@_03CJOBGKKN@PLM?$AA@
CONST	SEGMENT
??_C@_03CJOBGKKN@PLM?$AA@ DB 'PLM', 00H			; `string'
CONST	ENDS
;	COMDAT ??_C@_03KGIDPNPK@TLM?$AA@
CONST	SEGMENT
??_C@_03KGIDPNPK@TLM?$AA@ DB 'TLM', 00H			; `string'
CONST	ENDS
;	COMDAT ??_C@_03GJALCMIF@COM?$AA@
CONST	SEGMENT
??_C@_03GJALCMIF@COM?$AA@ DB 'COM', 00H			; `string'
CONST	ENDS
;	COMDAT ??_C@_03IHBKPECM@CRG?$AA@
CONST	SEGMENT
??_C@_03IHBKPECM@CRG?$AA@ DB 'CRG', 00H			; `string'
CONST	ENDS
;	COMDAT ??_C@_03LFCEPJHK@POC?$AA@
CONST	SEGMENT
??_C@_03LFCEPJHK@POC?$AA@ DB 'POC', 00H			; `string'
CONST	ENDS
;	COMDAT ??_C@_03KEJABOAE@RGN?$AA@
CONST	SEGMENT
??_C@_03KEJABOAE@RGN?$AA@ DB 'RGN', 00H			; `string'
CONST	ENDS
;	COMDAT ??_C@_03EICGHHL@QCC?$AA@
CONST	SEGMENT
??_C@_03EICGHHL@QCC?$AA@ DB 'QCC', 00H			; `string'
CONST	ENDS
;	COMDAT ??_C@_03ELMDPBLM@QCD?$AA@
CONST	SEGMENT
??_C@_03ELMDPBLM@QCD?$AA@ DB 'QCD', 00H			; `string'
CONST	ENDS
;	COMDAT ??_C@_03CPEMBAGM@DFS?$AA@
CONST	SEGMENT
??_C@_03CPEMBAGM@DFS?$AA@ DB 'DFS', 00H			; `string'
CONST	ENDS
;	COMDAT ??_C@_03BLBGDEDA@ADS?$AA@
CONST	SEGMENT
??_C@_03BLBGDEDA@ADS?$AA@ DB 'ADS', 00H			; `string'
CONST	ENDS
;	COMDAT ??_C@_03PHIIABAL@COC?$AA@
CONST	SEGMENT
??_C@_03PHIIABAL@COC?$AA@ DB 'COC', 00H			; `string'
CONST	ENDS
;	COMDAT ??_C@_03LIMJJHMM@COD?$AA@
CONST	SEGMENT
??_C@_03LIMJJHMM@COD?$AA@ DB 'COD', 00H			; `string'
CONST	ENDS
;	COMDAT ??_C@_03LCPIMAFA@MCO?$AA@
CONST	SEGMENT
??_C@_03LCPIMAFA@MCO?$AA@ DB 'MCO', 00H			; `string'
CONST	ENDS
;	COMDAT ??_C@_03BOENIPFM@MCC?$AA@
CONST	SEGMENT
??_C@_03BOENIPFM@MCC?$AA@ DB 'MCC', 00H			; `string'
CONST	ENDS
;	COMDAT ??_C@_03BLMOALMK@MCT?$AA@
CONST	SEGMENT
??_C@_03BLMOALMK@MCT?$AA@ DB 'MCT', 00H			; `string'
CONST	ENDS
;	COMDAT ??_C@_03LABBAEJP@CBD?$AA@
CONST	SEGMENT
??_C@_03LABBAEJP@CBD?$AA@ DB 'CBD', 00H			; `string'
CONST	ENDS
;	COMDAT ??_C@_03DIBMIDDO@SIZ?$AA@
CONST	SEGMENT
??_C@_03DIBMIDDO@SIZ?$AA@ DB 'SIZ', 00H			; `string'
CONST	ENDS
;	COMDAT ??_C@_03NCODFONH@EOC?$AA@
CONST	SEGMENT
??_C@_03NCODFONH@EOC?$AA@ DB 'EOC', 00H			; `string'
CONST	ENDS
;	COMDAT ??_C@_03CGGNGDFB@EPH?$AA@
CONST	SEGMENT
??_C@_03CGGNGDFB@EPH?$AA@ DB 'EPH', 00H			; `string'
CONST	ENDS
;	COMDAT ??_C@_03MGHOBHAG@SOP?$AA@
CONST	SEGMENT
??_C@_03MGHOBHAG@SOP?$AA@ DB 'SOP', 00H			; `string'
CONST	ENDS
;	COMDAT ??_C@_03OINAMAFD@SOD?$AA@
CONST	SEGMENT
??_C@_03OINAMAFD@SOD?$AA@ DB 'SOD', 00H			; `string'
CONST	ENDS
;	COMDAT ??_C@_03KCBCNCAC@SOT?$AA@
CONST	SEGMENT
??_C@_03KCBCNCAC@SOT?$AA@ DB 'SOT', 00H			; `string'
CONST	ENDS
;	COMDAT ??_C@_03KHJBFGJE@SOC?$AA@
CONST	SEGMENT
??_C@_03KHJBFGJE@SOC?$AA@ DB 'SOC', 00H			; `string'
CONST	ENDS
;	COMDAT ??_C@_07KKABNIJP@Kcoeffs?$AA@
CONST	SEGMENT
??_C@_07KKABNIJP@Kcoeffs?$AA@ DB 'Kcoeffs', 00H		; `string'
CONST	ENDS
;	COMDAT ??_C@_0GE@PPANCHNM@Custom?5DWT?5kernel?5found?5in?5ATK?5m@
CONST	SEGMENT
??_C@_0GE@PPANCHNM@Custom?5DWT?5kernel?5found?5in?5ATK?5m@ DB 'Custom DWT'
	DB	' kernel found in ATK marker segment contains a ridiculously l'
	DB	'arge number of coefficients!', 00H		; `string'
CONST	ENDS
;	COMDAT ??_C@_06PJGAHNDG@Ksteps?$AA@
CONST	SEGMENT
??_C@_06PJGAHNDG@Ksteps?$AA@ DB 'Ksteps', 00H		; `string'
CONST	ENDS
;	COMDAT ??_C@_0M@OFOCCDJH@Kreversible?$AA@
CONST	SEGMENT
??_C@_0M@OFOCCDJH@Kreversible?$AA@ DB 'Kreversible', 00H ; `string'
CONST	ENDS
;	COMDAT ??_C@_0L@JOGHAEOB@Kextension?$AA@
CONST	SEGMENT
??_C@_0L@JOGHAEOB@Kextension?$AA@ DB 'Kextension', 00H	; `string'
CONST	ENDS
;	COMDAT ??_C@_0L@BNGLHLNI@Ksymmetric?$AA@
CONST	SEGMENT
??_C@_0L@BNGLHLNI@Ksymmetric?$AA@ DB 'Ksymmetric', 00H	; `string'
CONST	ENDS
;	COMDAT ??_C@_0FL@HPBHAILG@Unable?5to?5find?5ATK?5marker?5segmen@
CONST	SEGMENT
??_C@_0FL@HPBHAILG@Unable?5to?5find?5ATK?5marker?5segmen@ DB 'Unable to f'
	DB	'ind ATK marker segment referenced from within an COD/COC or M'
	DB	'CC marker segment.', 00H			; `string'
CONST	ENDS
;	COMDAT ??_C@_0BE@KMIJLGEL@Kakadu?5Core?5Error?3?6?$AA@
CONST	SEGMENT
??_C@_0BE@KMIJLGEL@Kakadu?5Core?5Error?3?6?$AA@ DB 'Kakadu Core Error:', 0aH
	DB	00H						; `string'
CONST	ENDS
;	COMDAT ??_C@_03IFCLAPBJ@ATK?$AA@
CONST	SEGMENT
??_C@_03IFCLAPBJ@ATK?$AA@ DB 'ATK', 00H			; `string'
CONST	ENDS
;	COMDAT ??_C@_04GOIBNGKI@v6?41?$AA@
CONST	SEGMENT
??_C@_04GOIBNGKI@v6?41?$AA@ DB 'v6.1', 00H		; `string'
CONST	ENDS
;	COMDAT ??_7kd_pph_input@@6B@
CONST	SEGMENT
??_7kd_pph_input@@6B@ DD FLAT:??_R4kd_pph_input@@6B@	; kd_pph_input::`vftable'
	DD	FLAT:??_Ekd_pph_input@@UAEPAXI@Z
	DD	FLAT:?ignore@kd_input@@UAE_J_J@Z
	DD	FLAT:?load_buf@kd_pph_input@@MAE_NXZ
CONST	ENDS
;	COMDAT ??_7kd_compressed_input@@6B@
CONST	SEGMENT
??_7kd_compressed_input@@6B@ DD FLAT:??_R4kd_compressed_input@@6B@ ; kd_compressed_input::`vftable'
	DD	FLAT:??_Ekd_compressed_input@@UAEPAXI@Z
	DD	FLAT:?ignore@kd_compressed_input@@UAE_J_J@Z
	DD	FLAT:?load_buf@kd_compressed_input@@MAE_NXZ
CONST	ENDS
;	COMDAT ??_7kd_input@@6B@
CONST	SEGMENT
??_7kd_input@@6B@ DD FLAT:??_R4kd_input@@6B@		; kd_input::`vftable'
	DD	FLAT:??_Ekd_input@@UAEPAXI@Z
	DD	FLAT:?ignore@kd_input@@UAE_J_J@Z
	DD	FLAT:__purecall
CONST	ENDS
;	COMDAT ??_7kd_compressed_output@@6B@
CONST	SEGMENT
??_7kd_compressed_output@@6B@ DD FLAT:??_R4kd_compressed_output@@6B@ ; kd_compressed_output::`vftable'
	DD	FLAT:??_Ekd_compressed_output@@UAEPAXI@Z
	DD	FLAT:?flush_buf@kd_compressed_output@@MAEXXZ
CONST	ENDS
;	COMDAT ??_7kdu_thread_env@@6B@
CONST	SEGMENT
??_7kdu_thread_env@@6B@ DD FLAT:??_R4kdu_thread_env@@6B@ ; kdu_thread_env::`vftable'
	DD	FLAT:??_Ekdu_thread_env@@UAEPAXI@Z
	DD	FLAT:?new_instance@kdu_thread_env@@UAEPAVkdu_thread_entity@@XZ
	DD	FLAT:?get_num_locks@kdu_thread_env@@UAEHXZ
	DD	FLAT:?handle_exception@kdu_thread_entity@@UAEXH@Z
	DD	FLAT:?do_sync@kdu_thread_env@@MAEX_N@Z
	DD	FLAT:?need_sync@kdu_thread_env@@MAE_NXZ
	DD	FLAT:?on_finished@kdu_thread_env@@MAEX_N@Z
CONST	ENDS
;	COMDAT __CT??_R0H@84
xdata$x	SEGMENT
__CT??_R0H@84 DD 01H
	DD	FLAT:??_R0H@8
	DD	00H
	DD	0ffffffffH
	ORG $+4
	DD	04H
	DD	00H
xdata$x	ENDS
;	COMDAT ??_R0H@8
data$r	SEGMENT
??_R0H@8 DD	FLAT:??_7type_info@@6B@			; int `RTTI Type Descriptor'
	DD	00H
	DB	'.H', 00H
data$r	ENDS
;	COMDAT __CTA1H
xdata$x	SEGMENT
__CTA1H	DD	01H
	DD	FLAT:__CT??_R0H@84
xdata$x	ENDS
;	COMDAT __TI1H
xdata$x	SEGMENT
__TI1H	DD	00H
	DD	00H
	DD	00H
	DD	FLAT:__CTA1H
xdata$x	ENDS
;	COMDAT ??_7kdu_thread_entity@@6B@
CONST	SEGMENT
??_7kdu_thread_entity@@6B@ DD FLAT:??_R4kdu_thread_entity@@6B@ ; kdu_thread_entity::`vftable'
	DD	FLAT:??_Ekdu_thread_entity@@UAEPAXI@Z
	DD	FLAT:?new_instance@kdu_thread_entity@@UAEPAV1@XZ
	DD	FLAT:?get_num_locks@kdu_thread_entity@@UAEHXZ
	DD	FLAT:?handle_exception@kdu_thread_entity@@UAEXH@Z
	DD	FLAT:?do_sync@kdu_thread_entity@@MAEX_N@Z
	DD	FLAT:?need_sync@kdu_thread_entity@@MAE_NXZ
	DD	FLAT:?on_finished@kdu_thread_entity@@MAEX_N@Z
CONST	ENDS
;	COMDAT ??_7kdu_output@@6B@
CONST	SEGMENT
??_7kdu_output@@6B@ DD FLAT:??_R4kdu_output@@6B@	; kdu_output::`vftable'
	DD	FLAT:??_Ekdu_output@@UAEPAXI@Z
	DD	FLAT:__purecall
CONST	ENDS
;	COMDAT ??_C@_02GMHACPFF@?$CFu?$AA@
CONST	SEGMENT
??_C@_02GMHACPFF@?$CFu?$AA@ DB '%u', 00H		; `string'
CONST	ENDS
;	COMDAT ??_C@_02DPKJAMEF@?$CFd?$AA@
CONST	SEGMENT
??_C@_02DPKJAMEF@?$CFd?$AA@ DB '%d', 00H		; `string'
CONST	ENDS
;	COMDAT ??_C@_02NJNOFBBI@?$CFx?$AA@
CONST	SEGMENT
??_C@_02NJNOFBBI@?$CFx?$AA@ DB '%x', 00H		; `string'
CONST	ENDS
;	COMDAT xdata$x
xdata$x	SEGMENT
__unwindtable$?kd_create_dwt_description@@YAXHHPAVkdu_params@@HAA_N11AAHAAPAUkdu_kernel_step_info@@AAPAM@Z DD 0ffffffffH
	DD	FLAT:__unwindfunclet$?kd_create_dwt_description@@YAXHHPAVkdu_params@@HAA_N11AAHAAPAUkdu_kernel_step_info@@AAPAM@Z$0
	DD	0ffffffffH
	DD	FLAT:__unwindfunclet$?kd_create_dwt_description@@YAXHHPAVkdu_params@@HAA_N11AAHAAPAUkdu_kernel_step_info@@AAPAM@Z$1
	DD	0ffffffffH
	DD	FLAT:__unwindfunclet$?kd_create_dwt_description@@YAXHHPAVkdu_params@@HAA_N11AAHAAPAUkdu_kernel_step_info@@AAPAM@Z$4
__ehfuncinfo$?kd_create_dwt_description@@YAXHHPAVkdu_params@@HAA_N11AAHAAPAUkdu_kernel_step_info@@AAPAM@Z DD 019930522H
	DD	03H
	DD	FLAT:__unwindtable$?kd_create_dwt_description@@YAXHHPAVkdu_params@@HAA_N11AAHAAPAUkdu_kernel_step_info@@AAPAM@Z
	DD	2 DUP(00H)
	DD	2 DUP(00H)
	DD	00H
	DD	01H
xdata$x	ENDS
;	COMDAT xdata$x
xdata$x	SEGMENT
__unwindtable$?read_main_header@kd_codestream@@AAEXXZ DD 0ffffffffH
	DD	FLAT:__unwindfunclet$?read_main_header@kd_codestream@@AAEXXZ$0
	DD	0ffffffffH
	DD	FLAT:__unwindfunclet$?read_main_header@kd_codestream@@AAEXXZ$1
	DD	0ffffffffH
	DD	FLAT:__unwindfunclet$?read_main_header@kd_codestream@@AAEXXZ$2
	DD	0ffffffffH
	DD	FLAT:__unwindfunclet$?read_main_header@kd_codestream@@AAEXXZ$6
__ehfuncinfo$?read_main_header@kd_codestream@@AAEXXZ DD 019930522H
	DD	04H
	DD	FLAT:__unwindtable$?read_main_header@kd_codestream@@AAEXXZ
	DD	2 DUP(00H)
	DD	2 DUP(00H)
	DD	00H
	DD	01H
xdata$x	ENDS
;	COMDAT xdata$x
xdata$x	SEGMENT
__unwindtable$?generate_codestream@kd_codestream@@QAE_NH@Z DD 0ffffffffH
	DD	FLAT:__unwindfunclet$?generate_codestream@kd_codestream@@QAE_NH@Z$0
	DD	0ffffffffH
	DD	FLAT:__unwindfunclet$?generate_codestream@kd_codestream@@QAE_NH@Z$1
	DD	0ffffffffH
	DD	FLAT:__unwindfunclet$?generate_codestream@kd_codestream@@QAE_NH@Z$2
__ehfuncinfo$?generate_codestream@kd_codestream@@QAE_NH@Z DD 019930522H
	DD	03H
	DD	FLAT:__unwindtable$?generate_codestream@kd_codestream@@QAE_NH@Z
	DD	2 DUP(00H)
	DD	2 DUP(00H)
	DD	00H
	DD	01H
xdata$x	ENDS
;	COMDAT xdata$x
xdata$x	SEGMENT
__unwindtable$?simulate_output@kd_codestream@@QAE_JAA_JHG_N1_JPA_J@Z DD 0ffffffffH
	DD	FLAT:__unwindfunclet$?simulate_output@kd_codestream@@QAE_JAA_JHG_N1_JPA_J@Z$0
__ehfuncinfo$?simulate_output@kd_codestream@@QAE_JAA_JHG_N1_JPA_J@Z DD 019930522H
	DD	01H
	DD	FLAT:__unwindtable$?simulate_output@kd_codestream@@QAE_JAA_JHG_N1_JPA_J@Z
	DD	2 DUP(00H)
	DD	2 DUP(00H)
	DD	00H
	DD	01H
xdata$x	ENDS
;	COMDAT xdata$x
xdata$x	SEGMENT
__unwindtable$?create_tile@kd_codestream@@QAEPAUkd_tile@@Ukdu_coords@@@Z DD 0ffffffffH
	DD	FLAT:__unwindfunclet$?create_tile@kd_codestream@@QAEPAUkd_tile@@Ukdu_coords@@@Z$0
__ehfuncinfo$?create_tile@kd_codestream@@QAEPAUkd_tile@@Ukdu_coords@@@Z DD 019930522H
	DD	01H
	DD	FLAT:__unwindtable$?create_tile@kd_codestream@@QAEPAUkd_tile@@Ukdu_coords@@@Z
	DD	2 DUP(00H)
	DD	2 DUP(00H)
	DD	00H
	DD	01H
xdata$x	ENDS
;	COMDAT xdata$x
xdata$x	SEGMENT
__unwindtable$?restart@kd_codestream@@QAEXXZ DD 0ffffffffH
	DD	FLAT:__unwindfunclet$?restart@kd_codestream@@QAEXXZ$0
__ehfuncinfo$?restart@kd_codestream@@QAEXXZ DD 019930522H
	DD	01H
	DD	FLAT:__unwindtable$?restart@kd_codestream@@QAEXXZ
	DD	2 DUP(00H)
	DD	2 DUP(00H)
	DD	00H
	DD	01H
xdata$x	ENDS
;	COMDAT xdata$x
xdata$x	SEGMENT
__unwindtable$?restrict_to_fragment@kd_codestream@@QAEXUkdu_dims@@H_J@Z DD 0ffffffffH
	DD	FLAT:__unwindfunclet$?restrict_to_fragment@kd_codestream@@QAEXUkdu_dims@@H_J@Z$0
	DD	0ffffffffH
	DD	FLAT:__unwindfunclet$?restrict_to_fragment@kd_codestream@@QAEXUkdu_dims@@H_J@Z$1
	DD	0ffffffffH
	DD	FLAT:__unwindfunclet$?restrict_to_fragment@kd_codestream@@QAEXUkdu_dims@@H_J@Z$2
__ehfuncinfo$?restrict_to_fragment@kd_codestream@@QAEXUkdu_dims@@H_J@Z DD 019930522H
	DD	03H
	DD	FLAT:__unwindtable$?restrict_to_fragment@kd_codestream@@QAEXUkdu_dims@@H_J@Z
	DD	2 DUP(00H)
	DD	2 DUP(00H)
	DD	00H
	DD	01H
xdata$x	ENDS
;	COMDAT xdata$x
xdata$x	SEGMENT
__unwindtable$?finalize_construction@kd_codestream@@QAEXXZ DD 0ffffffffH
	DD	FLAT:__unwindfunclet$?finalize_construction@kd_codestream@@QAEXXZ$0
	DD	0ffffffffH
	DD	FLAT:__unwindfunclet$?finalize_construction@kd_codestream@@QAEXXZ$1
__ehfuncinfo$?finalize_construction@kd_codestream@@QAEXXZ DD 019930522H
	DD	02H
	DD	FLAT:__unwindtable$?finalize_construction@kd_codestream@@QAEXXZ
	DD	2 DUP(00H)
	DD	2 DUP(00H)
	DD	00H
	DD	01H
xdata$x	ENDS
;	COMDAT xdata$x
xdata$x	SEGMENT
__unwindtable$?construct_output_comp_info@kd_codestream@@QAEXXZ DD 0ffffffffH
	DD	FLAT:__unwindfunclet$?construct_output_comp_info@kd_codestream@@QAEXXZ$0
	DD	0ffffffffH
	DD	FLAT:__unwindfunclet$?construct_output_comp_info@kd_codestream@@QAEXXZ$1
__ehfuncinfo$?construct_output_comp_info@kd_codestream@@QAEXXZ DD 019930522H
	DD	02H
	DD	FLAT:__unwindtable$?construct_output_comp_info@kd_codestream@@QAEXXZ
	DD	2 DUP(00H)
	DD	2 DUP(00H)
	DD	00H
	DD	01H
xdata$x	ENDS
;	COMDAT xdata$x
xdata$x	SEGMENT
__ehfuncinfo$?construct_common@kd_codestream@@QAEXXZ DD 019930522H
	DD	018H
	DD	FLAT:__unwindtable$?construct_common@kd_codestream@@QAEXXZ
	DD	2 DUP(00H)
	DD	2 DUP(00H)
	DD	00H
	DD	01H
__unwindtable$?construct_common@kd_codestream@@QAEXXZ DD 0ffffffffH
	DD	FLAT:__unwindfunclet$?construct_common@kd_codestream@@QAEXXZ$0
	DD	0ffffffffH
	DD	FLAT:__unwindfunclet$?construct_common@kd_codestream@@QAEXXZ$1
	DD	0ffffffffH
	DD	FLAT:__unwindfunclet$?construct_common@kd_codestream@@QAEXXZ$3
	DD	0ffffffffH
	DD	FLAT:__unwindfunclet$?construct_common@kd_codestream@@QAEXXZ$4
	DD	0ffffffffH
	DD	FLAT:__unwindfunclet$?construct_common@kd_codestream@@QAEXXZ$5
	DD	0ffffffffH
	DD	FLAT:__unwindfunclet$?construct_common@kd_codestream@@QAEXXZ$6
	DD	0ffffffffH
	DD	FLAT:__unwindfunclet$?construct_common@kd_codestream@@QAEXXZ$7
	DD	0ffffffffH
	DD	FLAT:__unwindfunclet$?construct_common@kd_codestream@@QAEXXZ$8
	DD	0ffffffffH
	DD	FLAT:__unwindfunclet$?construct_common@kd_codestream@@QAEXXZ$9
	DD	0ffffffffH
	DD	FLAT:__unwindfunclet$?construct_common@kd_codestream@@QAEXXZ$10
	DD	0ffffffffH
	DD	FLAT:__unwindfunclet$?construct_common@kd_codestream@@QAEXXZ$11
	DD	0ffffffffH
	DD	FLAT:__unwindfunclet$?construct_common@kd_codestream@@QAEXXZ$12
	DD	0ffffffffH
	DD	FLAT:__unwindfunclet$?construct_common@kd_codestream@@QAEXXZ$13
	DD	0ffffffffH
	DD	FLAT:__unwindfunclet$?construct_common@kd_codestream@@QAEXXZ$14
	DD	0ffffffffH
	DD	FLAT:__unwindfunclet$?construct_common@kd_codestream@@QAEXXZ$15
	DD	0ffffffffH
	DD	FLAT:__unwindfunclet$?construct_common@kd_codestream@@QAEXXZ$16
	DD	0ffffffffH
	DD	FLAT:__unwindfunclet$?construct_common@kd_codestream@@QAEXXZ$17
	DD	0ffffffffH
	DD	FLAT:__unwindfunclet$?construct_common@kd_codestream@@QAEXXZ$18
	DD	0ffffffffH
	DD	FLAT:__unwindfunclet$?construct_common@kd_codestream@@QAEXXZ$19
	DD	0ffffffffH
	DD	FLAT:__unwindfunclet$?construct_common@kd_codestream@@QAEXXZ$20
	DD	0ffffffffH
	DD	FLAT:__unwindfunclet$?construct_common@kd_codestream@@QAEXXZ$21
	DD	0ffffffffH
	DD	FLAT:__unwindfunclet$?construct_common@kd_codestream@@QAEXXZ$22
	DD	0ffffffffH
	DD	FLAT:__unwindfunclet$?construct_common@kd_codestream@@QAEXXZ$23
	DD	0ffffffffH
	DD	FLAT:__unwindfunclet$?construct_common@kd_codestream@@QAEXXZ$26
xdata$x	ENDS
;	COMDAT xdata$x
xdata$x	SEGMENT
__ehfuncinfo$??1kd_codestream@@QAE@XZ DD 019930522H
	DD	06H
	DD	FLAT:__unwindtable$??1kd_codestream@@QAE@XZ
	DD	2 DUP(00H)
	DD	2 DUP(00H)
	DD	00H
	DD	05H
__unwindtable$??1kd_codestream@@QAE@XZ DD 0ffffffffH
	DD	FLAT:__unwindfunclet$??1kd_codestream@@QAE@XZ$0
	DD	00H
	DD	00H
	DD	0ffffffffH
	DD	FLAT:__unwindfunclet$??1kd_codestream@@QAE@XZ$2
	DD	0ffffffffH
	DD	FLAT:__unwindfunclet$??1kd_codestream@@QAE@XZ$15
	DD	03H
	DD	FLAT:__unwindfunclet$??1kd_codestream@@QAE@XZ$16
	DD	04H
	DD	FLAT:__unwindfunclet$??1kd_codestream@@QAE@XZ$17
xdata$x	ENDS
;	COMDAT xdata$x
xdata$x	SEGMENT
__unwindtable$??_Gkd_mct_stage@@QAEPAXI@Z DD 0ffffffffH
	DD	FLAT:__unwindfunclet$??_Gkd_mct_stage@@QAEPAXI@Z$0
	DD	00H
	DD	FLAT:__unwindfunclet$??_Gkd_mct_stage@@QAEPAXI@Z$1
__ehfuncinfo$??_Gkd_mct_stage@@QAEPAXI@Z DD 019930522H
	DD	02H
	DD	FLAT:__unwindtable$??_Gkd_mct_stage@@QAEPAXI@Z
	DD	2 DUP(00H)
	DD	2 DUP(00H)
	DD	00H
	DD	05H
xdata$x	ENDS
;	COMDAT xdata$x
xdata$x	SEGMENT
__unwindtable$??1kd_mct_stage@@QAE@XZ DD 0ffffffffH
	DD	FLAT:__unwindfunclet$??1kd_mct_stage@@QAE@XZ$0
__ehfuncinfo$??1kd_mct_stage@@QAE@XZ DD 019930522H
	DD	01H
	DD	FLAT:__unwindtable$??1kd_mct_stage@@QAE@XZ
	DD	2 DUP(00H)
	DD	2 DUP(00H)
	DD	00H
	DD	05H
xdata$x	ENDS
;	COMDAT xdata$x
xdata$x	SEGMENT
__ehfuncinfo$?create_stages@kd_mct_stage@@SAXAAPAU1@0PAVkdu_params@@HHPAUkd_comp_info@@HPAUkd_output_comp_info@@@Z DD 019930522H
	DD	0fH
	DD	FLAT:__unwindtable$?create_stages@kd_mct_stage@@SAXAAPAU1@0PAVkdu_params@@HHPAUkd_comp_info@@HPAUkd_output_comp_info@@@Z
	DD	2 DUP(00H)
	DD	2 DUP(00H)
	DD	00H
	DD	01H
__unwindtable$?create_stages@kd_mct_stage@@SAXAAPAU1@0PAVkdu_params@@HHPAUkd_comp_info@@HPAUkd_output_comp_info@@@Z DD 0ffffffffH
	DD	FLAT:__unwindfunclet$?create_stages@kd_mct_stage@@SAXAAPAU1@0PAVkdu_params@@HHPAUkd_comp_info@@HPAUkd_output_comp_info@@@Z$0
	DD	0ffffffffH
	DD	FLAT:__unwindfunclet$?create_stages@kd_mct_stage@@SAXAAPAU1@0PAVkdu_params@@HHPAUkd_comp_info@@HPAUkd_output_comp_info@@@Z$2
	DD	0ffffffffH
	DD	FLAT:__unwindfunclet$?create_stages@kd_mct_stage@@SAXAAPAU1@0PAVkdu_params@@HHPAUkd_comp_info@@HPAUkd_output_comp_info@@@Z$3
	DD	0ffffffffH
	DD	FLAT:__unwindfunclet$?create_stages@kd_mct_stage@@SAXAAPAU1@0PAVkdu_params@@HHPAUkd_comp_info@@HPAUkd_output_comp_info@@@Z$4
	DD	0ffffffffH
	DD	FLAT:__unwindfunclet$?create_stages@kd_mct_stage@@SAXAAPAU1@0PAVkdu_params@@HHPAUkd_comp_info@@HPAUkd_output_comp_info@@@Z$5
	DD	0ffffffffH
	DD	FLAT:__unwindfunclet$?create_stages@kd_mct_stage@@SAXAAPAU1@0PAVkdu_params@@HHPAUkd_comp_info@@HPAUkd_output_comp_info@@@Z$6
	DD	0ffffffffH
	DD	FLAT:__unwindfunclet$?create_stages@kd_mct_stage@@SAXAAPAU1@0PAVkdu_params@@HHPAUkd_comp_info@@HPAUkd_output_comp_info@@@Z$7
	DD	0ffffffffH
	DD	FLAT:__unwindfunclet$?create_stages@kd_mct_stage@@SAXAAPAU1@0PAVkdu_params@@HHPAUkd_comp_info@@HPAUkd_output_comp_info@@@Z$8
	DD	0ffffffffH
	DD	FLAT:__unwindfunclet$?create_stages@kd_mct_stage@@SAXAAPAU1@0PAVkdu_params@@HHPAUkd_comp_info@@HPAUkd_output_comp_info@@@Z$9
	DD	0ffffffffH
	DD	FLAT:__unwindfunclet$?create_stages@kd_mct_stage@@SAXAAPAU1@0PAVkdu_params@@HHPAUkd_comp_info@@HPAUkd_output_comp_info@@@Z$17
	DD	0ffffffffH
	DD	FLAT:__unwindfunclet$?create_stages@kd_mct_stage@@SAXAAPAU1@0PAVkdu_params@@HHPAUkd_comp_info@@HPAUkd_output_comp_info@@@Z$10
	DD	0ffffffffH
	DD	FLAT:__unwindfunclet$?create_stages@kd_mct_stage@@SAXAAPAU1@0PAVkdu_params@@HHPAUkd_comp_info@@HPAUkd_output_comp_info@@@Z$13
	DD	0ffffffffH
	DD	FLAT:__unwindfunclet$?create_stages@kd_mct_stage@@SAXAAPAU1@0PAVkdu_params@@HHPAUkd_comp_info@@HPAUkd_output_comp_info@@@Z$14
	DD	0ffffffffH
	DD	FLAT:__unwindfunclet$?create_stages@kd_mct_stage@@SAXAAPAU1@0PAVkdu_params@@HHPAUkd_comp_info@@HPAUkd_output_comp_info@@@Z$15
	DD	0ffffffffH
	DD	FLAT:__unwindfunclet$?create_stages@kd_mct_stage@@SAXAAPAU1@0PAVkdu_params@@HHPAUkd_comp_info@@HPAUkd_output_comp_info@@@Z$16
xdata$x	ENDS
;	COMDAT xdata$x
xdata$x	SEGMENT
__ehfuncinfo$??_Ekd_mct_block@@QAEPAXI@Z DD 019930522H
	DD	00H
	DD	00H
	DD	2 DUP(00H)
	DD	2 DUP(00H)
	DD	00H
	DD	05H
xdata$x	ENDS
;	COMDAT xdata$x
xdata$x	SEGMENT
__unwindtable$?analyze_sensitivity@kd_mct_block@@QAEXHMAAH0_N@Z DD 0ffffffffH
	DD	FLAT:__unwindfunclet$?analyze_sensitivity@kd_mct_block@@QAEXHMAAH0_N@Z$0
__ehfuncinfo$?analyze_sensitivity@kd_mct_block@@QAEXHMAAH0_N@Z DD 019930522H
	DD	01H
	DD	FLAT:__unwindtable$?analyze_sensitivity@kd_mct_block@@QAEXHMAAH0_N@Z
	DD	2 DUP(00H)
	DD	2 DUP(00H)
	DD	00H
	DD	01H
xdata$x	ENDS
;	COMDAT xdata$x
xdata$x	SEGMENT
__unwindtable$??1kd_mct_block@@QAE@XZ DD 0ffffffffH
	DD	FLAT:__unwindfunclet$??1kd_mct_block@@QAE@XZ$0
__ehfuncinfo$??1kd_mct_block@@QAE@XZ DD 019930522H
	DD	01H
	DD	FLAT:__unwindtable$??1kd_mct_block@@QAE@XZ
	DD	2 DUP(00H)
	DD	2 DUP(00H)
	DD	00H
	DD	05H
xdata$x	ENDS
;	COMDAT xdata$x
xdata$x	SEGMENT
__ehfuncinfo$??_Ekd_mct_ss_model@@QAEPAXI@Z DD 019930522H
	DD	00H
	DD	00H
	DD	2 DUP(00H)
	DD	2 DUP(00H)
	DD	00H
	DD	05H
xdata$x	ENDS
;	COMDAT xdata$x
xdata$x	SEGMENT
__unwindtable$??_Ekd_global_rescomp@@QAEPAXI@Z DD 0ffffffffH
	DD	FLAT:__unwindfunclet$??_Ekd_global_rescomp@@QAEPAXI@Z$0
__ehfuncinfo$??_Ekd_global_rescomp@@QAEPAXI@Z DD 019930522H
	DD	01H
	DD	FLAT:__unwindtable$??_Ekd_global_rescomp@@QAEPAXI@Z
	DD	2 DUP(00H)
	DD	2 DUP(00H)
	DD	00H
	DD	05H
xdata$x	ENDS
;	COMDAT xdata$x
xdata$x	SEGMENT
__ehfuncinfo$??1kd_global_rescomp@@QAE@XZ DD 019930522H
	DD	00H
	DD	00H
	DD	2 DUP(00H)
	DD	2 DUP(00H)
	DD	00H
	DD	05H
xdata$x	ENDS
;	COMDAT xdata$x
xdata$x	SEGMENT
__ehfuncinfo$??_Ekd_reslength_checker@@QAEPAXI@Z DD 019930522H
	DD	00H
	DD	00H
	DD	2 DUP(00H)
	DD	2 DUP(00H)
	DD	00H
	DD	05H
xdata$x	ENDS
;	COMDAT xdata$x
xdata$x	SEGMENT
__unwindtable$?next_progression@kd_packet_sequencer@@AAE_NXZ DD 0ffffffffH
	DD	FLAT:__unwindfunclet$?next_progression@kd_packet_sequencer@@AAE_NXZ$0
	DD	0ffffffffH
	DD	FLAT:__unwindfunclet$?next_progression@kd_packet_sequencer@@AAE_NXZ$1
	DD	0ffffffffH
	DD	FLAT:__unwindfunclet$?next_progression@kd_packet_sequencer@@AAE_NXZ$2
__ehfuncinfo$?next_progression@kd_packet_sequencer@@AAE_NXZ DD 019930522H
	DD	03H
	DD	FLAT:__unwindtable$?next_progression@kd_packet_sequencer@@AAE_NXZ
	DD	2 DUP(00H)
	DD	2 DUP(00H)
	DD	00H
	DD	01H
xdata$x	ENDS
;	COMDAT xdata$x
xdata$x	SEGMENT
__unwindtable$?pop_address@kd_precinct_pointer_server@@AAE_JXZ DD 0ffffffffH
	DD	FLAT:__unwindfunclet$?pop_address@kd_precinct_pointer_server@@AAE_JXZ$0
	DD	0ffffffffH
	DD	FLAT:__unwindfunclet$?pop_address@kd_precinct_pointer_server@@AAE_JXZ$1
__ehfuncinfo$?pop_address@kd_precinct_pointer_server@@AAE_JXZ DD 019930522H
	DD	02H
	DD	FLAT:__unwindtable$?pop_address@kd_precinct_pointer_server@@AAE_JXZ
	DD	2 DUP(00H)
	DD	2 DUP(00H)
	DD	00H
	DD	01H
xdata$x	ENDS
;	COMDAT xdata$x
xdata$x	SEGMENT
__unwindtable$?start_tpart_body@kd_precinct_pointer_server@@QAEX_JIPAVkdu_params@@1_N2@Z DD 0ffffffffH
	DD	FLAT:__unwindfunclet$?start_tpart_body@kd_precinct_pointer_server@@QAEX_JIPAVkdu_params@@1_N2@Z$0
__ehfuncinfo$?start_tpart_body@kd_precinct_pointer_server@@QAEX_JIPAVkdu_params@@1_N2@Z DD 019930522H
	DD	01H
	DD	FLAT:__unwindtable$?start_tpart_body@kd_precinct_pointer_server@@QAEX_JIPAVkdu_params@@1_N2@Z
	DD	2 DUP(00H)
	DD	2 DUP(00H)
	DD	00H
	DD	01H
xdata$x	ENDS
;	COMDAT xdata$x
xdata$x	SEGMENT
__unwindtable$?add_plt_marker@kd_precinct_pointer_server@@QAEXAAVkd_marker@@PAVkdu_params@@1@Z DD 0ffffffffH
	DD	FLAT:__unwindfunclet$?add_plt_marker@kd_precinct_pointer_server@@QAEXAAVkd_marker@@PAVkdu_params@@1@Z$0
	DD	0ffffffffH
	DD	FLAT:__unwindfunclet$?add_plt_marker@kd_precinct_pointer_server@@QAEXAAVkd_marker@@PAVkdu_params@@1@Z$1
	DD	0ffffffffH
	DD	FLAT:__unwindfunclet$?add_plt_marker@kd_precinct_pointer_server@@QAEXAAVkd_marker@@PAVkdu_params@@1@Z$2
	DD	0ffffffffH
	DD	FLAT:__unwindfunclet$?add_plt_marker@kd_precinct_pointer_server@@QAEXAAVkd_marker@@PAVkdu_params@@1@Z$3
__ehfuncinfo$?add_plt_marker@kd_precinct_pointer_server@@QAEXAAVkd_marker@@PAVkdu_params@@1@Z DD 019930522H
	DD	04H
	DD	FLAT:__unwindtable$?add_plt_marker@kd_precinct_pointer_server@@QAEXAAVkd_marker@@PAVkdu_params@@1@Z
	DD	2 DUP(00H)
	DD	2 DUP(00H)
	DD	00H
	DD	01H
xdata$x	ENDS
;	COMDAT xdata$x
xdata$x	SEGMENT
__unwindtable$?translate_markers@kd_tpart_pointer_server@@QAEX_JHPAUkd_tile_ref@@@Z DD 0ffffffffH
	DD	FLAT:__unwindfunclet$?translate_markers@kd_tpart_pointer_server@@QAEX_JHPAUkd_tile_ref@@@Z$0
	DD	0ffffffffH
	DD	FLAT:__unwindfunclet$?translate_markers@kd_tpart_pointer_server@@QAEX_JHPAUkd_tile_ref@@@Z$1
	DD	0ffffffffH
	DD	FLAT:__unwindfunclet$?translate_markers@kd_tpart_pointer_server@@QAEX_JHPAUkd_tile_ref@@@Z$2
	DD	0ffffffffH
	DD	FLAT:__unwindfunclet$?translate_markers@kd_tpart_pointer_server@@QAEX_JHPAUkd_tile_ref@@@Z$3
__ehfuncinfo$?translate_markers@kd_tpart_pointer_server@@QAEX_JHPAUkd_tile_ref@@@Z DD 019930522H
	DD	04H
	DD	FLAT:__unwindtable$?translate_markers@kd_tpart_pointer_server@@QAEX_JHPAUkd_tile_ref@@@Z
	DD	2 DUP(00H)
	DD	2 DUP(00H)
	DD	00H
	DD	01H
xdata$x	ENDS
;	COMDAT xdata$x
xdata$x	SEGMENT
__unwindtable$?add_tlm_marker@kd_tpart_pointer_server@@QAEXAAVkd_marker@@@Z DD 0ffffffffH
	DD	FLAT:__unwindfunclet$?add_tlm_marker@kd_tpart_pointer_server@@QAEXAAVkd_marker@@@Z$0
	DD	0ffffffffH
	DD	FLAT:__unwindfunclet$?add_tlm_marker@kd_tpart_pointer_server@@QAEXAAVkd_marker@@@Z$1
	DD	0ffffffffH
	DD	FLAT:__unwindfunclet$?add_tlm_marker@kd_tpart_pointer_server@@QAEXAAVkd_marker@@@Z$2
__ehfuncinfo$?add_tlm_marker@kd_tpart_pointer_server@@QAEXAAVkd_marker@@@Z DD 019930522H
	DD	03H
	DD	FLAT:__unwindtable$?add_tlm_marker@kd_tpart_pointer_server@@QAEXAAVkd_marker@@@Z
	DD	2 DUP(00H)
	DD	2 DUP(00H)
	DD	00H
	DD	01H
xdata$x	ENDS
;	COMDAT xdata$x
xdata$x	SEGMENT
__unwindtable$?write_tlms@kd_tlm_generator@@QAEXPAVkdu_compressed_target@@H_J@Z DD 0ffffffffH
	DD	FLAT:__unwindfunclet$?write_tlms@kd_tlm_generator@@QAEXPAVkdu_compressed_target@@H_J@Z$0
	DD	0ffffffffH
	DD	FLAT:__unwindfunclet$?write_tlms@kd_tlm_generator@@QAEXPAVkdu_compressed_target@@H_J@Z$1
	DD	0ffffffffH
	DD	FLAT:__unwindfunclet$?write_tlms@kd_tlm_generator@@QAEXPAVkdu_compressed_target@@H_J@Z$2
__ehfuncinfo$?write_tlms@kd_tlm_generator@@QAEXPAVkdu_compressed_target@@H_J@Z DD 019930522H
	DD	03H
	DD	FLAT:__unwindtable$?write_tlms@kd_tlm_generator@@QAEXPAVkdu_compressed_target@@H_J@Z
	DD	2 DUP(00H)
	DD	2 DUP(00H)
	DD	00H
	DD	01H
xdata$x	ENDS
;	COMDAT xdata$x
xdata$x	SEGMENT
__unwindtable$?add_tpart_length@kd_tlm_generator@@QAEXH_J@Z DD 0ffffffffH
	DD	FLAT:__unwindfunclet$?add_tpart_length@kd_tlm_generator@@QAEXH_J@Z$0
__ehfuncinfo$?add_tpart_length@kd_tlm_generator@@QAEXH_J@Z DD 019930522H
	DD	01H
	DD	FLAT:__unwindtable$?add_tpart_length@kd_tlm_generator@@QAEXH_J@Z
	DD	2 DUP(00H)
	DD	2 DUP(00H)
	DD	00H
	DD	01H
xdata$x	ENDS
;	COMDAT xdata$x
xdata$x	SEGMENT
__unwindtable$?ignore_tpart@kd_pp_markers@@QAEXXZ DD 0ffffffffH
	DD	FLAT:__unwindfunclet$?ignore_tpart@kd_pp_markers@@QAEXXZ$0
	DD	0ffffffffH
	DD	FLAT:__unwindfunclet$?ignore_tpart@kd_pp_markers@@QAEXXZ$1
__ehfuncinfo$?ignore_tpart@kd_pp_markers@@QAEXXZ DD 019930522H
	DD	02H
	DD	FLAT:__unwindtable$?ignore_tpart@kd_pp_markers@@QAEXXZ
	DD	2 DUP(00H)
	DD	2 DUP(00H)
	DD	00H
	DD	01H
xdata$x	ENDS
;	COMDAT xdata$x
xdata$x	SEGMENT
__unwindtable$?transfer_tpart@kd_pp_markers@@QAEXPAVkd_pph_input@@@Z DD 0ffffffffH
	DD	FLAT:__unwindfunclet$?transfer_tpart@kd_pp_markers@@QAEXPAVkd_pph_input@@@Z$0
	DD	0ffffffffH
	DD	FLAT:__unwindfunclet$?transfer_tpart@kd_pp_markers@@QAEXPAVkd_pph_input@@@Z$1
	DD	0ffffffffH
	DD	FLAT:__unwindfunclet$?transfer_tpart@kd_pp_markers@@QAEXPAVkd_pph_input@@@Z$2
__ehfuncinfo$?transfer_tpart@kd_pp_markers@@QAEXPAVkd_pph_input@@@Z DD 019930522H
	DD	03H
	DD	FLAT:__unwindtable$?transfer_tpart@kd_pp_markers@@QAEXPAVkd_pph_input@@@Z
	DD	2 DUP(00H)
	DD	2 DUP(00H)
	DD	00H
	DD	01H
xdata$x	ENDS
;	COMDAT xdata$x
xdata$x	SEGMENT
__unwindtable$?add_marker@kd_pp_markers@@QAEXAAVkd_marker@@@Z DD 0ffffffffH
	DD	FLAT:__unwindfunclet$?add_marker@kd_pp_markers@@QAEXAAVkd_marker@@@Z$0
	DD	0ffffffffH
	DD	FLAT:__unwindfunclet$?add_marker@kd_pp_markers@@QAEXAAVkd_marker@@@Z$1
	DD	0ffffffffH
	DD	FLAT:__unwindfunclet$?add_marker@kd_pp_markers@@QAEXAAVkd_marker@@@Z$2
__ehfuncinfo$?add_marker@kd_pp_markers@@QAEXAAVkd_marker@@@Z DD 019930522H
	DD	03H
	DD	FLAT:__unwindtable$?add_marker@kd_pp_markers@@QAEXAAVkd_marker@@@Z
	DD	2 DUP(00H)
	DD	2 DUP(00H)
	DD	00H
	DD	01H
xdata$x	ENDS
;	COMDAT xdata$x
xdata$x	SEGMENT
__ehfuncinfo$?read@kd_marker@@QAE_N_N0@Z DD 019930522H
	DD	05H
	DD	FLAT:__unwindtable$?read@kd_marker@@QAE_N_N0@Z
	DD	2 DUP(00H)
	DD	2 DUP(00H)
	DD	00H
	DD	01H
__unwindtable$?read@kd_marker@@QAE_N_N0@Z DD 0ffffffffH
	DD	FLAT:__unwindfunclet$?read@kd_marker@@QAE_N_N0@Z$0
	DD	0ffffffffH
	DD	FLAT:__unwindfunclet$?read@kd_marker@@QAE_N_N0@Z$1
	DD	0ffffffffH
	DD	FLAT:__unwindfunclet$?read@kd_marker@@QAE_N_N0@Z$2
	DD	0ffffffffH
	DD	FLAT:__unwindfunclet$?read@kd_marker@@QAE_N_N0@Z$3
	DD	0ffffffffH
	DD	FLAT:__unwindfunclet$?read@kd_marker@@QAE_N_N0@Z$4
xdata$x	ENDS
;	COMDAT xdata$x
xdata$x	SEGMENT
__unwindtable$?seek@kd_compressed_input@@QAEX_J@Z DD 0ffffffffH
	DD	FLAT:__unwindfunclet$?seek@kd_compressed_input@@QAEX_J@Z$0
	DD	0ffffffffH
	DD	FLAT:__unwindfunclet$?seek@kd_compressed_input@@QAEX_J@Z$1
__ehfuncinfo$?seek@kd_compressed_input@@QAEX_J@Z DD 019930522H
	DD	02H
	DD	FLAT:__unwindtable$?seek@kd_compressed_input@@QAEX_J@Z
	DD	2 DUP(00H)
	DD	2 DUP(00H)
	DD	00H
	DD	01H
xdata$x	ENDS
;	COMDAT xdata$x
xdata$x	SEGMENT
__unwindtable$?set_tileheader_scope@kd_compressed_input@@QAE_NHH@Z DD 0ffffffffH
	DD	FLAT:__unwindfunclet$?set_tileheader_scope@kd_compressed_input@@QAE_NHH@Z$0
__ehfuncinfo$?set_tileheader_scope@kd_compressed_input@@QAE_NHH@Z DD 019930522H
	DD	01H
	DD	FLAT:__unwindtable$?set_tileheader_scope@kd_compressed_input@@QAE_NHH@Z
	DD	2 DUP(00H)
	DD	2 DUP(00H)
	DD	00H
	DD	01H
xdata$x	ENDS
;	COMDAT xdata$x
xdata$x	SEGMENT
__unwindtable$??0kd_compressed_input@@QAE@PAVkdu_compressed_source@@@Z DD 0ffffffffH
	DD	FLAT:__unwindfunclet$??0kd_compressed_input@@QAE@PAVkdu_compressed_source@@@Z$0
__ehfuncinfo$??0kd_compressed_input@@QAE@PAVkdu_compressed_source@@@Z DD 019930522H
	DD	01H
	DD	FLAT:__unwindtable$??0kd_compressed_input@@QAE@PAVkdu_compressed_source@@@Z
	DD	2 DUP(00H)
	DD	2 DUP(00H)
	DD	00H
	DD	01H
xdata$x	ENDS
;	COMDAT xdata$x
xdata$x	SEGMENT
__unwindtable$??_Gkd_compressed_output@@UAEPAXI@Z DD 0ffffffffH
	DD	FLAT:__unwindfunclet$??_Gkd_compressed_output@@UAEPAXI@Z$0
__ehfuncinfo$??_Gkd_compressed_output@@UAEPAXI@Z DD 019930522H
	DD	01H
	DD	FLAT:__unwindtable$??_Gkd_compressed_output@@UAEPAXI@Z
	DD	2 DUP(00H)
	DD	2 DUP(00H)
	DD	00H
	DD	05H
xdata$x	ENDS
;	COMDAT xdata$x
xdata$x	SEGMENT
__ehfuncinfo$??1kd_compressed_output@@UAE@XZ DD 019930522H
	DD	00H
	DD	00H
	DD	2 DUP(00H)
	DD	2 DUP(00H)
	DD	00H
	DD	05H
xdata$x	ENDS
;	COMDAT xdata$x
xdata$x	SEGMENT
__ehfuncinfo$??1kd_buf_server@@QAE@XZ DD 019930522H
	DD	00H
	DD	00H
	DD	2 DUP(00H)
	DD	2 DUP(00H)
	DD	00H
	DD	05H
xdata$x	ENDS
;	COMDAT xdata$x
xdata$x	SEGMENT
__ehfuncinfo$??_Ekdu_thread_env@@UAEPAXI@Z DD 019930522H
	DD	00H
	DD	00H
	DD	2 DUP(00H)
	DD	2 DUP(00H)
	DD	00H
	DD	05H
xdata$x	ENDS
;	COMDAT xdata$x
xdata$x	SEGMENT
__unwindtable$?new_instance@kdu_thread_env@@UAEPAVkdu_thread_entity@@XZ DD 0ffffffffH
	DD	FLAT:__unwindfunclet$?new_instance@kdu_thread_env@@UAEPAVkdu_thread_entity@@XZ$0
__ehfuncinfo$?new_instance@kdu_thread_env@@UAEPAVkdu_thread_entity@@XZ DD 019930522H
	DD	01H
	DD	FLAT:__unwindtable$?new_instance@kdu_thread_env@@UAEPAVkdu_thread_entity@@XZ
	DD	2 DUP(00H)
	DD	2 DUP(00H)
	DD	00H
	DD	01H
xdata$x	ENDS
;	COMDAT xdata$x
xdata$x	SEGMENT
__unwindtable$??1kdu_thread_env@@UAE@XZ DD 0ffffffffH
	DD	FLAT:__unwindfunclet$??1kdu_thread_env@@UAE@XZ$2
__ehfuncinfo$??1kdu_thread_env@@UAE@XZ DD 019930522H
	DD	01H
	DD	FLAT:__unwindtable$??1kdu_thread_env@@UAE@XZ
	DD	2 DUP(00H)
	DD	2 DUP(00H)
	DD	00H
	DD	05H
xdata$x	ENDS
;	COMDAT xdata$x
xdata$x	SEGMENT
__unwindtable$??0kdu_thread_env@@QAE@XZ DD 0ffffffffH
	DD	FLAT:__unwindfunclet$??0kdu_thread_env@@QAE@XZ$0
	DD	00H
	DD	FLAT:__unwindfunclet$??0kdu_thread_env@@QAE@XZ$1
__ehfuncinfo$??0kdu_thread_env@@QAE@XZ DD 019930522H
	DD	02H
	DD	FLAT:__unwindtable$??0kdu_thread_env@@QAE@XZ
	DD	2 DUP(00H)
	DD	2 DUP(00H)
	DD	00H
	DD	01H
xdata$x	ENDS
;	COMDAT xdata$x
xdata$x	SEGMENT
__unwindtable$?trans_out@kdu_codestream@@QAEH_JPA_JH_NPAVkdu_thread_env@@@Z DD 0ffffffffH
	DD	FLAT:__unwindfunclet$?trans_out@kdu_codestream@@QAEH_JPA_JH_NPAVkdu_thread_env@@@Z$0
	DD	0ffffffffH
	DD	FLAT:__unwindfunclet$?trans_out@kdu_codestream@@QAEH_JPA_JH_NPAVkdu_thread_env@@@Z$1
__ehfuncinfo$?trans_out@kdu_codestream@@QAEH_JPA_JH_NPAVkdu_thread_env@@@Z DD 019930522H
	DD	02H
	DD	FLAT:__unwindtable$?trans_out@kdu_codestream@@QAEH_JPA_JH_NPAVkdu_thread_env@@@Z
	DD	2 DUP(00H)
	DD	2 DUP(00H)
	DD	00H
	DD	01H
xdata$x	ENDS
;	COMDAT xdata$x
xdata$x	SEGMENT
__unwindtable$?flush@kdu_codestream@@QAEXPA_JHPAG_N2NPAVkdu_thread_env@@@Z DD 0ffffffffH
	DD	FLAT:__unwindfunclet$?flush@kdu_codestream@@QAEXPA_JHPAG_N2NPAVkdu_thread_env@@@Z$0
	DD	0ffffffffH
	DD	FLAT:__unwindfunclet$?flush@kdu_codestream@@QAEXPA_JHPAG_N2NPAVkdu_thread_env@@@Z$1
	DD	0ffffffffH
	DD	FLAT:__unwindfunclet$?flush@kdu_codestream@@QAEXPA_JHPAG_N2NPAVkdu_thread_env@@@Z$2
__ehfuncinfo$?flush@kdu_codestream@@QAEXPA_JHPAG_N2NPAVkdu_thread_env@@@Z DD 019930522H
	DD	03H
	DD	FLAT:__unwindtable$?flush@kdu_codestream@@QAEXPA_JHPAG_N2NPAVkdu_thread_env@@@Z
	DD	2 DUP(00H)
	DD	2 DUP(00H)
	DD	00H
	DD	01H
xdata$x	ENDS
;	COMDAT xdata$x
xdata$x	SEGMENT
__unwindtable$?open_tile@kdu_codestream@@QAE?AVkdu_tile@@Ukdu_coords@@PAVkdu_thread_env@@@Z DD 0ffffffffH
	DD	FLAT:__unwindfunclet$?open_tile@kdu_codestream@@QAE?AVkdu_tile@@Ukdu_coords@@PAVkdu_thread_env@@@Z$0
__ehfuncinfo$?open_tile@kdu_codestream@@QAE?AVkdu_tile@@Ukdu_coords@@PAVkdu_thread_env@@@Z DD 019930522H
	DD	01H
	DD	FLAT:__unwindtable$?open_tile@kdu_codestream@@QAE?AVkdu_tile@@Ukdu_coords@@PAVkdu_thread_env@@@Z
	DD	2 DUP(00H)
	DD	2 DUP(00H)
	DD	00H
	DD	01H
xdata$x	ENDS
;	COMDAT xdata$x
xdata$x	SEGMENT
__unwindtable$?change_appearance@kdu_codestream@@QAEX_N00@Z DD 0ffffffffH
	DD	FLAT:__unwindfunclet$?change_appearance@kdu_codestream@@QAEX_N00@Z$0
	DD	0ffffffffH
	DD	FLAT:__unwindfunclet$?change_appearance@kdu_codestream@@QAEX_N00@Z$1
__ehfuncinfo$?change_appearance@kdu_codestream@@QAEX_N00@Z DD 019930522H
	DD	02H
	DD	FLAT:__unwindtable$?change_appearance@kdu_codestream@@QAEX_N00@Z
	DD	2 DUP(00H)
	DD	2 DUP(00H)
	DD	00H
	DD	01H
xdata$x	ENDS
;	COMDAT xdata$x
xdata$x	SEGMENT
__ehfuncinfo$?apply_input_restrictions@kdu_codestream@@QAEXHHHHPAUkdu_dims@@W4kdu_component_access_mode@@@Z DD 019930522H
	DD	05H
	DD	FLAT:__unwindtable$?apply_input_restrictions@kdu_codestream@@QAEXHHHHPAUkdu_dims@@W4kdu_component_access_mode@@@Z
	DD	2 DUP(00H)
	DD	2 DUP(00H)
	DD	00H
	DD	01H
__unwindtable$?apply_input_restrictions@kdu_codestream@@QAEXHHHHPAUkdu_dims@@W4kdu_component_access_mode@@@Z DD 0ffffffffH
	DD	FLAT:__unwindfunclet$?apply_input_restrictions@kdu_codestream@@QAEXHHHHPAUkdu_dims@@W4kdu_component_access_mode@@@Z$0
	DD	0ffffffffH
	DD	FLAT:__unwindfunclet$?apply_input_restrictions@kdu_codestream@@QAEXHHHHPAUkdu_dims@@W4kdu_component_access_mode@@@Z$1
	DD	0ffffffffH
	DD	FLAT:__unwindfunclet$?apply_input_restrictions@kdu_codestream@@QAEXHHHHPAUkdu_dims@@W4kdu_component_access_mode@@@Z$2
	DD	0ffffffffH
	DD	FLAT:__unwindfunclet$?apply_input_restrictions@kdu_codestream@@QAEXHHHHPAUkdu_dims@@W4kdu_component_access_mode@@@Z$3
	DD	0ffffffffH
	DD	FLAT:__unwindfunclet$?apply_input_restrictions@kdu_codestream@@QAEXHHHHPAUkdu_dims@@W4kdu_component_access_mode@@@Z$4
xdata$x	ENDS
;	COMDAT xdata$x
xdata$x	SEGMENT
__unwindtable$?set_max_bytes@kdu_codestream@@QAEX_J_N1@Z DD 0ffffffffH
	DD	FLAT:__unwindfunclet$?set_max_bytes@kdu_codestream@@QAEX_J_N1@Z$0
	DD	0ffffffffH
	DD	FLAT:__unwindfunclet$?set_max_bytes@kdu_codestream@@QAEX_J_N1@Z$1
__ehfuncinfo$?set_max_bytes@kdu_codestream@@QAEX_J_N1@Z DD 019930522H
	DD	02H
	DD	FLAT:__unwindtable$?set_max_bytes@kdu_codestream@@QAEX_J_N1@Z
	DD	2 DUP(00H)
	DD	2 DUP(00H)
	DD	00H
	DD	01H
xdata$x	ENDS
;	COMDAT xdata$x
xdata$x	SEGMENT
__unwindtable$?set_persistent@kdu_codestream@@QAEXXZ DD 0ffffffffH
	DD	FLAT:__unwindfunclet$?set_persistent@kdu_codestream@@QAEXXZ$0
__ehfuncinfo$?set_persistent@kdu_codestream@@QAEXXZ DD 019930522H
	DD	01H
	DD	FLAT:__unwindtable$?set_persistent@kdu_codestream@@QAEXXZ
	DD	2 DUP(00H)
	DD	2 DUP(00H)
	DD	00H
	DD	01H
xdata$x	ENDS
;	COMDAT xdata$x
xdata$x	SEGMENT
__unwindtable$?enable_restart@kdu_codestream@@QAEXXZ DD 0ffffffffH
	DD	FLAT:__unwindfunclet$?enable_restart@kdu_codestream@@QAEXXZ$0
__ehfuncinfo$?enable_restart@kdu_codestream@@QAEXXZ DD 019930522H
	DD	01H
	DD	FLAT:__unwindtable$?enable_restart@kdu_codestream@@QAEXXZ
	DD	2 DUP(00H)
	DD	2 DUP(00H)
	DD	00H
	DD	01H
xdata$x	ENDS
;	COMDAT xdata$x
xdata$x	SEGMENT
__unwindtable$?share_buffering@kdu_codestream@@QAEXV1@@Z DD 0ffffffffH
	DD	FLAT:__unwindfunclet$?share_buffering@kdu_codestream@@QAEXV1@@Z$0
__ehfuncinfo$?share_buffering@kdu_codestream@@QAEXV1@@Z DD 019930522H
	DD	01H
	DD	FLAT:__unwindtable$?share_buffering@kdu_codestream@@QAEXV1@@Z
	DD	2 DUP(00H)
	DD	2 DUP(00H)
	DD	00H
	DD	01H
xdata$x	ENDS
;	COMDAT xdata$x
xdata$x	SEGMENT
__ehfuncinfo$?restart@kdu_codestream@@QAEXPAVkdu_compressed_source@@PAVkdu_thread_env@@@Z DD 019930522H
	DD	07H
	DD	FLAT:__unwindtable$?restart@kdu_codestream@@QAEXPAVkdu_compressed_source@@PAVkdu_thread_env@@@Z
	DD	2 DUP(00H)
	DD	2 DUP(00H)
	DD	00H
	DD	01H
__unwindtable$?restart@kdu_codestream@@QAEXPAVkdu_compressed_source@@PAVkdu_thread_env@@@Z DD 0ffffffffH
	DD	FLAT:__unwindfunclet$?restart@kdu_codestream@@QAEXPAVkdu_compressed_source@@PAVkdu_thread_env@@@Z$0
	DD	0ffffffffH
	DD	FLAT:__unwindfunclet$?restart@kdu_codestream@@QAEXPAVkdu_compressed_source@@PAVkdu_thread_env@@@Z$1
	DD	0ffffffffH
	DD	FLAT:__unwindfunclet$?restart@kdu_codestream@@QAEXPAVkdu_compressed_source@@PAVkdu_thread_env@@@Z$2
	DD	0ffffffffH
	DD	FLAT:__unwindfunclet$?restart@kdu_codestream@@QAEXPAVkdu_compressed_source@@PAVkdu_thread_env@@@Z$4
	DD	0ffffffffH
	DD	FLAT:__unwindfunclet$?restart@kdu_codestream@@QAEXPAVkdu_compressed_source@@PAVkdu_thread_env@@@Z$5
	DD	04H
	DD	FLAT:__unwindfunclet$?restart@kdu_codestream@@QAEXPAVkdu_compressed_source@@PAVkdu_thread_env@@@Z$6
	DD	04H
	DD	FLAT:__unwindfunclet$?restart@kdu_codestream@@QAEXPAVkdu_compressed_source@@PAVkdu_thread_env@@@Z$8
xdata$x	ENDS
;	COMDAT xdata$x
xdata$x	SEGMENT
__unwindtable$?restart@kdu_codestream@@QAEXPAVkdu_compressed_target@@@Z DD 0ffffffffH
	DD	FLAT:__unwindfunclet$?restart@kdu_codestream@@QAEXPAVkdu_compressed_target@@@Z$0
	DD	0ffffffffH
	DD	FLAT:__unwindfunclet$?restart@kdu_codestream@@QAEXPAVkdu_compressed_target@@@Z$1
__ehfuncinfo$?restart@kdu_codestream@@QAEXPAVkdu_compressed_target@@@Z DD 019930522H
	DD	02H
	DD	FLAT:__unwindtable$?restart@kdu_codestream@@QAEXPAVkdu_compressed_target@@@Z
	DD	2 DUP(00H)
	DD	2 DUP(00H)
	DD	00H
	DD	01H
xdata$x	ENDS
;	COMDAT xdata$x
xdata$x	SEGMENT
__unwindtable$?create@kdu_codestream@@QAEXPAVsiz_params@@@Z DD 0ffffffffH
	DD	FLAT:__unwindfunclet$?create@kdu_codestream@@QAEXPAVsiz_params@@@Z$1
__ehfuncinfo$?create@kdu_codestream@@QAEXPAVsiz_params@@@Z DD 019930522H
	DD	01H
	DD	FLAT:__unwindtable$?create@kdu_codestream@@QAEXPAVsiz_params@@@Z
	DD	2 DUP(00H)
	DD	2 DUP(00H)
	DD	00H
	DD	01H
xdata$x	ENDS
;	COMDAT xdata$x
xdata$x	SEGMENT
__unwindtable$?create@kdu_codestream@@QAEXPAVkdu_compressed_source@@PAVkdu_thread_env@@@Z DD 0ffffffffH
	DD	FLAT:__unwindfunclet$?create@kdu_codestream@@QAEXPAVkdu_compressed_source@@PAVkdu_thread_env@@@Z$1
	DD	0ffffffffH
	DD	FLAT:__unwindfunclet$?create@kdu_codestream@@QAEXPAVkdu_compressed_source@@PAVkdu_thread_env@@@Z$3
	DD	0ffffffffH
	DD	FLAT:__unwindfunclet$?create@kdu_codestream@@QAEXPAVkdu_compressed_source@@PAVkdu_thread_env@@@Z$4
	DD	0ffffffffH
	DD	FLAT:__unwindfunclet$?create@kdu_codestream@@QAEXPAVkdu_compressed_source@@PAVkdu_thread_env@@@Z$5
__ehfuncinfo$?create@kdu_codestream@@QAEXPAVkdu_compressed_source@@PAVkdu_thread_env@@@Z DD 019930522H
	DD	04H
	DD	FLAT:__unwindtable$?create@kdu_codestream@@QAEXPAVkdu_compressed_source@@PAVkdu_thread_env@@@Z
	DD	2 DUP(00H)
	DD	2 DUP(00H)
	DD	00H
	DD	01H
xdata$x	ENDS
;	COMDAT xdata$x
xdata$x	SEGMENT
__unwindtable$?create@kdu_codestream@@QAEXPAVsiz_params@@PAVkdu_compressed_target@@PAUkdu_dims@@H_J@Z DD 0ffffffffH
	DD	FLAT:__unwindfunclet$?create@kdu_codestream@@QAEXPAVsiz_params@@PAVkdu_compressed_target@@PAUkdu_dims@@H_J@Z$2
__ehfuncinfo$?create@kdu_codestream@@QAEXPAVsiz_params@@PAVkdu_compressed_target@@PAUkdu_dims@@H_J@Z DD 019930522H
	DD	01H
	DD	FLAT:__unwindtable$?create@kdu_codestream@@QAEXPAVsiz_params@@PAVkdu_compressed_target@@PAUkdu_dims@@H_J@Z
	DD	2 DUP(00H)
	DD	2 DUP(00H)
	DD	00H
	DD	01H
xdata$x	ENDS
;	COMDAT xdata$x
xdata$x	SEGMENT
__unwindtable$?put_text@kdu_codestream_comment@@QAE_NPBD@Z DD 0ffffffffH
	DD	FLAT:__unwindfunclet$?put_text@kdu_codestream_comment@@QAE_NPBD@Z$0
__ehfuncinfo$?put_text@kdu_codestream_comment@@QAE_NPBD@Z DD 019930522H
	DD	01H
	DD	FLAT:__unwindtable$?put_text@kdu_codestream_comment@@QAE_NPBD@Z
	DD	2 DUP(00H)
	DD	2 DUP(00H)
	DD	00H
	DD	01H
xdata$x	ENDS
;	COMDAT xdata$x
xdata$x	SEGMENT
__unwindtable$??_Gkdu_thread_entity@@UAEPAXI@Z DD 0ffffffffH
	DD	FLAT:__unwindfunclet$??_Gkdu_thread_entity@@UAEPAXI@Z$1
__ehfuncinfo$??_Gkdu_thread_entity@@UAEPAXI@Z DD 019930522H
	DD	01H
	DD	FLAT:__unwindtable$??_Gkdu_thread_entity@@UAEPAXI@Z
	DD	2 DUP(00H)
	DD	2 DUP(00H)
	DD	00H
	DD	05H
xdata$x	ENDS
;	COMDAT xdata$x
xdata$x	SEGMENT
__unwindtable$?new_instance@kdu_thread_entity@@UAEPAV1@XZ DD 0ffffffffH
	DD	FLAT:__unwindfunclet$?new_instance@kdu_thread_entity@@UAEPAV1@XZ$0
__ehfuncinfo$?new_instance@kdu_thread_entity@@UAEPAV1@XZ DD 019930522H
	DD	01H
	DD	FLAT:__unwindtable$?new_instance@kdu_thread_entity@@UAEPAV1@XZ
	DD	2 DUP(00H)
	DD	2 DUP(00H)
	DD	00H
	DD	01H
xdata$x	ENDS
;	COMDAT xdata$x
xdata$x	SEGMENT
__ehfuncinfo$??1kdu_thread_entity@@UAE@XZ DD 019930522H
	DD	00H
	DD	00H
	DD	2 DUP(00H)
	DD	2 DUP(00H)
	DD	00H
	DD	05H
xdata$x	ENDS
;	COMDAT xdata$x
xdata$x	SEGMENT
__ehfuncinfo$??1kdu_kernels@@QAE@XZ DD 019930522H
	DD	00H
	DD	00H
	DD	2 DUP(00H)
	DD	2 DUP(00H)
	DD	00H
	DD	05H
xdata$x	ENDS
; Function compile flags: /Ogtp
; File e:\study\jpeg2000\visually_lossless_jpeg2000\modifiedkakadu\coresys\compressed\codestream.cpp
;	COMDAT ?is_power_2@@YA_NH@Z
_TEXT	SEGMENT
_val$ = 8						; size = 4
?is_power_2@@YA_NH@Z PROC				; is_power_2, COMDAT

; 220  : {

	push	ebp
	mov	ebp, esp

; 221  :   for (; val > 1; val >>= 1)

	mov	eax, DWORD PTR _val$[ebp]
	cmp	eax, 1
	jle	SHORT $LN3@is_power_2
	npad	5
$LL4@is_power_2:

; 222  :     if (val & 1)

	test	al, 1
	jne	SHORT $LN8@is_power_2

; 221  :   for (; val > 1; val >>= 1)

	sar	eax, 1
	cmp	eax, 1
	jg	SHORT $LL4@is_power_2
$LN3@is_power_2:

; 224  :     return (val==1);

	xor	ecx, ecx
	cmp	eax, 1
	sete	al

; 225  : }

	pop	ebp
	ret	0
$LN8@is_power_2:

; 223  :       return false;

	xor	al, al

; 225  : }

	pop	ebp
	ret	0
?is_power_2@@YA_NH@Z ENDP				; is_power_2
_TEXT	ENDS
; Function compile flags: /Ogtp
; File e:\study\jpeg2000\visually_lossless_jpeg2000\modifiedkakadu\coresys\compressed\codestream.cpp
; File e:\study\jpeg2000\visually_lossless_jpeg2000\modifiedkakadu\coresys\common\kdu_messaging.h
; File e:\study\jpeg2000\visually_lossless_jpeg2000\modifiedkakadu\coresys\compressed\codestream.cpp
; File e:\study\jpeg2000\visually_lossless_jpeg2000\modifiedkakadu\coresys\common\kdu_messaging.h
; File e:\study\jpeg2000\visually_lossless_jpeg2000\modifiedkakadu\coresys\compressed\codestream.cpp
; File e:\study\jpeg2000\visually_lossless_jpeg2000\modifiedkakadu\coresys\common\kdu_messaging.h
; File e:\study\jpeg2000\visually_lossless_jpeg2000\modifiedkakadu\coresys\compressed\codestream.cpp
; File e:\study\jpeg2000\visually_lossless_jpeg2000\modifiedkakadu\coresys\common\kdu_messaging.h
; File e:\study\jpeg2000\visually_lossless_jpeg2000\modifiedkakadu\coresys\compressed\codestream.cpp
; File e:\study\jpeg2000\visually_lossless_jpeg2000\modifiedkakadu\coresys\common\kdu_kernels.h
; File e:\study\jpeg2000\visually_lossless_jpeg2000\modifiedkakadu\coresys\compressed\codestream.cpp
; File e:\study\jpeg2000\visually_lossless_jpeg2000\modifiedkakadu\coresys\common\kdu_kernels.h
; File e:\study\jpeg2000\visually_lossless_jpeg2000\modifiedkakadu\coresys\compressed\codestream.cpp
;	COMDAT ?kd_create_dwt_description@@YAXHHPAVkdu_params@@HAA_N11AAHAAPAUkdu_kernel_step_info@@AAPAM@Z
_TEXT	SEGMENT
_e$2 = -68						; size = 20
_e$3 = -48						; size = 20
_atk_ext$4 = -28					; size = 4
tv764 = -24						; size = 4
_Ls$5 = -20						; size = 4
_atk$1$ = -16						; size = 4
__$EHRec$ = -12						; size = 12
_s$2$ = 8						; size = 4
$T6 = 8							; size = 4
$T7 = 8							; size = 4
_kernel_id$ = 8						; size = 4
_atk_idx$ = 12						; size = 4
_root$ = 16						; size = 4
_tnum$ = 20						; size = 4
_reversible$ = 24					; size = 4
_symmetric$ = 28					; size = 4
_symmetric_extension$ = 32				; size = 4
_num_steps$ = 36					; size = 4
_step_info$ = 40					; size = 4
$T8 = 44						; size = 4
$T9 = 44						; size = 4
_coefficients$ = 44					; size = 4
?kd_create_dwt_description@@YAXHHPAVkdu_params@@HAA_N11AAHAAPAUkdu_kernel_step_info@@AAPAM@Z PROC ; kd_create_dwt_description, COMDAT

; 122  : {

	push	ebp
	mov	ebp, esp
	push	-1
	push	__ehhandler$?kd_create_dwt_description@@YAXHHPAVkdu_params@@HAA_N11AAHAAPAUkdu_kernel_step_info@@AAPAM@Z
	mov	eax, DWORD PTR fs:0
	push	eax
	sub	esp, 56					; 00000038H
	push	ebx
	push	esi
	push	edi
	mov	eax, DWORD PTR ___security_cookie
	xor	eax, ebp
	push	eax
	lea	eax, DWORD PTR __$EHRec$[ebp]
	mov	DWORD PTR fs:0, eax

; 123  :   step_info = NULL;

	mov	ecx, DWORD PTR _step_info$[ebp]

; 124  :   coefficients = NULL;

	mov	ebx, DWORD PTR _coefficients$[ebp]

; 125  :   num_steps = 0;

	mov	esi, DWORD PTR _num_steps$[ebp]

; 126  : 
; 127  :   if (kernel_id == Ckernels_ATK)

	mov	edx, DWORD PTR _kernel_id$[ebp]
	mov	DWORD PTR [ecx], 0
	mov	DWORD PTR [ebx], 0
	mov	DWORD PTR [esi], 0
	cmp	edx, -1
	jne	$LN14@kd_create_

; 128  :     { // Read kernel parameters from ATK data
; 129  :       kdu_params *atk = root->access_cluster(ATK_params);

	mov	ecx, DWORD PTR _root$[ebp]
	push	OFFSET ??_C@_03IFCLAPBJ@ATK?$AA@
	call	?access_cluster@kdu_params@@QAEPAV1@PBD@Z ; kdu_params::access_cluster
	mov	ebx, eax
	mov	DWORD PTR _atk$1$[ebp], eax

; 130  :       if ((atk == NULL) ||

	test	ebx, ebx
	je	SHORT $LN17@kd_create_
	push	1
	push	DWORD PTR _atk_idx$[ebp]
	mov	ecx, ebx
	push	-1
	push	DWORD PTR _tnum$[ebp]
	call	?access_relation@kdu_params@@QAEPAV1@HHH_N@Z ; kdu_params::access_relation
	mov	ebx, eax
	mov	DWORD PTR _atk$1$[ebp], ebx
	test	ebx, ebx
	jne	SHORT $LN16@kd_create_
$LN17@kd_create_:

; 132  :         { KDU_ERROR(e,0x22050500); e <<

	push	OFFSET ??_C@_0BE@KMIJLGEL@Kakadu?5Core?5Error?3?6?$AA@
	lea	ecx, DWORD PTR _e$3[ebp]
	call	??0kdu_error@@QAE@PBD@Z			; kdu_error::kdu_error
; File e:\study\jpeg2000\visually_lossless_jpeg2000\modifiedkakadu\coresys\common\kdu_messaging.h

; 257  :       { put_text(string); return *this; }

	mov	eax, DWORD PTR _e$3[ebp]
	lea	ecx, DWORD PTR _e$3[ebp]
	push	OFFSET ??_C@_0FL@HPBHAILG@Unable?5to?5find?5ATK?5marker?5segmen@
; File e:\study\jpeg2000\visually_lossless_jpeg2000\modifiedkakadu\coresys\compressed\codestream.cpp

; 132  :         { KDU_ERROR(e,0x22050500); e <<

	mov	DWORD PTR __$EHRec$[ebp+8], 0
; File e:\study\jpeg2000\visually_lossless_jpeg2000\modifiedkakadu\coresys\common\kdu_messaging.h

; 257  :       { put_text(string); return *this; }

	call	DWORD PTR [eax+8]
; File e:\study\jpeg2000\visually_lossless_jpeg2000\modifiedkakadu\coresys\compressed\codestream.cpp

; 135  :         }

	lea	ecx, DWORD PTR _e$3[ebp]
	mov	DWORD PTR __$EHRec$[ebp+8], -1
	call	??1kdu_error@@UAE@XZ			; kdu_error::~kdu_error
$LN16@kd_create_:

; 136  :       int atk_ext;
; 137  :       if (!(atk->get(Ksymmetric,0,0,symmetric) &&

	push	1
	push	1
	push	1
	push	DWORD PTR _symmetric$[ebp]
	mov	ecx, ebx
	push	0
	push	0
	push	OFFSET ??_C@_0L@BNGLHLNI@Ksymmetric?$AA@
	call	?get@kdu_params@@QAE_NPBDHHAA_N_N22@Z	; kdu_params::get
	test	al, al
	je	SHORT $LN19@kd_create_
	push	1
	push	1
	push	1
	lea	eax, DWORD PTR _atk_ext$4[ebp]
	mov	ecx, ebx
	push	eax
	push	0
	push	0
	push	OFFSET ??_C@_0L@JOGHAEOB@Kextension?$AA@
	call	?get@kdu_params@@QAE_NPBDHHAAH_N22@Z	; kdu_params::get
	test	al, al
	je	SHORT $LN19@kd_create_
	push	1
	push	1
	push	1
	push	DWORD PTR _reversible$[ebp]
	mov	ecx, ebx
	push	0
	push	0
	push	OFFSET ??_C@_0M@OFOCCDJH@Kreversible?$AA@
	call	?get@kdu_params@@QAE_NPBDHHAA_N_N22@Z	; kdu_params::get
$LN19@kd_create_:

; 138  :             atk->get(Kextension,0,0,atk_ext) &&
; 139  :             atk->get(Kreversible,0,0,reversible)))
; 140  :         assert(0);
; 141  :       symmetric_extension = (atk_ext == Kextension_SYM);

	cmp	DWORD PTR _atk_ext$4[ebp], 1
	mov	eax, DWORD PTR _symmetric_extension$[ebp]

; 142  : 
; 143  :       int c, n, s, Ls, num_coeffs=0;
; 144  :       for (s=0; atk->get(Ksteps,s,0,Ls); s++)

	push	1
	sete	cl
	xor	edi, edi
	push	1
	push	1
	mov	BYTE PTR [eax], cl
	xor	esi, esi
	lea	eax, DWORD PTR _Ls$5[ebp]
	mov	ecx, ebx
	push	eax
	push	esi
	push	esi
	push	OFFSET ??_C@_06PJGAHNDG@Ksteps?$AA@
	call	?get@kdu_params@@QAE_NPBDHHAAH_N22@Z	; kdu_params::get
	test	al, al
	je	SHORT $LN3@kd_create_
$LL4@kd_create_:

; 145  :         {
; 146  :           num_coeffs += Ls;

	add	edi, DWORD PTR _Ls$5[ebp]

; 147  :           if (num_coeffs > 16384)

	cmp	edi, 16384				; 00004000H
	jle	SHORT $LN2@kd_create_

; 148  :             { KDU_ERROR(e,0x06110800); e <<

	push	OFFSET ??_C@_0BE@KMIJLGEL@Kakadu?5Core?5Error?3?6?$AA@
	lea	ecx, DWORD PTR _e$2[ebp]
	call	??0kdu_error@@QAE@PBD@Z			; kdu_error::kdu_error
; File e:\study\jpeg2000\visually_lossless_jpeg2000\modifiedkakadu\coresys\common\kdu_messaging.h

; 257  :       { put_text(string); return *this; }

	mov	eax, DWORD PTR _e$2[ebp]
	lea	ecx, DWORD PTR _e$2[ebp]
	push	OFFSET ??_C@_0GE@PPANCHNM@Custom?5DWT?5kernel?5found?5in?5ATK?5m@
; File e:\study\jpeg2000\visually_lossless_jpeg2000\modifiedkakadu\coresys\compressed\codestream.cpp

; 148  :             { KDU_ERROR(e,0x06110800); e <<

	mov	DWORD PTR __$EHRec$[ebp+8], 1
; File e:\study\jpeg2000\visually_lossless_jpeg2000\modifiedkakadu\coresys\common\kdu_messaging.h

; 257  :       { put_text(string); return *this; }

	call	DWORD PTR [eax+8]
; File e:\study\jpeg2000\visually_lossless_jpeg2000\modifiedkakadu\coresys\compressed\codestream.cpp

; 152  :             }

	lea	ecx, DWORD PTR _e$2[ebp]
	mov	DWORD PTR __$EHRec$[ebp+8], -1
	call	??1kdu_error@@UAE@XZ			; kdu_error::~kdu_error
$LN2@kd_create_:

; 142  : 
; 143  :       int c, n, s, Ls, num_coeffs=0;
; 144  :       for (s=0; atk->get(Ksteps,s,0,Ls); s++)

	push	1
	push	1
	push	1
	lea	eax, DWORD PTR _Ls$5[ebp]
	inc	esi
	push	eax
	push	0
	push	esi
	push	OFFSET ??_C@_06PJGAHNDG@Ksteps?$AA@
	mov	ecx, ebx
	call	?get@kdu_params@@QAE_NPBDHHAAH_N22@Z	; kdu_params::get
	test	al, al
	jne	SHORT $LL4@kd_create_
$LN3@kd_create_:
	mov	eax, DWORD PTR _num_steps$[ebp]

; 155  :       step_info = new kdu_kernel_step_info[num_steps];

	xor	ecx, ecx
	mov	edx, 16					; 00000010H
	mov	DWORD PTR [eax], esi
	mov	eax, esi
	mul	edx
	seto	cl
	neg	ecx
	or	ecx, eax
	push	ecx
	call	??_U@YAPAXI@Z				; operator new[]
	mov	edx, eax
	add	esp, 4
	mov	DWORD PTR $T7[ebp], edx
	test	edx, edx
	je	SHORT $LN28@kd_create_
	test	esi, esi
	je	SHORT $LN29@kd_create_
	lea	ecx, DWORD PTR [edx+12]
	npad	6
$LL44@kd_create_:
; File e:\study\jpeg2000\visually_lossless_jpeg2000\modifiedkakadu\coresys\common\kdu_kernels.h

; 101  :       { support_length = support_min = 0;  downshift = rounding_offset = 0; }

	mov	DWORD PTR [ecx-8], 0
	lea	ecx, DWORD PTR [ecx+16]
	mov	DWORD PTR [ecx-28], 0
	mov	DWORD PTR [ecx-16], 0
	mov	DWORD PTR [ecx-20], 0
	sub	esi, 1
	jne	SHORT $LL44@kd_create_
; File e:\study\jpeg2000\visually_lossless_jpeg2000\modifiedkakadu\coresys\compressed\codestream.cpp

; 155  :       step_info = new kdu_kernel_step_info[num_steps];

	jmp	SHORT $LN29@kd_create_
$LN28@kd_create_:
	xor	edx, edx
$LN29@kd_create_:
	mov	eax, DWORD PTR _step_info$[ebp]

; 156  :       coefficients = new float[num_coeffs];

	xor	ecx, ecx
	mov	DWORD PTR [eax], edx
	mov	eax, edi
	mov	edx, 4
	mul	edx
	seto	cl
	neg	ecx
	or	ecx, eax
	push	ecx
	call	??_U@YAPAXI@Z				; operator new[]
	mov	ecx, DWORD PTR _coefficients$[ebp]
	add	esp, 4

; 157  :       for (c=s=0; s < num_steps; s++)

	xor	esi, esi
	mov	DWORD PTR [ecx], eax
	xor	eax, eax
	mov	ecx, DWORD PTR _num_steps$[ebp]
	mov	DWORD PTR _s$2$[ebp], eax
	cmp	DWORD PTR [ecx], eax
	jle	$LN12@kd_create_

; 155  :       step_info = new kdu_kernel_step_info[num_steps];

	xor	ecx, ecx
	mov	DWORD PTR tv764[ebp], ecx
$LL7@kd_create_:

; 157  :       for (c=s=0; s < num_steps; s++)

	mov	edx, DWORD PTR _step_info$[ebp]

; 158  :         {
; 159  :           kdu_kernel_step_info *sp = step_info + s;
; 160  :           if (!(atk->get(Ksteps,s,0,sp->support_length) &&

	push	1
	push	1
	push	1
	mov	edi, DWORD PTR [edx]
	add	edi, ecx
	mov	ecx, ebx
	push	edi
	push	0
	push	eax
	push	OFFSET ??_C@_06PJGAHNDG@Ksteps?$AA@
	call	?get@kdu_params@@QAE_NPBDHHAAH_N22@Z	; kdu_params::get
	test	al, al
	je	SHORT $LN22@kd_create_
	push	1
	push	1
	push	1
	lea	eax, DWORD PTR [edi+4]
	mov	ecx, ebx
	push	eax
	push	1
	push	DWORD PTR _s$2$[ebp]
	push	OFFSET ??_C@_06PJGAHNDG@Ksteps?$AA@
	call	?get@kdu_params@@QAE_NPBDHHAAH_N22@Z	; kdu_params::get
	test	al, al
	je	SHORT $LN22@kd_create_
	push	1
	push	1
	push	1
	lea	eax, DWORD PTR [edi+8]
	mov	ecx, ebx
	push	eax
	push	2
	push	DWORD PTR _s$2$[ebp]
	push	OFFSET ??_C@_06PJGAHNDG@Ksteps?$AA@
	call	?get@kdu_params@@QAE_NPBDHHAAH_N22@Z	; kdu_params::get
	test	al, al
	je	SHORT $LN22@kd_create_
	push	1
	push	1
	push	1
	lea	eax, DWORD PTR [edi+12]
	mov	ecx, ebx
	push	eax
	push	3
	push	DWORD PTR _s$2$[ebp]
	push	OFFSET ??_C@_06PJGAHNDG@Ksteps?$AA@
	call	?get@kdu_params@@QAE_NPBDHHAAH_N22@Z	; kdu_params::get
$LN22@kd_create_:

; 161  :                 atk->get(Ksteps,s,1,sp->support_min) &&
; 162  :                 atk->get(Ksteps,s,2,sp->downshift) &&
; 163  :                 atk->get(Ksteps,s,3,sp->rounding_offset)))
; 164  :             assert(0);
; 165  :           for (n=0; n < sp->support_length; n++, c++)

	xor	ebx, ebx
	cmp	DWORD PTR [edi], ebx
	jle	SHORT $LN5@kd_create_
$LL10@kd_create_:
	mov	eax, DWORD PTR _coefficients$[ebp]

; 166  :             atk->get(Kcoeffs,c,0,coefficients[c]);

	mov	ecx, DWORD PTR _atk$1$[ebp]
	push	1
	push	1
	mov	eax, DWORD PTR [eax]
	push	1
	lea	eax, DWORD PTR [eax+esi*4]
	push	eax
	push	0
	push	esi
	push	OFFSET ??_C@_07KKABNIJP@Kcoeffs?$AA@
	call	?get@kdu_params@@QAE_NPBDHHAAM_N22@Z	; kdu_params::get
	inc	ebx
	inc	esi
	cmp	ebx, DWORD PTR [edi]
	jl	SHORT $LL10@kd_create_
$LN5@kd_create_:

; 157  :       for (c=s=0; s < num_steps; s++)

	mov	eax, DWORD PTR _s$2$[ebp]
	mov	edx, DWORD PTR _num_steps$[ebp]
	inc	eax
	mov	ecx, DWORD PTR tv764[ebp]
	mov	ebx, DWORD PTR _atk$1$[ebp]
	add	ecx, 16					; 00000010H
	mov	DWORD PTR _s$2$[ebp], eax
	mov	DWORD PTR tv764[ebp], ecx
	cmp	eax, DWORD PTR [edx]
	jl	$LL7@kd_create_

; 204  :             -((step_info[n].support_length + (n & 1) - 1) >> 1);
; 205  :         }
; 206  :     }
; 207  : }

	mov	ecx, DWORD PTR __$EHRec$[ebp]
	mov	DWORD PTR fs:0, ecx
	pop	ecx
	pop	edi
	pop	esi
	pop	ebx
	mov	esp, ebp
	pop	ebp
	ret	0
$LN14@kd_create_:

; 167  :         }
; 168  :       assert(c == num_coeffs);
; 169  :     }
; 170  :   else
; 171  :     { // Fill in description for Part-1 standard kernels
; 172  :       symmetric = true;

	mov	eax, DWORD PTR _symmetric$[ebp]
	mov	BYTE PTR [eax], 1

; 173  :       symmetric_extension = true;

	mov	eax, DWORD PTR _symmetric_extension$[ebp]
	mov	BYTE PTR [eax], 1

; 174  :       if (kernel_id == Ckernels_W5X3)

	cmp	edx, 1
	jne	$LN23@kd_create_

; 175  :         {
; 176  :           reversible = true;

	mov	eax, DWORD PTR _reversible$[ebp]

; 178  :           step_info = new kdu_kernel_step_info[num_steps];

	xor	ecx, ecx
	mov	BYTE PTR [eax], dl
	mov	eax, 2
	mov	edx, 16					; 00000010H
	mov	DWORD PTR [esi], 2
	mul	edx
	seto	cl
	neg	ecx
	or	ecx, eax
	push	ecx
	call	??_U@YAPAXI@Z				; operator new[]
	add	esp, 4
	mov	DWORD PTR $T9[ebp], eax
	test	eax, eax
	je	SHORT $LN30@kd_create_
; File e:\study\jpeg2000\visually_lossless_jpeg2000\modifiedkakadu\coresys\common\kdu_kernels.h

; 101  :       { support_length = support_min = 0;  downshift = rounding_offset = 0; }

	mov	DWORD PTR [eax+4], 0
	mov	DWORD PTR [eax], 0
	mov	DWORD PTR [eax+12], 0
	mov	DWORD PTR [eax+8], 0
	mov	DWORD PTR [eax+20], 0
	mov	DWORD PTR [eax+16], 0
	mov	DWORD PTR [eax+28], 0
	mov	DWORD PTR [eax+24], 0
; File e:\study\jpeg2000\visually_lossless_jpeg2000\modifiedkakadu\coresys\compressed\codestream.cpp

; 178  :           step_info = new kdu_kernel_step_info[num_steps];

	jmp	SHORT $LN31@kd_create_
$LN30@kd_create_:
	xor	eax, eax
$LN31@kd_create_:
	mov	ecx, DWORD PTR _step_info$[ebp]

; 179  :           coefficients = new float[2*num_steps];

	mov	edx, 4
	mov	DWORD PTR [ecx], eax
	xor	ecx, ecx
	mov	eax, DWORD PTR [esi]
	add	eax, eax
	mul	edx
	seto	cl
	neg	ecx
	or	ecx, eax
	push	ecx
	call	??_U@YAPAXI@Z				; operator new[]

; 180  :           coefficients[0] = coefficients[1] = -0.5F;
; 181  :           coefficients[2] = coefficients[3] = 0.25F;
; 182  :           step_info[0].downshift = 1;

	mov	ecx, DWORD PTR _step_info$[ebp]
	mov	DWORD PTR [ebx], eax
	mov	DWORD PTR [eax+4], -1090519040		; bf000000H
	mov	DWORD PTR [eax], -1090519040		; bf000000H
	mov	DWORD PTR [eax+12], 1048576000		; 3e800000H
	mov	DWORD PTR [eax+8], 1048576000		; 3e800000H
	mov	eax, DWORD PTR [ecx]
	mov	DWORD PTR [eax+8], 1

; 183  :           step_info[1].downshift = 2;

	mov	eax, DWORD PTR [ecx]
	mov	DWORD PTR [eax+24], 2

; 184  :           step_info[0].rounding_offset = 1;

	mov	eax, DWORD PTR [ecx]
	mov	DWORD PTR [eax+12], 1

; 185  :           step_info[1].rounding_offset = 2;

	mov	eax, DWORD PTR [ecx]
	mov	DWORD PTR [eax+28], 2
	jmp	$LN84@kd_create_
$LN23@kd_create_:

; 186  :         }
; 187  :       else if (kernel_id == Ckernels_W9X7)

	test	edx, edx
	jne	$LN25@kd_create_

; 188  :         {
; 189  :           reversible = false;

	mov	eax, DWORD PTR _reversible$[ebp]

; 190  :           num_steps = 4;
; 191  :           step_info = new kdu_kernel_step_info[num_steps];

	xor	ecx, ecx
	mov	DWORD PTR $T8[ebp], 4
	mov	BYTE PTR [eax], dl
	mov	eax, 4
	mov	edx, 16					; 00000010H
	mov	DWORD PTR [esi], 4
	mul	edx
	seto	cl
	neg	ecx
	or	ecx, eax
	push	ecx
	call	??_U@YAPAXI@Z				; operator new[]
	mov	edi, eax
	add	esp, 4
	mov	DWORD PTR $T6[ebp], edi
	mov	DWORD PTR __$EHRec$[ebp+8], 2
	test	edi, edi
	je	SHORT $LN32@kd_create_
	push	OFFSET ??0kdu_kernel_step_info@@QAE@XZ	; kdu_kernel_step_info::kdu_kernel_step_info
	push	4
	push	16					; 00000010H
	push	edi
	call	??_H@YGXPAXIIP6EPAX0@Z@Z
	jmp	SHORT $LN33@kd_create_
$LN32@kd_create_:
	xor	edi, edi
$LN33@kd_create_:
	mov	eax, DWORD PTR _step_info$[ebp]

; 192  :           coefficients = new float[2*num_steps];

	xor	ecx, ecx
	mov	edx, 4
	mov	DWORD PTR __$EHRec$[ebp+8], -1
	mov	DWORD PTR [eax], edi
	mov	eax, DWORD PTR [esi]
	add	eax, eax
	mul	edx
	seto	cl
	neg	ecx
	or	ecx, eax
	push	ecx
	call	??_U@YAPAXI@Z				; operator new[]
	mov	ecx, DWORD PTR _step_info$[ebp]
	mov	DWORD PTR [ebx], eax

; 193  :           coefficients[0] = coefficients[1] = (float) -1.586134342;

	mov	DWORD PTR [eax+4], -1077213581		; bfcb0673H
	mov	DWORD PTR [eax], -1077213581		; bfcb0673H

; 194  :           coefficients[2] = coefficients[3] = (float) -0.052980118;

	mov	DWORD PTR [eax+12], -1118240338		; bd5901aeH
	mov	DWORD PTR [eax+8], -1118240338		; bd5901aeH

; 195  :           coefficients[4] = coefficients[5] = (float)  0.882911075;

	mov	DWORD PTR [eax+20], 1063388790		; 3f620676H
	mov	DWORD PTR [eax+16], 1063388790		; 3f620676H

; 196  :           coefficients[6] = coefficients[7] = (float)  0.443506852;

	mov	DWORD PTR [eax+28], 1055069013		; 3ee31355H
	mov	DWORD PTR [eax+24], 1055069013		; 3ee31355H
$LN84@kd_create_:

; 192  :           coefficients = new float[2*num_steps];

	add	esp, 4
$LN25@kd_create_:

; 197  :         }
; 198  :       else
; 199  :         assert(0);
; 200  :       for (int n=0; n < num_steps; n++)

	xor	edi, edi
	cmp	DWORD PTR [esi], edi
	jle	SHORT $LN12@kd_create_
	xor	esi, esi
	npad	7
$LL13@kd_create_:

; 201  :         {
; 202  :           step_info[n].support_length = 2;

	mov	eax, DWORD PTR [ecx]
	lea	esi, DWORD PTR [esi+16]
	mov	DWORD PTR [esi+eax-16], 2

; 203  :           step_info[n].support_min =

	mov	edx, DWORD PTR [ecx]
	mov	ecx, edi
	and	ecx, 1
	inc	edi
	dec	ecx
	mov	eax, DWORD PTR [esi+edx-16]
	add	eax, ecx
	mov	ecx, DWORD PTR _step_info$[ebp]
	sar	eax, 1
	neg	eax
	mov	DWORD PTR [esi+edx-12], eax
	mov	eax, DWORD PTR _num_steps$[ebp]
	cmp	edi, DWORD PTR [eax]
	jl	SHORT $LL13@kd_create_
$LN12@kd_create_:

; 204  :             -((step_info[n].support_length + (n & 1) - 1) >> 1);
; 205  :         }
; 206  :     }
; 207  : }

	mov	ecx, DWORD PTR __$EHRec$[ebp]
	mov	DWORD PTR fs:0, ecx
	pop	ecx
	pop	edi
	pop	esi
	pop	ebx
	mov	esp, ebp
	pop	ebp
	ret	0
_TEXT	ENDS
;	COMDAT text$x
text$x	SEGMENT
__unwindfunclet$?kd_create_dwt_description@@YAXHHPAVkdu_params@@HAA_N11AAHAAPAUkdu_kernel_step_info@@AAPAM@Z$0:
	lea	ecx, DWORD PTR _e$3[ebp]
	jmp	??1kdu_error@@UAE@XZ			; kdu_error::~kdu_error
__unwindfunclet$?kd_create_dwt_description@@YAXHHPAVkdu_params@@HAA_N11AAHAAPAUkdu_kernel_step_info@@AAPAM@Z$1:
	lea	ecx, DWORD PTR _e$2[ebp]
	jmp	??1kdu_error@@UAE@XZ			; kdu_error::~kdu_error
__unwindfunclet$?kd_create_dwt_description@@YAXHHPAVkdu_params@@HAA_N11AAHAAPAUkdu_kernel_step_info@@AAPAM@Z$4:
	xor	ebx, ebx
	mov	eax, DWORD PTR $T8[ebp]
	mov	ecx, 16					; 00000010H
	mul	ecx
	seto	bl
	neg	ebx
	or	ebx, eax
	push	ebx
	mov	eax, DWORD PTR $T6[ebp]
	push	eax
	call	??_V@YAXPAXI@Z				; operator delete[]
	add	esp, 8
	ret	0
__ehhandler$?kd_create_dwt_description@@YAXHHPAVkdu_params@@HAA_N11AAHAAPAUkdu_kernel_step_info@@AAPAM@Z:
	mov	edx, DWORD PTR [esp+8]
	lea	eax, DWORD PTR [edx+12]
	mov	ecx, DWORD PTR [edx-72]
	xor	ecx, eax
	call	@__security_check_cookie@4
	mov	eax, OFFSET __ehfuncinfo$?kd_create_dwt_description@@YAXHHPAVkdu_params@@HAA_N11AAHAAPAUkdu_kernel_step_info@@AAPAM@Z
	jmp	___CxxFrameHandler3
text$x	ENDS
?kd_create_dwt_description@@YAXHHPAVkdu_params@@HAA_N11AAHAAPAUkdu_kernel_step_info@@AAPAM@Z ENDP ; kd_create_dwt_description
; Function compile flags: /Ogtp
;	COMDAT ??_Gkd_thread_env@@QAEPAXI@Z
_TEXT	SEGMENT
___flags$ = 8						; size = 4
??_Gkd_thread_env@@QAEPAXI@Z PROC			; kd_thread_env::`scalar deleting destructor', COMDAT
; _this$ = ecx
	push	ebp
	mov	ebp, esp
	push	esi
	mov	esi, ecx
	lea	ecx, DWORD PTR [esi+136]
	call	??1kdu_block@@AAE@XZ			; kdu_block::~kdu_block
	test	BYTE PTR ___flags$[ebp], 1
	je	SHORT $LN7@scalar
	push	33560					; 00008318H
	push	esi
	call	??3@YAXPAXI@Z				; operator delete
	add	esp, 8
$LN7@scalar:
	mov	eax, esi
	pop	esi
	pop	ebp
	ret	4
??_Gkd_thread_env@@QAEPAXI@Z ENDP			; kd_thread_env::`scalar deleting destructor'
_TEXT	ENDS
; Function compile flags: /Ogtp
;	COMDAT ??1kd_thread_env@@QAE@XZ
_TEXT	SEGMENT
??1kd_thread_env@@QAE@XZ PROC				; kd_thread_env::~kd_thread_env, COMDAT
; _this$ = ecx
	add	ecx, 136				; 00000088H
	jmp	??1kdu_block@@AAE@XZ			; kdu_block::~kdu_block
??1kd_thread_env@@QAE@XZ ENDP				; kd_thread_env::~kd_thread_env
_TEXT	ENDS
; Function compile flags: /Ogtp
; File e:\study\jpeg2000\visually_lossless_jpeg2000\modifiedkakadu\coresys\compressed\codestream.cpp
; File e:\study\jpeg2000\visually_lossless_jpeg2000\modifiedkakadu\coresys\compressed\compressed_local.h
; File e:\study\jpeg2000\visually_lossless_jpeg2000\modifiedkakadu\coresys\compressed\codestream.cpp
; File e:\study\jpeg2000\visually_lossless_jpeg2000\modifiedkakadu\coresys\common\kdu_threads.h
; File e:\study\jpeg2000\visually_lossless_jpeg2000\modifiedkakadu\coresys\common\kdu_elementary.h
; File e:\study\jpeg2000\visually_lossless_jpeg2000\modifiedkakadu\coresys\common\kdu_threads.h
; File e:\study\jpeg2000\visually_lossless_jpeg2000\modifiedkakadu\coresys\compressed\codestream.cpp
; File e:\study\jpeg2000\visually_lossless_jpeg2000\modifiedkakadu\coresys\compressed\compressed_local.h
; File e:\study\jpeg2000\visually_lossless_jpeg2000\modifiedkakadu\coresys\compressed\codestream.cpp
; File e:\study\jpeg2000\visually_lossless_jpeg2000\modifiedkakadu\coresys\compressed\compressed_local.h
; File e:\study\jpeg2000\visually_lossless_jpeg2000\modifiedkakadu\coresys\compressed\codestream.cpp
; File e:\study\jpeg2000\visually_lossless_jpeg2000\modifiedkakadu\coresys\compressed\compressed_local.h
; File e:\study\jpeg2000\visually_lossless_jpeg2000\modifiedkakadu\coresys\compressed\codestream.cpp
; File e:\study\jpeg2000\visually_lossless_jpeg2000\modifiedkakadu\coresys\compressed\compressed_local.h
; File e:\study\jpeg2000\visually_lossless_jpeg2000\modifiedkakadu\coresys\common\kdu_threads.h
; File e:\study\jpeg2000\visually_lossless_jpeg2000\modifiedkakadu\coresys\common\kdu_elementary.h
; File e:\study\jpeg2000\visually_lossless_jpeg2000\modifiedkakadu\coresys\compressed\codestream.cpp
;	COMDAT ?discard_all@kd_thread_env@@QAEXXZ
_TEXT	SEGMENT
_this$1$ = -4						; size = 4
?discard_all@kd_thread_env@@QAEXXZ PROC			; kd_thread_env::discard_all, COMDAT
; _this$ = ecx

; 2256 : {

	push	ebp
	mov	ebp, esp
	push	ecx
	push	ebx
	mov	ebx, ecx
	mov	DWORD PTR _this$1$[ebp], ebx

; 2257 :   if ((num_outstanding_blocks > 0) || buf_server.is_attached())

	cmp	DWORD PTR [ebx+33168], 0
	jg	SHORT $LN6@discard_al
; File e:\study\jpeg2000\visually_lossless_jpeg2000\modifiedkakadu\coresys\compressed\compressed_local.h

; 353  :     bool is_attached() { return (ultimate_buf_server != NULL); }

	cmp	DWORD PTR [ebx+33156], 0
; File e:\study\jpeg2000\visually_lossless_jpeg2000\modifiedkakadu\coresys\compressed\codestream.cpp

; 2257 :   if ((num_outstanding_blocks > 0) || buf_server.is_attached())

	je	$LN35@discard_al
$LN6@discard_al:
	push	esi

; 2258 :     {
; 2259 :       int n;
; 2260 :       kd_thread_block_state *scan;
; 2261 :       owner->acquire_lock(KD_THREADLOCK_GENERAL,false);

	mov	esi, DWORD PTR [ebx+128]
	push	edi
; File e:\study\jpeg2000\visually_lossless_jpeg2000\modifiedkakadu\coresys\common\kdu_threads.h

; 1024 :       { kd_thread_lock *lock = locks + lock_id;

	mov	edi, DWORD PTR [esi+28]
; File e:\study\jpeg2000\visually_lossless_jpeg2000\modifiedkakadu\coresys\common\kdu_elementary.h

; 534  :           return ((mutex != NULL) &&

	mov	eax, DWORD PTR [edi]
	test	eax, eax
	je	SHORT $LN17@discard_al
	push	-1
	push	eax
	call	DWORD PTR __imp__WaitForSingleObject@8
$LN17@discard_al:
; File e:\study\jpeg2000\visually_lossless_jpeg2000\modifiedkakadu\coresys\common\kdu_threads.h

; 1027 :         lock->mutex.lock(); lock->holder = this; }

	mov	DWORD PTR [edi+4], esi
; File e:\study\jpeg2000\visually_lossless_jpeg2000\modifiedkakadu\coresys\compressed\codestream.cpp

; 2262 :       for (scan=outstanding_blocks,

	lea	esi, DWORD PTR [ebx+33172]

; 2263 :            n=KD_THREAD_MAX_OUTSTANDING_BLOCKS; n > 0; n--, scan++)

	mov	edi, 8
$LL4@discard_al:

; 2264 :         {
; 2265 :           if (scan->target_precinct == NULL)

	mov	eax, DWORD PTR [esi+24]
	test	eax, eax
	je	SHORT $LN2@discard_al

; 2266 :             continue;
; 2267 :           kd_codestream *cs = scan->target_precinct->resolution->codestream;

	mov	eax, DWORD PTR [eax]
	mov	eax, DWORD PTR [eax]

; 2268 :           scan->target_precinct = NULL;

	mov	DWORD PTR [esi+24], 0

; 2269 :           scan->target_block = NULL;

	mov	DWORD PTR [esi+28], 0

; 2270 :           scan->block.cleanup(cs->buf_server);

	mov	ebx, DWORD PTR [eax+24]
; File e:\study\jpeg2000\visually_lossless_jpeg2000\modifiedkakadu\coresys\compressed\compressed_local.h

; 3609 :         while ((current_buf=first_buf) != NULL)

	mov	eax, DWORD PTR [esi]
	mov	DWORD PTR [esi+4], eax
	test	eax, eax
	je	SHORT $LN22@discard_al
	npad	3
$LL21@discard_al:

; 3610 :           { first_buf=current_buf->next;  buf_server->release(current_buf); }

	mov	ecx, DWORD PTR [esi+4]
	push	ecx
	mov	eax, DWORD PTR [ecx]
	mov	ecx, ebx
	mov	DWORD PTR [esi], eax
	call	?release@kd_buf_server@@QAEXPAUkd_code_buffer@@@Z ; kd_buf_server::release
	mov	eax, DWORD PTR [esi]
	mov	DWORD PTR [esi+4], eax
	test	eax, eax
	jne	SHORT $LL21@discard_al
$LN22@discard_al:

; 3611 :         set_discard(); // Discard from any packets parsed in the future
; 3612 :       }
; 3613 :     kd_code_buffer *cleanup()
; 3614 :       { // As above, but returns the linked list of buffers
; 3615 :         kd_code_buffer *result = first_buf;  first_buf = current_buf = NULL;
; 3616 :         set_discard();
; 3617 :         return result;
; 3618 :       }
; 3619 : 
; 3620 :   // --------------------------------------------------------------------------
; 3621 :   public: // Packet manipulation member functions
; 3622 :     int parse_packet_header(kd_header_in &head, kd_buf_server *buf_server,
; 3623 :                             int layer_idx); // Throws (kdu_uint16 code)
; 3624 :       /* Parses bits in the packet header corresponding to the current
; 3625 :          block for the current layer (this must be the next layer for which
; 3626 :          information has not yet been parsed).  The function returns the
; 3627 :          number of new body bytes contributed by the code-block in this layer
; 3628 :          and also stores this value internally to be used in subsequent calls
; 3629 :          to the `read_body_bytes' member function.
; 3630 :             The `kd_header_in' object may throw an exception if the packet
; 3631 :          data terminates unexpectedly.  Moreover, to assist in locating and
; 3632 :          possibly recovering from errors, the present function may throw a
; 3633 :          16-bit unsigned integer exception code, which is either the value of
; 3634 :          an illegal marker code encountered in the packet header, or one of
; 3635 :          the special exception codes, KDU_EXCEPTION_PRECISION or
; 3636 :          KDU_EXCEPTION_ILLEGAL_LAYER. */
; 3637 :     void read_body_bytes(kd_input *source, kd_buf_server *buf_server,
; 3638 :                          bool in_memory_source)
; 3639 :       { /* This function should be called after parsing the header of a
; 3640 :            packet.  It reads the code-bytes contributed by the code-block to
; 3641 :            this packet.  If `in_memory_source' is true, only the address of
; 3642 :            the code-bytes is recorded, and then only if the length of the
; 3643 :            code-byte segment is non-zero. */
; 3644 :         if (this->temp_length > 0)
; 3645 :           {
; 3646 :             if (num_passes == 255)
; 3647 :               { // Read and discard the code-bytes.
; 3648 :                 assert(first_buf == NULL);  source->ignore(this->temp_length);
; 3649 :               }
; 3650 :             else if (in_memory_source)
; 3651 :               {
; 3652 :                 kdu_byte *addr;
; 3653 :                 this->num_bytes += source->pseudo_read(addr,this->temp_length);
; 3654 :                 put_address(addr,buf_server);
; 3655 :               }
; 3656 :             else
; 3657 :               this->num_bytes +=
; 3658 :                 source->read(current_buf,buf_pos,buf_server,this->temp_length);
; 3659 :             this->temp_length = 0;
; 3660 :           }
; 3661 :       }
; 3662 :     void retrieve_data(kdu_block *block, int max_layers, int discard_passes,
; 3663 :                        bool in_memory_source);
; 3664 :       /* Retrieves compressed code-bytes, number of coding passes and codeword
; 3665 :          segment lengths from the current code-block and stores them in the
; 3666 :          `block' object.  All fields which are common for compression and
; 3667 :          decompression have already been filled out by the caller.  The
; 3668 :          byte buffer is allocated so as to be large enough to allow a
; 3669 :          2 byte marker code to be appended to the compressed data,
; 3670 :          if desired -- see declaration of "kdu_subband::open_block".
; 3671 :             The `max_layers' argument identifies the maximum number of
; 3672 :          quality layers for which code-block contributions are to be
; 3673 :          retrieved.
; 3674 :             The `discard_passes' argument indicates the number of additional
; 3675 :          coding passes to be removed, if any.
; 3676 :             If `in_memory_source' is true, the layer code bytes are not
; 3677 :          stored in the `kd_code_buffer' list embedded inside `block'.  Instead,
; 3678 :          the `kd_code_buffer' list stores only the header information for
; 3679 :          each layer, along with the address of the code bytes, which reside
; 3680 :          in the memory block managed by an in-memory compressed data source
; 3681 :          (one which offers the `KDU_SOURCE_CAP_IN_MEMORY') capability.  In
; 3682 :          this case, we retrieve the address and then perform a simple memory
; 3683 :          block copy operation to efficiently retrieve the code bytes for
; 3684 :          each layer. */
; 3685 :     void store_data(kdu_block *block, kd_buf_server *buf_server);
; 3686 :       /* Stores compressed code-bytes, pass length and pass slope information
; 3687 :          from the `block' object into the current code-block.  This function
; 3688 :          is invoked by "kdu_subband::close_block" when the containing
; 3689 :          codestream object was not constructed for input.  Also reflects
; 3690 :          the `msbs_w' value into higher nodes in the tag tree. */
; 3691 :     void store_data(kdu_block *block, kd_thread_buf_server *thread_buf_server);
; 3692 :       /* Same as the above function, but uses `kd_thread_buf_server::get'
; 3693 :          rather than `kd_buf_server::get' to get new code buffers.  This
; 3694 :          version is used to save code-block state in multi-threaded
; 3695 :          environments so as to minimize cache coherency bottlenecks and the
; 3696 :          need to lock shared resources. */
; 3697 :     void transfer_data(kd_block &src)
; 3698 :       { /* Like `store_data', but gets results from another block.  Exploits
; 3699 :            the layout of the object to copy only whole pointers or whole
; 3700 :            32-bit words, even where these represent multiple fields. */
; 3701 :         current_buf = first_buf = src.first_buf;
; 3702 :         *((kdu_int32 *) &buf_pos) = *((kdu_int32 *) &src.buf_pos);
; 3703 :         src.current_buf = src.first_buf = NULL;
; 3704 :       }
; 3705 :     bool trim_data(kdu_uint16 slope_threshold, kd_buf_server *buf_server);
; 3706 :       /* This function serves two purposes: it helps reduce the amount of
; 3707 :          compressed data which must be buffered in memory while compressing
; 3708 :          an image; and it allows individual block contributions to be
; 3709 :          discarded during packet construction in order to tightly fit the
; 3710 :          generated bit-rate to the target compressed bit-rate.
; 3711 :             The function sets all coding pass slopes which are less than or
; 3712 :          equal to the supplied slope threshold to 0 and then discards all
; 3713 :          code bytes which could not possibly be included in the final
; 3714 :          code-stream, as a result of this modification.
; 3715 :             If anything was discarded, the function returns true.  Otherwise,
; 3716 :          it returns false. */
; 3717 :     int start_packet(int layer_idx, kdu_uint16 slope_threshold);
; 3718 :       /* Call this function only during rate allocation or packet generation.
; 3719 :          Before the first call to this function, you must reset the tag tree
; 3720 :          (see the "reset_output_tree" member function).  If you are calling
; 3721 :          the function multiple times with the same layer for rate allocation
; 3722 :          purposes, you must use "save_output_tree" and "restore_output_tree"
; 3723 :          as described below.
; 3724 :             The function leaves behind information about the number of new
; 3725 :          coding passes and the number of new code bytes which would be
; 3726 :          contributed by this code-block if the supplied threshold were actually
; 3727 :          used.  The final contributing coding pass must have a non-zero
; 3728 :          distortion-length slope which is strictly greater than the slope
; 3729 :          threshold.  It also updates the tag tree structure to reflect any
; 3730 :          new knowledge about the first layer to which this code-block would
; 3731 :          contribute.  This information is picked up by "write_packet_header".
; 3732 :             The function's return value is the total number of new code-bytes
; 3733 :          contributed by the block.  This allows the PCRD-opt algorithm to
; 3734 :          determine roughly the right slope threshold before committing to the
; 3735 :          work of simulating packet header generation. */
; 3736 :     void write_packet_header(kd_header_out &head, int layer_idx,
; 3737 :                              bool simulate);
; 3738 :       /* Call this function only after a `start_packet' call.  It writes
; 3739 :          (or simulates the writing of) packet header information corresponding
; 3740 :          to the code-block inclusion information set up by `start_packet'.
; 3741 :          If `simulate' is true, some internal state adjustments are delayed
; 3742 :          until the next call to "save_output_tree", so multiple calls to
; 3743 :          "start_packet" and "write_packet_header" may be issued with the same
; 3744 :          layer index to determine an optimal slope threshold.  Otherwise,
; 3745 :          if `simulate' is false, the internal state information is fully
; 3746 :          updated and the "save_output_tree" and "restore_output_tree" functions
; 3747 :          need not and should not be called. */
; 3748 :     void write_body_bytes(kdu_output *dest);
; 3749 :       /* This function should be called after a non-simulated
; 3750 :          "write_packet_header" call to output the newly included body bytes.
; 3751 :          The actual number of bytes to be written was left behind by
; 3752 :          the preceding "start_packet" call in the `temp_length' field. */
; 3753 :   // --------------------------------------------------------------------------
; 3754 :   public: // Static functions used to operate on tag-trees built from kd_block
; 3755 :     static kd_block *build_tree(kdu_coords size, kdu_byte * &mem_block);
; 3756 :       /* Builds a full tag tree returning a pointer to the upper left hand
; 3757 :          corner leaf node.  Apart from the `up_down' navigation pointers,
; 3758 :          all fields are initialized to 0.  This is appropriate for tag tree
; 3759 :          decoding, but encoders will need to call "reset_output_tree" and
; 3760 :          use "start_packet" to install appropriate node values.
; 3761 :             The tag tree is not allocated from the heap.  Instead, it is
; 3762 :          allocated from an existing memory block, identified by the `mem_block'
; 3763 :          argument.  This memory block is assumed to be large enough to hold
; 3764 :          the array of `kd_block' structures.  Upon return, the `mem_block'
; 3765 :          value is advanced by an amount equal to the size of the tag tree
; 3766 :          array. */
; 3767 :     static void reset_output_tree(kd_block *tree, kdu_coords size);
; 3768 :       /* Call this function immediately before simulating or actually
; 3769 :          generating any packet data for the relevant code-blocks.  Once
; 3770 :          the PCRD-opt algorithm has completed, you should call this function
; 3771 :          a second time to prepare for actual packet output.  The function
; 3772 :          initializes the threshold state variables, `layer_w_bar' and
; 3773 :          `msbs_w_bar' to 0, and the value state variables, `layer_w' and
; 3774 :          `msbs_w' to their maximum representable values.  The succession of
; 3775 :          "start_packet" calls will update the value variables `layer_w'
; 3776 :          and `msbs_w' in such a way that the tag tree coding process runs
; 3777 :          correctly in each subsequent call to "write_packet_header". */
; 3778 :     static void save_output_tree(kd_block *tree, kdu_coords size);
; 3779 :       /* Call this only during rate allocation, before moving on to a new
; 3780 :          layer.  The function saves the current state (`msbs_wbar' and
; 3781 :          `layer_wbar') of each node in the tag tree.  For leaf nodes, it also
; 3782 :          commits the number of new coding passes found in the last call to
; 3783 :          "start_packet". */
; 3784 :     static void restore_output_tree(kd_block *tree, kdu_coords size);
; 3785 :       /* Call this during rate allocation before supplying a new slope
; 3786 :          threshold for the same layer index, in a new "start_packet" call.
; 3787 :          The function restores the `msbs_w_bar' and `layer_w_bar' values
; 3788 :          previously saved by "save_output_tree". */
; 3789 :   // --------------------------------------------------------------------------
; 3790 :   public: // State identification functions
; 3791 :     void set_discard()
; 3792 :       { /* Use this function only with input-oriented operations.  It informs
; 3793 :            the object that none of the code-blocks associated with this
; 3794 :            block will ever be accessed, so that it is free to skip over them
; 3795 :            when reading a packet.  This can save a lot of memory if you have
; 3796 :            a defined region of interest for decompression. */
; 3797 :         num_passes = 255;

	mov	BYTE PTR [esi+10], 255			; 000000ffH
$LN2@discard_al:
; File e:\study\jpeg2000\visually_lossless_jpeg2000\modifiedkakadu\coresys\compressed\codestream.cpp

; 2263 :            n=KD_THREAD_MAX_OUTSTANDING_BLOCKS; n > 0; n--, scan++)

	dec	edi
	add	esi, 32					; 00000020H
	test	edi, edi
	jg	SHORT $LL4@discard_al
; File e:\study\jpeg2000\visually_lossless_jpeg2000\modifiedkakadu\coresys\compressed\compressed_local.h

; 353  :     bool is_attached() { return (ultimate_buf_server != NULL); }

	mov	ebx, DWORD PTR _this$1$[ebp]
	pop	edi
	pop	esi
	cmp	DWORD PTR [ebx+33156], 0
; File e:\study\jpeg2000\visually_lossless_jpeg2000\modifiedkakadu\coresys\compressed\codestream.cpp

; 2272 :       if (buf_server.is_attached())

	je	SHORT $LN29@discard_al
; File e:\study\jpeg2000\visually_lossless_jpeg2000\modifiedkakadu\coresys\compressed\compressed_local.h

; 359  :         if (ultimate_buf_server != NULL)

	mov	ecx, DWORD PTR [ebx+33156]
; File e:\study\jpeg2000\visually_lossless_jpeg2000\modifiedkakadu\coresys\compressed\codestream.cpp

; 2273 :         buf_server.detach_while_holding_general_lock();

	lea	eax, DWORD PTR [ebx+33132]
; File e:\study\jpeg2000\visually_lossless_jpeg2000\modifiedkakadu\coresys\compressed\compressed_local.h

; 359  :         if (ultimate_buf_server != NULL)

	test	ecx, ecx
	je	SHORT $LN29@discard_al

; 360  :           ultimate_buf_server->detach_thread_buf_server(this);

	push	eax
	call	?detach_thread_buf_server@kd_buf_server@@QAEXPAVkd_thread_buf_server@@@Z ; kd_buf_server::detach_thread_buf_server
$LN29@discard_al:
; File e:\study\jpeg2000\visually_lossless_jpeg2000\modifiedkakadu\coresys\common\kdu_threads.h

; 1063 :       { kd_thread_lock *lock = locks + lock_id;

	mov	eax, DWORD PTR [ebx+128]
	mov	eax, DWORD PTR [eax+28]

; 1064 :         assert((lock_id>=0) && (lock_id<num_locks) && (lock->holder == this));
; 1065 :         lock->holder = NULL;  lock->mutex.unlock(); }

	mov	DWORD PTR [eax+4], 0
; File e:\study\jpeg2000\visually_lossless_jpeg2000\modifiedkakadu\coresys\common\kdu_elementary.h

; 566  :           return ((mutex != NULL) && (ReleaseMutex(mutex)==TRUE));

	mov	eax, DWORD PTR [eax]
	test	eax, eax
	je	SHORT $LN35@discard_al
	push	eax
	call	DWORD PTR __imp__ReleaseMutex@4
$LN35@discard_al:
; File e:\study\jpeg2000\visually_lossless_jpeg2000\modifiedkakadu\coresys\compressed\codestream.cpp

; 2277 :   owner->have_outstanding_blocks = false;

	mov	eax, DWORD PTR [ebx+128]
	mov	DWORD PTR [ebx+33168], 0
	pop	ebx
	mov	BYTE PTR [eax+44], 0

; 2278 : }

	mov	esp, ebp
	pop	ebp
	ret	0
?discard_all@kd_thread_env@@QAEXXZ ENDP			; kd_thread_env::discard_all
_TEXT	ENDS
; Function compile flags: /Ogtp
; File e:\study\jpeg2000\visually_lossless_jpeg2000\modifiedkakadu\coresys\compressed\codestream.cpp
; File e:\study\jpeg2000\visually_lossless_jpeg2000\modifiedkakadu\coresys\common\kdu_threads.h
; File e:\study\jpeg2000\visually_lossless_jpeg2000\modifiedkakadu\coresys\common\kdu_elementary.h
; File e:\study\jpeg2000\visually_lossless_jpeg2000\modifiedkakadu\coresys\common\kdu_threads.h
; File e:\study\jpeg2000\visually_lossless_jpeg2000\modifiedkakadu\coresys\compressed\codestream.cpp
; File e:\study\jpeg2000\visually_lossless_jpeg2000\modifiedkakadu\coresys\compressed\compressed_local.h
; File e:\study\jpeg2000\visually_lossless_jpeg2000\modifiedkakadu\coresys\compressed\codestream.cpp
; File e:\study\jpeg2000\visually_lossless_jpeg2000\modifiedkakadu\coresys\compressed\compressed_local.h
; File e:\study\jpeg2000\visually_lossless_jpeg2000\modifiedkakadu\coresys\compressed\codestream.cpp
; File e:\study\jpeg2000\visually_lossless_jpeg2000\modifiedkakadu\coresys\compressed\compressed_local.h
; File e:\study\jpeg2000\visually_lossless_jpeg2000\modifiedkakadu\coresys\compressed\codestream.cpp
; File e:\study\jpeg2000\visually_lossless_jpeg2000\modifiedkakadu\coresys\compressed\compressed_local.h
; File e:\study\jpeg2000\visually_lossless_jpeg2000\modifiedkakadu\coresys\compressed\codestream.cpp
; File e:\study\jpeg2000\visually_lossless_jpeg2000\modifiedkakadu\coresys\compressed\compressed_local.h
; File e:\study\jpeg2000\visually_lossless_jpeg2000\modifiedkakadu\coresys\compressed\codestream.cpp
; File e:\study\jpeg2000\visually_lossless_jpeg2000\modifiedkakadu\coresys\compressed\compressed_local.h
; File e:\study\jpeg2000\visually_lossless_jpeg2000\modifiedkakadu\coresys\compressed\codestream.cpp
; File e:\study\jpeg2000\visually_lossless_jpeg2000\modifiedkakadu\coresys\compressed\compressed_local.h
; File e:\study\jpeg2000\visually_lossless_jpeg2000\modifiedkakadu\coresys\compressed\codestream.cpp
; File e:\study\jpeg2000\visually_lossless_jpeg2000\modifiedkakadu\coresys\compressed\compressed_local.h
; File e:\study\jpeg2000\visually_lossless_jpeg2000\modifiedkakadu\coresys\compressed\codestream.cpp
; File e:\study\jpeg2000\visually_lossless_jpeg2000\modifiedkakadu\coresys\compressed\compressed_local.h
; File e:\study\jpeg2000\visually_lossless_jpeg2000\modifiedkakadu\coresys\compressed\codestream.cpp
; File e:\study\jpeg2000\visually_lossless_jpeg2000\modifiedkakadu\coresys\compressed\compressed_local.h
; File e:\study\jpeg2000\visually_lossless_jpeg2000\modifiedkakadu\coresys\compressed\codestream.cpp
; File e:\study\jpeg2000\visually_lossless_jpeg2000\modifiedkakadu\coresys\compressed\compressed_local.h
; File e:\study\jpeg2000\visually_lossless_jpeg2000\modifiedkakadu\coresys\compressed\codestream.cpp
; File e:\study\jpeg2000\visually_lossless_jpeg2000\modifiedkakadu\coresys\compressed\compressed_local.h
; File e:\study\jpeg2000\visually_lossless_jpeg2000\modifiedkakadu\coresys\compressed\codestream.cpp
; File e:\study\jpeg2000\visually_lossless_jpeg2000\modifiedkakadu\coresys\compressed\compressed_local.h
; File e:\study\jpeg2000\visually_lossless_jpeg2000\modifiedkakadu\coresys\compressed\codestream.cpp
; File e:\study\jpeg2000\visually_lossless_jpeg2000\modifiedkakadu\coresys\compressed\compressed_local.h
; File e:\study\jpeg2000\visually_lossless_jpeg2000\modifiedkakadu\coresys\compressed\codestream.cpp
; File e:\study\jpeg2000\visually_lossless_jpeg2000\modifiedkakadu\coresys\compressed\compressed_local.h
; File e:\study\jpeg2000\visually_lossless_jpeg2000\modifiedkakadu\coresys\compressed\codestream.cpp
; File e:\study\jpeg2000\visually_lossless_jpeg2000\modifiedkakadu\coresys\compressed\compressed_local.h
; File e:\study\jpeg2000\visually_lossless_jpeg2000\modifiedkakadu\coresys\compressed\codestream.cpp
; File e:\study\jpeg2000\visually_lossless_jpeg2000\modifiedkakadu\coresys\common\kdu_threads.h
; File e:\study\jpeg2000\visually_lossless_jpeg2000\modifiedkakadu\coresys\common\kdu_elementary.h
; File e:\study\jpeg2000\visually_lossless_jpeg2000\modifiedkakadu\coresys\compressed\codestream.cpp
; File e:\study\jpeg2000\visually_lossless_jpeg2000\modifiedkakadu\coresys\compressed\compressed_local.h
; File e:\study\jpeg2000\visually_lossless_jpeg2000\modifiedkakadu\coresys\compressed\codestream.cpp
; File e:\study\jpeg2000\visually_lossless_jpeg2000\modifiedkakadu\coresys\common\kdu_threads.h
; File e:\study\jpeg2000\visually_lossless_jpeg2000\modifiedkakadu\coresys\compressed\codestream.cpp
; File e:\study\jpeg2000\visually_lossless_jpeg2000\modifiedkakadu\coresys\common\kdu_threads.h
; File e:\study\jpeg2000\visually_lossless_jpeg2000\modifiedkakadu\coresys\common\kdu_elementary.h
; File e:\study\jpeg2000\visually_lossless_jpeg2000\modifiedkakadu\coresys\common\kdu_threads.h
; File e:\study\jpeg2000\visually_lossless_jpeg2000\modifiedkakadu\coresys\common\kdu_elementary.h
; File e:\study\jpeg2000\visually_lossless_jpeg2000\modifiedkakadu\coresys\common\kdu_threads.h
; File e:\study\jpeg2000\visually_lossless_jpeg2000\modifiedkakadu\coresys\compressed\codestream.cpp
; File e:\study\jpeg2000\visually_lossless_jpeg2000\modifiedkakadu\coresys\compressed\compressed_local.h
; File e:\study\jpeg2000\visually_lossless_jpeg2000\modifiedkakadu\coresys\compressed\codestream.cpp
; File e:\study\jpeg2000\visually_lossless_jpeg2000\modifiedkakadu\coresys\compressed\compressed_local.h
; File e:\study\jpeg2000\visually_lossless_jpeg2000\modifiedkakadu\coresys\compressed\codestream.cpp
; File e:\study\jpeg2000\visually_lossless_jpeg2000\modifiedkakadu\coresys\common\kdu_threads.h
; File e:\study\jpeg2000\visually_lossless_jpeg2000\modifiedkakadu\coresys\common\kdu_elementary.h
; File e:\study\jpeg2000\visually_lossless_jpeg2000\modifiedkakadu\coresys\compressed\codestream.cpp
; File e:\study\jpeg2000\visually_lossless_jpeg2000\modifiedkakadu\coresys\common\kdu_threads.h
; File e:\study\jpeg2000\visually_lossless_jpeg2000\modifiedkakadu\coresys\compressed\codestream.cpp
;	COMDAT ?flush@kd_thread_env@@QAEX_N@Z
_TEXT	SEGMENT
_lock$1$ = -8						; size = 4
_this$1$ = -8						; size = 4
_have_only_input_precincts$1$ = -1			; size = 1
_lock$1$ = 8						; size = 4
_cs$1$ = 8						; size = 4
$T1 = 8							; size = 4
$T2 = 8							; size = 4
$T3 = 8							; size = 4
_force_flush$ = 8					; size = 1
?flush@kd_thread_env@@QAEX_N@Z PROC			; kd_thread_env::flush, COMDAT
; _this$ = ecx

; 2172 : {

	push	ebp
	mov	ebp, esp
	sub	esp, 8
	push	edi
	mov	edi, ecx

; 2173 :   if (num_outstanding_blocks == 0)

	cmp	DWORD PTR [edi+33168], 0
	je	$LN68@flush

; 2174 :     return;
; 2175 : 
; 2176 :   if (stats_codestream != NULL)

	cmp	DWORD PTR [edi+33128], 0
	je	SHORT $LN9@flush

; 2177 :     reconcile_stats();

	call	?reconcile_stats@kd_thread_env@@QAEXXZ	; kd_thread_env::reconcile_stats
$LN9@flush:

; 2178 :   
; 2179 :   // Now try to flush stored code-blocks
; 2180 :   int n;
; 2181 :   kd_thread_block_state *scan;
; 2182 :   bool have_complete_precincts=false;
; 2183 :   owner->acquire_lock(KD_THREADLOCK_PRECINCT);

	mov	eax, DWORD PTR [edi+128]
	push	ebx
	xor	bl, bl
	mov	DWORD PTR _this$1$[ebp], eax
	push	esi
; File e:\study\jpeg2000\visually_lossless_jpeg2000\modifiedkakadu\coresys\common\kdu_threads.h

; 1026 :         if (allow_exceptions && grouperr->failed) throw grouperr->failure_code;

	mov	ecx, DWORD PTR [eax+20]
	mov	esi, DWORD PTR [eax+28]
	cmp	BYTE PTR [ecx], bl
	jne	$LN114@flush
; File e:\study\jpeg2000\visually_lossless_jpeg2000\modifiedkakadu\coresys\common\kdu_elementary.h

; 534  :           return ((mutex != NULL) &&

	mov	ecx, DWORD PTR [esi+16]
	test	ecx, ecx
	je	SHORT $LN32@flush
	push	-1
	push	ecx
	call	DWORD PTR __imp__WaitForSingleObject@8
	mov	eax, DWORD PTR _this$1$[ebp]
$LN32@flush:
; File e:\study\jpeg2000\visually_lossless_jpeg2000\modifiedkakadu\coresys\common\kdu_threads.h

; 1027 :         lock->mutex.lock(); lock->holder = this; }

	mov	DWORD PTR [esi+20], eax
; File e:\study\jpeg2000\visually_lossless_jpeg2000\modifiedkakadu\coresys\compressed\codestream.cpp

; 2184 :   bool have_only_input_precincts = true;

	mov	bh, 1

; 2185 :   for (scan=outstanding_blocks,
; 2186 :        n=KD_THREAD_MAX_OUTSTANDING_BLOCKS; n > 0; n--, scan++)
; 2187 :     {
; 2188 :       if (scan->target_precinct == NULL)

	mov	eax, DWORD PTR [edi+33196]
	lea	esi, DWORD PTR [edi+33172]
	mov	BYTE PTR _have_only_input_precincts$1$[ebp], bh
	test	eax, eax
	je	SHORT $LN2@flush

; 2191 :       assert(scan->target_precinct->num_outstanding_blocks > 0);
; 2192 :       if (scan->target_precinct->num_outstanding_blocks == 1)

	cmp	DWORD PTR [eax+24], 1
	jne	SHORT $LN11@flush

; 2193 :         {
; 2194 :           have_complete_precincts=true;

	mov	bl, bh

; 2195 :           continue;

	jmp	SHORT $LN2@flush
$LN11@flush:

; 2189 :         continue;
; 2190 :       kd_codestream *cs = scan->target_precinct->resolution->codestream;

	mov	eax, DWORD PTR [eax]

; 2196 :         }
; 2197 :       if (cs->in == NULL)

	mov	eax, DWORD PTR [eax]
	cmp	DWORD PTR [eax+4], 0
	jne	SHORT $LN12@flush

; 2198 :         {
; 2199 :           scan->target_block->transfer_data(scan->block);

	mov	ecx, DWORD PTR [esi+28]

; 2200 :           have_only_input_precincts = false;

	xor	bh, bh
; File e:\study\jpeg2000\visually_lossless_jpeg2000\modifiedkakadu\coresys\compressed\compressed_local.h

; 3701 :         current_buf = first_buf = src.first_buf;

	mov	eax, DWORD PTR [esi]
; File e:\study\jpeg2000\visually_lossless_jpeg2000\modifiedkakadu\coresys\compressed\codestream.cpp

; 2200 :           have_only_input_precincts = false;

	mov	BYTE PTR _have_only_input_precincts$1$[ebp], bh
; File e:\study\jpeg2000\visually_lossless_jpeg2000\modifiedkakadu\coresys\compressed\compressed_local.h

; 3701 :         current_buf = first_buf = src.first_buf;

	mov	DWORD PTR [ecx], eax
	mov	DWORD PTR [ecx+4], eax

; 3702 :         *((kdu_int32 *) &buf_pos) = *((kdu_int32 *) &src.buf_pos);

	mov	eax, DWORD PTR [esi+8]
	mov	DWORD PTR [ecx+8], eax

; 3703 :         src.current_buf = src.first_buf = NULL;

	mov	DWORD PTR [esi], 0
	mov	DWORD PTR [esi+4], 0
$LN12@flush:
; File e:\study\jpeg2000\visually_lossless_jpeg2000\modifiedkakadu\coresys\compressed\codestream.cpp

; 2202 :       scan->target_precinct->num_outstanding_blocks--;

	mov	eax, DWORD PTR [esi+24]
	dec	DWORD PTR [eax+24]

; 2203 :       scan->target_precinct = NULL;

	mov	DWORD PTR [esi+24], 0

; 2204 :       scan->target_block = NULL;

	mov	DWORD PTR [esi+28], 0

; 2205 :       num_outstanding_blocks--;

	dec	DWORD PTR [edi+33168]
$LN2@flush:

; 2185 :   for (scan=outstanding_blocks,
; 2186 :        n=KD_THREAD_MAX_OUTSTANDING_BLOCKS; n > 0; n--, scan++)
; 2187 :     {
; 2188 :       if (scan->target_precinct == NULL)

	mov	eax, DWORD PTR [esi+56]
	test	eax, eax
	je	SHORT $LN84@flush

; 2191 :       assert(scan->target_precinct->num_outstanding_blocks > 0);
; 2192 :       if (scan->target_precinct->num_outstanding_blocks == 1)

	cmp	DWORD PTR [eax+24], 1
	jne	SHORT $LN82@flush

; 2193 :         {
; 2194 :           have_complete_precincts=true;

	mov	bl, 1

; 2195 :           continue;

	jmp	SHORT $LN84@flush
$LN82@flush:

; 2189 :         continue;
; 2190 :       kd_codestream *cs = scan->target_precinct->resolution->codestream;

	mov	eax, DWORD PTR [eax]

; 2196 :         }
; 2197 :       if (cs->in == NULL)

	mov	eax, DWORD PTR [eax]
	cmp	DWORD PTR [eax+4], 0
	jne	SHORT $LN83@flush

; 2198 :         {
; 2199 :           scan->target_block->transfer_data(scan->block);

	mov	ecx, DWORD PTR [esi+60]

; 2200 :           have_only_input_precincts = false;

	xor	bh, bh
; File e:\study\jpeg2000\visually_lossless_jpeg2000\modifiedkakadu\coresys\compressed\compressed_local.h

; 3701 :         current_buf = first_buf = src.first_buf;

	mov	eax, DWORD PTR [esi+32]
; File e:\study\jpeg2000\visually_lossless_jpeg2000\modifiedkakadu\coresys\compressed\codestream.cpp

; 2200 :           have_only_input_precincts = false;

	mov	BYTE PTR _have_only_input_precincts$1$[ebp], bh
; File e:\study\jpeg2000\visually_lossless_jpeg2000\modifiedkakadu\coresys\compressed\compressed_local.h

; 3701 :         current_buf = first_buf = src.first_buf;

	mov	DWORD PTR [ecx], eax
	mov	DWORD PTR [ecx+4], eax

; 3702 :         *((kdu_int32 *) &buf_pos) = *((kdu_int32 *) &src.buf_pos);

	mov	eax, DWORD PTR [esi+40]
	mov	DWORD PTR [ecx+8], eax

; 3703 :         src.current_buf = src.first_buf = NULL;

	mov	DWORD PTR [esi+32], 0
	mov	DWORD PTR [esi+36], 0
$LN83@flush:
; File e:\study\jpeg2000\visually_lossless_jpeg2000\modifiedkakadu\coresys\compressed\codestream.cpp

; 2202 :       scan->target_precinct->num_outstanding_blocks--;

	mov	eax, DWORD PTR [esi+56]
	dec	DWORD PTR [eax+24]

; 2203 :       scan->target_precinct = NULL;

	mov	DWORD PTR [esi+56], 0

; 2204 :       scan->target_block = NULL;

	mov	DWORD PTR [esi+60], 0

; 2205 :       num_outstanding_blocks--;

	dec	DWORD PTR [edi+33168]
$LN84@flush:

; 2185 :   for (scan=outstanding_blocks,
; 2186 :        n=KD_THREAD_MAX_OUTSTANDING_BLOCKS; n > 0; n--, scan++)
; 2187 :     {
; 2188 :       if (scan->target_precinct == NULL)

	mov	eax, DWORD PTR [esi+88]
	test	eax, eax
	je	SHORT $LN88@flush

; 2191 :       assert(scan->target_precinct->num_outstanding_blocks > 0);
; 2192 :       if (scan->target_precinct->num_outstanding_blocks == 1)

	cmp	DWORD PTR [eax+24], 1
	jne	SHORT $LN86@flush

; 2193 :         {
; 2194 :           have_complete_precincts=true;

	mov	bl, 1

; 2195 :           continue;

	jmp	SHORT $LN88@flush
$LN86@flush:

; 2189 :         continue;
; 2190 :       kd_codestream *cs = scan->target_precinct->resolution->codestream;

	mov	eax, DWORD PTR [eax]

; 2196 :         }
; 2197 :       if (cs->in == NULL)

	mov	eax, DWORD PTR [eax]
	cmp	DWORD PTR [eax+4], 0
	jne	SHORT $LN87@flush

; 2198 :         {
; 2199 :           scan->target_block->transfer_data(scan->block);

	mov	ecx, DWORD PTR [esi+92]

; 2200 :           have_only_input_precincts = false;

	xor	bh, bh
; File e:\study\jpeg2000\visually_lossless_jpeg2000\modifiedkakadu\coresys\compressed\compressed_local.h

; 3701 :         current_buf = first_buf = src.first_buf;

	mov	eax, DWORD PTR [esi+64]
; File e:\study\jpeg2000\visually_lossless_jpeg2000\modifiedkakadu\coresys\compressed\codestream.cpp

; 2200 :           have_only_input_precincts = false;

	mov	BYTE PTR _have_only_input_precincts$1$[ebp], bh
; File e:\study\jpeg2000\visually_lossless_jpeg2000\modifiedkakadu\coresys\compressed\compressed_local.h

; 3701 :         current_buf = first_buf = src.first_buf;

	mov	DWORD PTR [ecx], eax
	mov	DWORD PTR [ecx+4], eax

; 3702 :         *((kdu_int32 *) &buf_pos) = *((kdu_int32 *) &src.buf_pos);

	mov	eax, DWORD PTR [esi+72]
	mov	DWORD PTR [ecx+8], eax

; 3703 :         src.current_buf = src.first_buf = NULL;

	mov	DWORD PTR [esi+64], 0
	mov	DWORD PTR [esi+68], 0
$LN87@flush:
; File e:\study\jpeg2000\visually_lossless_jpeg2000\modifiedkakadu\coresys\compressed\codestream.cpp

; 2202 :       scan->target_precinct->num_outstanding_blocks--;

	mov	eax, DWORD PTR [esi+88]
	dec	DWORD PTR [eax+24]

; 2203 :       scan->target_precinct = NULL;

	mov	DWORD PTR [esi+88], 0

; 2204 :       scan->target_block = NULL;

	mov	DWORD PTR [esi+92], 0

; 2205 :       num_outstanding_blocks--;

	dec	DWORD PTR [edi+33168]
$LN88@flush:

; 2185 :   for (scan=outstanding_blocks,
; 2186 :        n=KD_THREAD_MAX_OUTSTANDING_BLOCKS; n > 0; n--, scan++)
; 2187 :     {
; 2188 :       if (scan->target_precinct == NULL)

	mov	eax, DWORD PTR [esi+120]
	test	eax, eax
	je	SHORT $LN92@flush

; 2191 :       assert(scan->target_precinct->num_outstanding_blocks > 0);
; 2192 :       if (scan->target_precinct->num_outstanding_blocks == 1)

	cmp	DWORD PTR [eax+24], 1
	jne	SHORT $LN90@flush

; 2193 :         {
; 2194 :           have_complete_precincts=true;

	mov	bl, 1

; 2195 :           continue;

	jmp	SHORT $LN92@flush
$LN90@flush:

; 2189 :         continue;
; 2190 :       kd_codestream *cs = scan->target_precinct->resolution->codestream;

	mov	eax, DWORD PTR [eax]

; 2196 :         }
; 2197 :       if (cs->in == NULL)

	mov	eax, DWORD PTR [eax]
	cmp	DWORD PTR [eax+4], 0
	jne	SHORT $LN91@flush

; 2198 :         {
; 2199 :           scan->target_block->transfer_data(scan->block);

	mov	ecx, DWORD PTR [esi+124]

; 2200 :           have_only_input_precincts = false;

	xor	bh, bh
; File e:\study\jpeg2000\visually_lossless_jpeg2000\modifiedkakadu\coresys\compressed\compressed_local.h

; 3701 :         current_buf = first_buf = src.first_buf;

	mov	eax, DWORD PTR [esi+96]
; File e:\study\jpeg2000\visually_lossless_jpeg2000\modifiedkakadu\coresys\compressed\codestream.cpp

; 2200 :           have_only_input_precincts = false;

	mov	BYTE PTR _have_only_input_precincts$1$[ebp], bh
; File e:\study\jpeg2000\visually_lossless_jpeg2000\modifiedkakadu\coresys\compressed\compressed_local.h

; 3701 :         current_buf = first_buf = src.first_buf;

	mov	DWORD PTR [ecx], eax
	mov	DWORD PTR [ecx+4], eax

; 3702 :         *((kdu_int32 *) &buf_pos) = *((kdu_int32 *) &src.buf_pos);

	mov	eax, DWORD PTR [esi+104]
	mov	DWORD PTR [ecx+8], eax

; 3703 :         src.current_buf = src.first_buf = NULL;

	mov	DWORD PTR [esi+96], 0
	mov	DWORD PTR [esi+100], 0
$LN91@flush:
; File e:\study\jpeg2000\visually_lossless_jpeg2000\modifiedkakadu\coresys\compressed\codestream.cpp

; 2202 :       scan->target_precinct->num_outstanding_blocks--;

	mov	eax, DWORD PTR [esi+120]
	dec	DWORD PTR [eax+24]

; 2203 :       scan->target_precinct = NULL;

	mov	DWORD PTR [esi+120], 0

; 2204 :       scan->target_block = NULL;

	mov	DWORD PTR [esi+124], 0

; 2205 :       num_outstanding_blocks--;

	dec	DWORD PTR [edi+33168]
$LN92@flush:

; 2185 :   for (scan=outstanding_blocks,
; 2186 :        n=KD_THREAD_MAX_OUTSTANDING_BLOCKS; n > 0; n--, scan++)
; 2187 :     {
; 2188 :       if (scan->target_precinct == NULL)

	mov	eax, DWORD PTR [esi+152]
	test	eax, eax
	je	SHORT $LN96@flush

; 2191 :       assert(scan->target_precinct->num_outstanding_blocks > 0);
; 2192 :       if (scan->target_precinct->num_outstanding_blocks == 1)

	cmp	DWORD PTR [eax+24], 1
	jne	SHORT $LN94@flush

; 2193 :         {
; 2194 :           have_complete_precincts=true;

	mov	bl, 1

; 2195 :           continue;

	jmp	SHORT $LN96@flush
$LN94@flush:

; 2189 :         continue;
; 2190 :       kd_codestream *cs = scan->target_precinct->resolution->codestream;

	mov	eax, DWORD PTR [eax]

; 2196 :         }
; 2197 :       if (cs->in == NULL)

	mov	eax, DWORD PTR [eax]
	cmp	DWORD PTR [eax+4], 0
	jne	SHORT $LN95@flush

; 2198 :         {
; 2199 :           scan->target_block->transfer_data(scan->block);

	mov	ecx, DWORD PTR [esi+156]

; 2200 :           have_only_input_precincts = false;

	xor	bh, bh
; File e:\study\jpeg2000\visually_lossless_jpeg2000\modifiedkakadu\coresys\compressed\compressed_local.h

; 3701 :         current_buf = first_buf = src.first_buf;

	mov	eax, DWORD PTR [esi+128]
; File e:\study\jpeg2000\visually_lossless_jpeg2000\modifiedkakadu\coresys\compressed\codestream.cpp

; 2200 :           have_only_input_precincts = false;

	mov	BYTE PTR _have_only_input_precincts$1$[ebp], bh
; File e:\study\jpeg2000\visually_lossless_jpeg2000\modifiedkakadu\coresys\compressed\compressed_local.h

; 3701 :         current_buf = first_buf = src.first_buf;

	mov	DWORD PTR [ecx], eax
	mov	DWORD PTR [ecx+4], eax

; 3702 :         *((kdu_int32 *) &buf_pos) = *((kdu_int32 *) &src.buf_pos);

	mov	eax, DWORD PTR [esi+136]
	mov	DWORD PTR [ecx+8], eax

; 3703 :         src.current_buf = src.first_buf = NULL;

	mov	DWORD PTR [esi+128], 0
	mov	DWORD PTR [esi+132], 0
$LN95@flush:
; File e:\study\jpeg2000\visually_lossless_jpeg2000\modifiedkakadu\coresys\compressed\codestream.cpp

; 2202 :       scan->target_precinct->num_outstanding_blocks--;

	mov	eax, DWORD PTR [esi+152]
	dec	DWORD PTR [eax+24]

; 2203 :       scan->target_precinct = NULL;

	mov	DWORD PTR [esi+152], 0

; 2204 :       scan->target_block = NULL;

	mov	DWORD PTR [esi+156], 0

; 2205 :       num_outstanding_blocks--;

	dec	DWORD PTR [edi+33168]
$LN96@flush:

; 2185 :   for (scan=outstanding_blocks,
; 2186 :        n=KD_THREAD_MAX_OUTSTANDING_BLOCKS; n > 0; n--, scan++)
; 2187 :     {
; 2188 :       if (scan->target_precinct == NULL)

	mov	eax, DWORD PTR [esi+184]
	test	eax, eax
	je	SHORT $LN100@flush

; 2191 :       assert(scan->target_precinct->num_outstanding_blocks > 0);
; 2192 :       if (scan->target_precinct->num_outstanding_blocks == 1)

	cmp	DWORD PTR [eax+24], 1
	jne	SHORT $LN98@flush

; 2193 :         {
; 2194 :           have_complete_precincts=true;

	mov	bl, 1

; 2195 :           continue;

	jmp	SHORT $LN100@flush
$LN98@flush:

; 2189 :         continue;
; 2190 :       kd_codestream *cs = scan->target_precinct->resolution->codestream;

	mov	eax, DWORD PTR [eax]

; 2196 :         }
; 2197 :       if (cs->in == NULL)

	mov	eax, DWORD PTR [eax]
	cmp	DWORD PTR [eax+4], 0
	jne	SHORT $LN99@flush

; 2198 :         {
; 2199 :           scan->target_block->transfer_data(scan->block);

	mov	ecx, DWORD PTR [esi+188]

; 2200 :           have_only_input_precincts = false;

	xor	bh, bh
; File e:\study\jpeg2000\visually_lossless_jpeg2000\modifiedkakadu\coresys\compressed\compressed_local.h

; 3701 :         current_buf = first_buf = src.first_buf;

	mov	eax, DWORD PTR [esi+160]
; File e:\study\jpeg2000\visually_lossless_jpeg2000\modifiedkakadu\coresys\compressed\codestream.cpp

; 2200 :           have_only_input_precincts = false;

	mov	BYTE PTR _have_only_input_precincts$1$[ebp], bh
; File e:\study\jpeg2000\visually_lossless_jpeg2000\modifiedkakadu\coresys\compressed\compressed_local.h

; 3701 :         current_buf = first_buf = src.first_buf;

	mov	DWORD PTR [ecx], eax
	mov	DWORD PTR [ecx+4], eax

; 3702 :         *((kdu_int32 *) &buf_pos) = *((kdu_int32 *) &src.buf_pos);

	mov	eax, DWORD PTR [esi+168]
	mov	DWORD PTR [ecx+8], eax

; 3703 :         src.current_buf = src.first_buf = NULL;

	mov	DWORD PTR [esi+160], 0
	mov	DWORD PTR [esi+164], 0
$LN99@flush:
; File e:\study\jpeg2000\visually_lossless_jpeg2000\modifiedkakadu\coresys\compressed\codestream.cpp

; 2202 :       scan->target_precinct->num_outstanding_blocks--;

	mov	eax, DWORD PTR [esi+184]
	dec	DWORD PTR [eax+24]

; 2203 :       scan->target_precinct = NULL;

	mov	DWORD PTR [esi+184], 0

; 2204 :       scan->target_block = NULL;

	mov	DWORD PTR [esi+188], 0

; 2205 :       num_outstanding_blocks--;

	dec	DWORD PTR [edi+33168]
$LN100@flush:

; 2185 :   for (scan=outstanding_blocks,
; 2186 :        n=KD_THREAD_MAX_OUTSTANDING_BLOCKS; n > 0; n--, scan++)
; 2187 :     {
; 2188 :       if (scan->target_precinct == NULL)

	mov	eax, DWORD PTR [esi+216]
	test	eax, eax
	je	SHORT $LN104@flush

; 2191 :       assert(scan->target_precinct->num_outstanding_blocks > 0);
; 2192 :       if (scan->target_precinct->num_outstanding_blocks == 1)

	cmp	DWORD PTR [eax+24], 1
	jne	SHORT $LN102@flush

; 2193 :         {
; 2194 :           have_complete_precincts=true;

	mov	bl, 1

; 2195 :           continue;

	jmp	SHORT $LN104@flush
$LN102@flush:

; 2189 :         continue;
; 2190 :       kd_codestream *cs = scan->target_precinct->resolution->codestream;

	mov	eax, DWORD PTR [eax]

; 2196 :         }
; 2197 :       if (cs->in == NULL)

	mov	eax, DWORD PTR [eax]
	cmp	DWORD PTR [eax+4], 0
	jne	SHORT $LN103@flush

; 2198 :         {
; 2199 :           scan->target_block->transfer_data(scan->block);

	mov	ecx, DWORD PTR [esi+220]

; 2200 :           have_only_input_precincts = false;

	xor	bh, bh
; File e:\study\jpeg2000\visually_lossless_jpeg2000\modifiedkakadu\coresys\compressed\compressed_local.h

; 3701 :         current_buf = first_buf = src.first_buf;

	mov	eax, DWORD PTR [esi+192]
; File e:\study\jpeg2000\visually_lossless_jpeg2000\modifiedkakadu\coresys\compressed\codestream.cpp

; 2200 :           have_only_input_precincts = false;

	mov	BYTE PTR _have_only_input_precincts$1$[ebp], bh
; File e:\study\jpeg2000\visually_lossless_jpeg2000\modifiedkakadu\coresys\compressed\compressed_local.h

; 3701 :         current_buf = first_buf = src.first_buf;

	mov	DWORD PTR [ecx], eax
	mov	DWORD PTR [ecx+4], eax

; 3702 :         *((kdu_int32 *) &buf_pos) = *((kdu_int32 *) &src.buf_pos);

	mov	eax, DWORD PTR [esi+200]
	mov	DWORD PTR [ecx+8], eax

; 3703 :         src.current_buf = src.first_buf = NULL;

	mov	DWORD PTR [esi+192], 0
	mov	DWORD PTR [esi+196], 0
$LN103@flush:
; File e:\study\jpeg2000\visually_lossless_jpeg2000\modifiedkakadu\coresys\compressed\codestream.cpp

; 2202 :       scan->target_precinct->num_outstanding_blocks--;

	mov	eax, DWORD PTR [esi+216]
	dec	DWORD PTR [eax+24]

; 2203 :       scan->target_precinct = NULL;

	mov	DWORD PTR [esi+216], 0

; 2204 :       scan->target_block = NULL;

	mov	DWORD PTR [esi+220], 0

; 2205 :       num_outstanding_blocks--;

	dec	DWORD PTR [edi+33168]
$LN104@flush:

; 2185 :   for (scan=outstanding_blocks,
; 2186 :        n=KD_THREAD_MAX_OUTSTANDING_BLOCKS; n > 0; n--, scan++)
; 2187 :     {
; 2188 :       if (scan->target_precinct == NULL)

	mov	eax, DWORD PTR [esi+248]
	test	eax, eax
	je	SHORT $LN108@flush

; 2191 :       assert(scan->target_precinct->num_outstanding_blocks > 0);
; 2192 :       if (scan->target_precinct->num_outstanding_blocks == 1)

	cmp	DWORD PTR [eax+24], 1
	jne	SHORT $LN106@flush

; 2193 :         {
; 2194 :           have_complete_precincts=true;

	mov	bl, 1

; 2195 :           continue;

	jmp	SHORT $LN108@flush
$LN106@flush:

; 2189 :         continue;
; 2190 :       kd_codestream *cs = scan->target_precinct->resolution->codestream;

	mov	eax, DWORD PTR [eax]

; 2196 :         }
; 2197 :       if (cs->in == NULL)

	mov	eax, DWORD PTR [eax]
	cmp	DWORD PTR [eax+4], 0
	jne	SHORT $LN107@flush

; 2198 :         {
; 2199 :           scan->target_block->transfer_data(scan->block);

	mov	ecx, DWORD PTR [esi+252]

; 2200 :           have_only_input_precincts = false;

	xor	bh, bh
; File e:\study\jpeg2000\visually_lossless_jpeg2000\modifiedkakadu\coresys\compressed\compressed_local.h

; 3701 :         current_buf = first_buf = src.first_buf;

	mov	eax, DWORD PTR [esi+224]
; File e:\study\jpeg2000\visually_lossless_jpeg2000\modifiedkakadu\coresys\compressed\codestream.cpp

; 2200 :           have_only_input_precincts = false;

	mov	BYTE PTR _have_only_input_precincts$1$[ebp], bh
; File e:\study\jpeg2000\visually_lossless_jpeg2000\modifiedkakadu\coresys\compressed\compressed_local.h

; 3701 :         current_buf = first_buf = src.first_buf;

	mov	DWORD PTR [ecx], eax
	mov	DWORD PTR [ecx+4], eax

; 3702 :         *((kdu_int32 *) &buf_pos) = *((kdu_int32 *) &src.buf_pos);

	mov	eax, DWORD PTR [esi+232]
	mov	DWORD PTR [ecx+8], eax

; 3703 :         src.current_buf = src.first_buf = NULL;

	mov	DWORD PTR [esi+224], 0
	mov	DWORD PTR [esi+228], 0
$LN107@flush:
; File e:\study\jpeg2000\visually_lossless_jpeg2000\modifiedkakadu\coresys\compressed\codestream.cpp

; 2202 :       scan->target_precinct->num_outstanding_blocks--;

	mov	eax, DWORD PTR [esi+248]
	dec	DWORD PTR [eax+24]

; 2203 :       scan->target_precinct = NULL;

	mov	DWORD PTR [esi+248], 0

; 2204 :       scan->target_block = NULL;

	mov	DWORD PTR [esi+252], 0

; 2205 :       num_outstanding_blocks--;

	dec	DWORD PTR [edi+33168]
$LN108@flush:
; File e:\study\jpeg2000\visually_lossless_jpeg2000\modifiedkakadu\coresys\common\kdu_threads.h

; 1063 :       { kd_thread_lock *lock = locks + lock_id;

	mov	eax, DWORD PTR [edi+128]
	mov	eax, DWORD PTR [eax+28]

; 1064 :         assert((lock_id>=0) && (lock_id<num_locks) && (lock->holder == this));
; 1065 :         lock->holder = NULL;  lock->mutex.unlock(); }

	mov	DWORD PTR [eax+20], 0
; File e:\study\jpeg2000\visually_lossless_jpeg2000\modifiedkakadu\coresys\common\kdu_elementary.h

; 566  :           return ((mutex != NULL) && (ReleaseMutex(mutex)==TRUE));

	mov	eax, DWORD PTR [eax+16]
	test	eax, eax
	je	SHORT $LN41@flush
	push	eax
	call	DWORD PTR __imp__ReleaseMutex@4
$LN41@flush:
; File e:\study\jpeg2000\visually_lossless_jpeg2000\modifiedkakadu\coresys\compressed\codestream.cpp

; 2209 :   if (num_outstanding_blocks == 0)

	cmp	DWORD PTR [edi+33168], 0
	jne	SHORT $LN13@flush

; 2210 :     owner->have_outstanding_blocks = false;

	mov	eax, DWORD PTR [edi+128]
	mov	BYTE PTR [eax+44], 0
$LN13@flush:
; File e:\study\jpeg2000\visually_lossless_jpeg2000\modifiedkakadu\coresys\compressed\compressed_local.h

; 353  :     bool is_attached() { return (ultimate_buf_server != NULL); }

	cmp	DWORD PTR [edi+33156], 0
; File e:\study\jpeg2000\visually_lossless_jpeg2000\modifiedkakadu\coresys\compressed\codestream.cpp

; 2213 :   if (buf_server.is_attached() && !have_only_input_precincts)

	je	SHORT $LN15@flush
	test	bh, bh
	jne	SHORT $LN15@flush

; 2214 :     buf_server.adjust_peak_buffers();

	lea	ecx, DWORD PTR [edi+33132]
	call	?adjust_peak_buffers@kd_thread_buf_server@@QAEXXZ ; kd_thread_buf_server::adjust_peak_buffers
$LN15@flush:

; 2215 : 
; 2216 :   if (have_complete_precincts)

	test	bl, bl
	je	$LN111@flush

; 2218 :       if (force_flush)

	cmp	BYTE PTR _force_flush$[ebp], 0

; 2219 :         owner->acquire_lock(KD_THREADLOCK_GENERAL);

	mov	ebx, DWORD PTR [edi+128]
; File e:\study\jpeg2000\visually_lossless_jpeg2000\modifiedkakadu\coresys\common\kdu_threads.h

; 1024 :       { kd_thread_lock *lock = locks + lock_id;

	mov	ecx, DWORD PTR [ebx+28]

; 1026 :         if (allow_exceptions && grouperr->failed) throw grouperr->failure_code;

	mov	eax, DWORD PTR [ebx+20]
; File e:\study\jpeg2000\visually_lossless_jpeg2000\modifiedkakadu\coresys\compressed\codestream.cpp

; 2218 :       if (force_flush)

	je	SHORT $LN17@flush
; File e:\study\jpeg2000\visually_lossless_jpeg2000\modifiedkakadu\coresys\common\kdu_threads.h

; 1026 :         if (allow_exceptions && grouperr->failed) throw grouperr->failure_code;

	cmp	BYTE PTR [eax], 0
	mov	DWORD PTR _lock$1$[ebp], ecx
	jne	$LN116@flush
; File e:\study\jpeg2000\visually_lossless_jpeg2000\modifiedkakadu\coresys\common\kdu_elementary.h

; 534  :           return ((mutex != NULL) &&

	mov	eax, DWORD PTR [ecx]
	test	eax, eax
	je	SHORT $LN50@flush
	push	-1
	push	eax
	mov	eax, DWORD PTR __imp__WaitForSingleObject@8
	call	eax
	mov	ecx, DWORD PTR _lock$1$[ebp]
$LN50@flush:
; File e:\study\jpeg2000\visually_lossless_jpeg2000\modifiedkakadu\coresys\common\kdu_threads.h

; 1027 :         lock->mutex.lock(); lock->holder = this; }

	mov	DWORD PTR [ecx+4], ebx
	jmp	SHORT $LN19@flush
$LN17@flush:

; 1028 :       /* [SYNOPSIS]
; 1029 :            This function is used by the `kdu_codestream' interface and its
; 1030 :            descendants.  You will not normally invoke it directly from an
; 1031 :            application.
; 1032 :            [//]
; 1033 :            The mutexes which are locked by this function are fast,
; 1034 :            non-recursive mutexes.  You must not try to acquire the same
; 1035 :            lock a second time, without first releasing it.
; 1036 :            [//]
; 1037 :            Note that this function may throw an integer-valued exception if
; 1038 :            any other thread in the group terminates unexpectedly, invoking
; 1039 :            its `handle_exception' function.  To avoid this (e.g., when
; 1040 :            performing cleanup operations after an exception has already
; 1041 :            been thrown), set the `allow_exceptions' argument to false.
; 1042 :          [ARG: lock_id]
; 1043 :            Must be in the range 0 to L-1, where L is the value returned by
; 1044 :            `get_num_locks'.
; 1045 :          [ARG: allow_exceptions]
; 1046 :            If true, an exception will be thrown if the thread group is found
; 1047 :            to have failed somewhere.  This behaviour ensures that all
; 1048 :            participating threads in the group will eventually throw
; 1049 :            exceptions.
; 1050 :       */
; 1051 :     bool try_lock(int lock_id, bool allow_exceptions=true)
; 1052 :       { kd_thread_lock *lock = locks + lock_id;
; 1053 :         assert((lock_id>=0) && (lock_id<num_locks) && (lock->holder != this));
; 1054 :         if (allow_exceptions && grouperr->failed) throw grouperr->failure_code;

	cmp	BYTE PTR [eax], 0
	mov	DWORD PTR _lock$1$[ebp], ecx
	jne	$LN117@flush
; File e:\study\jpeg2000\visually_lossless_jpeg2000\modifiedkakadu\coresys\common\kdu_elementary.h

; 551  :           return ((mutex != NULL) &&

	mov	eax, DWORD PTR [ecx]
	test	eax, eax
	je	$LN111@flush
	push	0
	push	eax
	mov	eax, DWORD PTR __imp__WaitForSingleObject@8
	call	eax
	test	eax, eax
	jne	$LN111@flush
; File e:\study\jpeg2000\visually_lossless_jpeg2000\modifiedkakadu\coresys\common\kdu_threads.h

; 1056 :         lock->holder = this;  return true; }

	mov	eax, DWORD PTR _lock$1$[ebp]
	mov	DWORD PTR [eax+4], ebx
$LN19@flush:
; File e:\study\jpeg2000\visually_lossless_jpeg2000\modifiedkakadu\coresys\compressed\codestream.cpp

; 2224 :            n=KD_THREAD_MAX_OUTSTANDING_BLOCKS; n > 0; n--, scan++)

	mov	ebx, 8
	npad	1
$LL7@flush:

; 2225 :         {
; 2226 :           if (scan->target_precinct == NULL)

	mov	edx, DWORD PTR [esi+24]
	test	edx, edx
	je	SHORT $LN5@flush

; 2227 :             continue;
; 2228 :           kd_precinct *precinct = scan->target_precinct;
; 2229 :           kd_codestream *cs = precinct->resolution->codestream;

	mov	eax, DWORD PTR [edx]
	mov	eax, DWORD PTR [eax]
	mov	DWORD PTR _cs$1$[ebp], eax

; 2230 :           if (cs->in == NULL)

	cmp	DWORD PTR [eax+4], 0
	jne	SHORT $LN21@flush

; 2231 :             scan->target_block->transfer_data(scan->block);

	mov	ecx, DWORD PTR [esi+28]
; File e:\study\jpeg2000\visually_lossless_jpeg2000\modifiedkakadu\coresys\compressed\compressed_local.h

; 3701 :         current_buf = first_buf = src.first_buf;

	mov	eax, DWORD PTR [esi]
	mov	DWORD PTR [ecx], eax
	mov	DWORD PTR [ecx+4], eax

; 3702 :         *((kdu_int32 *) &buf_pos) = *((kdu_int32 *) &src.buf_pos);

	mov	eax, DWORD PTR [esi+8]
	mov	DWORD PTR [ecx+8], eax
	mov	eax, DWORD PTR _cs$1$[ebp]

; 3703 :         src.current_buf = src.first_buf = NULL;

	mov	DWORD PTR [esi], 0
	mov	DWORD PTR [esi+4], 0
$LN21@flush:
; File e:\study\jpeg2000\visually_lossless_jpeg2000\modifiedkakadu\coresys\compressed\codestream.cpp

; 2233 :           precinct->num_outstanding_blocks = 0;

	mov	DWORD PTR [edx+24], 0

; 2234 :           scan->target_precinct = NULL;

	mov	DWORD PTR [esi+24], 0

; 2235 :           scan->target_block = NULL;

	mov	DWORD PTR [esi+28], 0

; 2236 :           num_outstanding_blocks--;

	dec	DWORD PTR [edi+33168]

; 2237 :           if (cs->in != NULL)

	cmp	DWORD PTR [eax+4], 0
	je	SHORT $LN22@flush

; 2238 :             precinct->release();

	mov	ecx, edx
	call	?release@kd_precinct@@QAEXXZ		; kd_precinct::release
	jmp	SHORT $LN5@flush
$LN22@flush:

; 2239 :           else if (cs->out != NULL)

	cmp	DWORD PTR [eax+8], 0
	je	SHORT $LN5@flush

; 2240 :             precinct->resolution->rescomp->add_ready_precinct(precinct);

	mov	ecx, DWORD PTR [edx]
	push	edx
	mov	ecx, DWORD PTR [ecx+8]
	call	?add_ready_precinct@kd_global_rescomp@@QAEXPAUkd_precinct@@@Z ; kd_global_rescomp::add_ready_precinct
$LN5@flush:

; 2224 :            n=KD_THREAD_MAX_OUTSTANDING_BLOCKS; n > 0; n--, scan++)

	dec	ebx
	add	esi, 32					; 00000020H
	test	ebx, ebx
	jg	SHORT $LL7@flush

; 2241 :         }
; 2242 :       owner->have_outstanding_blocks = false;

	mov	eax, DWORD PTR [edi+128]
	mov	BYTE PTR [eax+44], 0
; File e:\study\jpeg2000\visually_lossless_jpeg2000\modifiedkakadu\coresys\compressed\compressed_local.h

; 353  :     bool is_attached() { return (ultimate_buf_server != NULL); }

	cmp	DWORD PTR [edi+33156], 0
; File e:\study\jpeg2000\visually_lossless_jpeg2000\modifiedkakadu\coresys\compressed\codestream.cpp

; 2243 :       if (buf_server.is_attached() && !have_only_input_precincts)

	je	SHORT $LN25@flush
	cmp	BYTE PTR _have_only_input_precincts$1$[ebp], 0
	jne	SHORT $LN25@flush

; 2244 :         buf_server.augment_local_store(true);

	push	1
	lea	ecx, DWORD PTR [edi+33132]
	call	?augment_local_store@kd_thread_buf_server@@QAEX_N@Z ; kd_thread_buf_server::augment_local_store
$LN25@flush:
; File e:\study\jpeg2000\visually_lossless_jpeg2000\modifiedkakadu\coresys\common\kdu_threads.h

; 1063 :       { kd_thread_lock *lock = locks + lock_id;

	mov	eax, DWORD PTR [edi+128]
	mov	eax, DWORD PTR [eax+28]

; 1064 :         assert((lock_id>=0) && (lock_id<num_locks) && (lock->holder == this));
; 1065 :         lock->holder = NULL;  lock->mutex.unlock(); }

	mov	DWORD PTR [eax+4], 0
; File e:\study\jpeg2000\visually_lossless_jpeg2000\modifiedkakadu\coresys\common\kdu_elementary.h

; 566  :           return ((mutex != NULL) && (ReleaseMutex(mutex)==TRUE));

	mov	eax, DWORD PTR [eax]
	test	eax, eax
	je	SHORT $LN111@flush
	push	eax
	call	DWORD PTR __imp__ReleaseMutex@4
$LN111@flush:
	pop	esi
	pop	ebx
$LN68@flush:
	pop	edi
; File e:\study\jpeg2000\visually_lossless_jpeg2000\modifiedkakadu\coresys\compressed\codestream.cpp

; 2248 : }

	mov	esp, ebp
	pop	ebp
	ret	4
$LN114@flush:
; File e:\study\jpeg2000\visually_lossless_jpeg2000\modifiedkakadu\coresys\common\kdu_threads.h

; 1026 :         if (allow_exceptions && grouperr->failed) throw grouperr->failure_code;

	mov	eax, DWORD PTR [ecx+4]
	mov	DWORD PTR $T3[ebp], eax
	lea	eax, DWORD PTR $T3[ebp]
	push	OFFSET __TI1H
	push	eax
	call	__CxxThrowException@8
$LN118@flush:
$LN116@flush:
	mov	eax, DWORD PTR [eax+4]
	mov	DWORD PTR $T2[ebp], eax
	lea	eax, DWORD PTR $T2[ebp]
	push	OFFSET __TI1H
	push	eax
	call	__CxxThrowException@8
$LN119@flush:
$LN117@flush:

; 1028 :       /* [SYNOPSIS]
; 1029 :            This function is used by the `kdu_codestream' interface and its
; 1030 :            descendants.  You will not normally invoke it directly from an
; 1031 :            application.
; 1032 :            [//]
; 1033 :            The mutexes which are locked by this function are fast,
; 1034 :            non-recursive mutexes.  You must not try to acquire the same
; 1035 :            lock a second time, without first releasing it.
; 1036 :            [//]
; 1037 :            Note that this function may throw an integer-valued exception if
; 1038 :            any other thread in the group terminates unexpectedly, invoking
; 1039 :            its `handle_exception' function.  To avoid this (e.g., when
; 1040 :            performing cleanup operations after an exception has already
; 1041 :            been thrown), set the `allow_exceptions' argument to false.
; 1042 :          [ARG: lock_id]
; 1043 :            Must be in the range 0 to L-1, where L is the value returned by
; 1044 :            `get_num_locks'.
; 1045 :          [ARG: allow_exceptions]
; 1046 :            If true, an exception will be thrown if the thread group is found
; 1047 :            to have failed somewhere.  This behaviour ensures that all
; 1048 :            participating threads in the group will eventually throw
; 1049 :            exceptions.
; 1050 :       */
; 1051 :     bool try_lock(int lock_id, bool allow_exceptions=true)
; 1052 :       { kd_thread_lock *lock = locks + lock_id;
; 1053 :         assert((lock_id>=0) && (lock_id<num_locks) && (lock->holder != this));
; 1054 :         if (allow_exceptions && grouperr->failed) throw grouperr->failure_code;

	mov	eax, DWORD PTR [eax+4]
	mov	DWORD PTR $T1[ebp], eax
	lea	eax, DWORD PTR $T1[ebp]
	push	OFFSET __TI1H
	push	eax
	call	__CxxThrowException@8
$LN120@flush:
$LN113@flush:
	int	3
?flush@kd_thread_env@@QAEX_N@Z ENDP			; kd_thread_env::flush
_TEXT	ENDS
; Function compile flags: /Ogtp
; File e:\study\jpeg2000\visually_lossless_jpeg2000\modifiedkakadu\coresys\compressed\codestream.cpp
; File e:\study\jpeg2000\visually_lossless_jpeg2000\modifiedkakadu\coresys\compressed\compressed_local.h
; File e:\study\jpeg2000\visually_lossless_jpeg2000\modifiedkakadu\coresys\compressed\codestream.cpp
; File e:\study\jpeg2000\visually_lossless_jpeg2000\modifiedkakadu\coresys\common\kdu_threads.h
; File e:\study\jpeg2000\visually_lossless_jpeg2000\modifiedkakadu\coresys\common\kdu_elementary.h
; File e:\study\jpeg2000\visually_lossless_jpeg2000\modifiedkakadu\coresys\common\kdu_threads.h
; File e:\study\jpeg2000\visually_lossless_jpeg2000\modifiedkakadu\coresys\compressed\codestream.cpp
; File e:\study\jpeg2000\visually_lossless_jpeg2000\modifiedkakadu\coresys\common\kdu_threads.h
; File e:\study\jpeg2000\visually_lossless_jpeg2000\modifiedkakadu\coresys\common\kdu_elementary.h
; File e:\study\jpeg2000\visually_lossless_jpeg2000\modifiedkakadu\coresys\common\kdu_threads.h
; File e:\study\jpeg2000\visually_lossless_jpeg2000\modifiedkakadu\coresys\compressed\codestream.cpp
; File e:\study\jpeg2000\visually_lossless_jpeg2000\modifiedkakadu\coresys\common\kdu_threads.h
; File e:\study\jpeg2000\visually_lossless_jpeg2000\modifiedkakadu\coresys\common\kdu_elementary.h
; File e:\study\jpeg2000\visually_lossless_jpeg2000\modifiedkakadu\coresys\common\kdu_threads.h
; File e:\study\jpeg2000\visually_lossless_jpeg2000\modifiedkakadu\coresys\common\kdu_elementary.h
; File e:\study\jpeg2000\visually_lossless_jpeg2000\modifiedkakadu\coresys\compressed\codestream.cpp
; File e:\study\jpeg2000\visually_lossless_jpeg2000\modifiedkakadu\coresys\common\kdu_threads.h
; File e:\study\jpeg2000\visually_lossless_jpeg2000\modifiedkakadu\coresys\compressed\codestream.cpp
;	COMDAT ?reconcile_stats@kd_thread_env@@QAEXXZ
_TEXT	SEGMENT
_lock$1$ = -4						; size = 4
$T1 = -4						; size = 4
$T2 = -4						; size = 4
?reconcile_stats@kd_thread_env@@QAEXXZ PROC		; kd_thread_env::reconcile_stats, COMDAT
; _this$ = ecx

; 2145 : {

	push	ebp
	mov	ebp, esp
	push	ecx
	push	esi
	mov	esi, ecx

; 2146 :   if ((stats_codestream != NULL) && (stats_codestream->stats != NULL) &&

	mov	eax, DWORD PTR [esi+33128]
	test	eax, eax
	je	$LN36@reconcile_
	cmp	DWORD PTR [eax+32], 0
	je	$LN36@reconcile_
; File e:\study\jpeg2000\visually_lossless_jpeg2000\modifiedkakadu\coresys\compressed\compressed_local.h

; 1325 :     bool is_empty() { return (num_coded_samples == 0); }

	mov	eax, DWORD PTR [esi+328]
	or	eax, DWORD PTR [esi+332]
	je	$LN36@reconcile_
; File e:\study\jpeg2000\visually_lossless_jpeg2000\modifiedkakadu\coresys\compressed\codestream.cpp

; 2149 :       owner->acquire_lock(KD_THREADLOCK_STATS);

	push	ebx
	mov	ebx, DWORD PTR [esi+128]
	push	edi
; File e:\study\jpeg2000\visually_lossless_jpeg2000\modifiedkakadu\coresys\common\kdu_threads.h

; 1026 :         if (allow_exceptions && grouperr->failed) throw grouperr->failure_code;

	mov	eax, DWORD PTR [ebx+20]
	mov	edi, DWORD PTR [ebx+28]
	cmp	BYTE PTR [eax], 0
	jne	$LN41@reconcile_
; File e:\study\jpeg2000\visually_lossless_jpeg2000\modifiedkakadu\coresys\common\kdu_elementary.h

; 534  :           return ((mutex != NULL) &&

	mov	eax, DWORD PTR [edi+8]
	test	eax, eax
	je	SHORT $LN16@reconcile_
	push	-1
	push	eax
	call	DWORD PTR __imp__WaitForSingleObject@8
$LN16@reconcile_:
; File e:\study\jpeg2000\visually_lossless_jpeg2000\modifiedkakadu\coresys\common\kdu_threads.h

; 1027 :         lock->mutex.lock(); lock->holder = this; }

	mov	DWORD PTR [edi+12], ebx
; File e:\study\jpeg2000\visually_lossless_jpeg2000\modifiedkakadu\coresys\compressed\codestream.cpp

; 2150 :       bool need_trim = stats_codestream->stats->update_stats(stats) &&

	lea	eax, DWORD PTR [esi+296]
	mov	ecx, DWORD PTR [esi+33128]
	push	eax
	mov	ecx, DWORD PTR [ecx+32]
	call	?update_stats@kd_compressed_stats@@QAE_NAAV1@@Z ; kd_compressed_stats::update_stats
	test	al, al
	je	SHORT $LN5@reconcile_
	mov	eax, DWORD PTR [esi+33128]
	cmp	BYTE PTR [eax+343], 0
	jne	SHORT $LN5@reconcile_
	mov	bl, 1
	jmp	SHORT $LN6@reconcile_
$LN5@reconcile_:
	xor	bl, bl
$LN6@reconcile_:

; 2151 :                        !stats_codestream->header_generated;
; 2152 :       stats_codestream->stats->update_quant_slope_thresholds();

	mov	ecx, DWORD PTR [esi+33128]
	mov	ecx, DWORD PTR [ecx+32]
	call	?update_quant_slope_thresholds@kd_compressed_stats@@QAEXXZ ; kd_compressed_stats::update_quant_slope_thresholds

; 2153 :       if (need_trim)

	test	bl, bl
	mov	ebx, DWORD PTR __imp__ReleaseMutex@4
	je	SHORT $LN30@reconcile_

; 2154 :         { // Need both the precinct lock and the general lock for trimming.
; 2155 :           // Trimming is not recommended for multi-processor platforms.
; 2156 :           owner->acquire_lock(KD_THREADLOCK_GENERAL);

	mov	edi, DWORD PTR [esi+128]
; File e:\study\jpeg2000\visually_lossless_jpeg2000\modifiedkakadu\coresys\common\kdu_threads.h

; 1026 :         if (allow_exceptions && grouperr->failed) throw grouperr->failure_code;

	mov	eax, DWORD PTR [edi+20]
	mov	ecx, DWORD PTR [edi+28]
	mov	DWORD PTR _lock$1$[ebp], ecx
	cmp	BYTE PTR [eax], 0
	jne	SHORT $LN43@reconcile_
; File e:\study\jpeg2000\visually_lossless_jpeg2000\modifiedkakadu\coresys\common\kdu_elementary.h

; 534  :           return ((mutex != NULL) &&

	mov	eax, DWORD PTR [ecx]
	test	eax, eax
	je	SHORT $LN24@reconcile_
	push	-1
	push	eax
	call	DWORD PTR __imp__WaitForSingleObject@8
	mov	ecx, DWORD PTR _lock$1$[ebp]
$LN24@reconcile_:
; File e:\study\jpeg2000\visually_lossless_jpeg2000\modifiedkakadu\coresys\common\kdu_threads.h

; 1027 :         lock->mutex.lock(); lock->holder = this; }

	mov	DWORD PTR [ecx+4], edi
; File e:\study\jpeg2000\visually_lossless_jpeg2000\modifiedkakadu\coresys\compressed\codestream.cpp

; 2157 :           stats_codestream->trim_compressed_data();

	mov	ecx, DWORD PTR [esi+33128]
	call	?trim_compressed_data@kd_codestream@@QAEXXZ ; kd_codestream::trim_compressed_data
; File e:\study\jpeg2000\visually_lossless_jpeg2000\modifiedkakadu\coresys\common\kdu_threads.h

; 1063 :       { kd_thread_lock *lock = locks + lock_id;

	mov	eax, DWORD PTR [esi+128]
	mov	eax, DWORD PTR [eax+28]

; 1064 :         assert((lock_id>=0) && (lock_id<num_locks) && (lock->holder == this));
; 1065 :         lock->holder = NULL;  lock->mutex.unlock(); }

	mov	DWORD PTR [eax+4], 0
; File e:\study\jpeg2000\visually_lossless_jpeg2000\modifiedkakadu\coresys\common\kdu_elementary.h

; 566  :           return ((mutex != NULL) && (ReleaseMutex(mutex)==TRUE));

	mov	eax, DWORD PTR [eax]
	test	eax, eax
	je	SHORT $LN30@reconcile_
	push	eax
	call	ebx
$LN30@reconcile_:
; File e:\study\jpeg2000\visually_lossless_jpeg2000\modifiedkakadu\coresys\common\kdu_threads.h

; 1063 :       { kd_thread_lock *lock = locks + lock_id;

	mov	eax, DWORD PTR [esi+128]
	mov	eax, DWORD PTR [eax+28]

; 1064 :         assert((lock_id>=0) && (lock_id<num_locks) && (lock->holder == this));
; 1065 :         lock->holder = NULL;  lock->mutex.unlock(); }

	mov	DWORD PTR [eax+12], 0
; File e:\study\jpeg2000\visually_lossless_jpeg2000\modifiedkakadu\coresys\common\kdu_elementary.h

; 566  :           return ((mutex != NULL) && (ReleaseMutex(mutex)==TRUE));

	mov	eax, DWORD PTR [eax+8]
	test	eax, eax
	je	SHORT $LN39@reconcile_
	push	eax
	call	ebx
$LN39@reconcile_:
	pop	edi
	pop	ebx
$LN36@reconcile_:
; File e:\study\jpeg2000\visually_lossless_jpeg2000\modifiedkakadu\coresys\compressed\codestream.cpp

; 2162 :   stats_codestream = NULL; // So we know that all is reconciled and we are

	mov	DWORD PTR [esi+33128], 0
	pop	esi

; 2164 : }

	mov	esp, ebp
	pop	ebp
	ret	0
$LN41@reconcile_:
; File e:\study\jpeg2000\visually_lossless_jpeg2000\modifiedkakadu\coresys\common\kdu_threads.h

; 1026 :         if (allow_exceptions && grouperr->failed) throw grouperr->failure_code;

	mov	eax, DWORD PTR [eax+4]
	mov	DWORD PTR $T2[ebp], eax
	lea	eax, DWORD PTR $T2[ebp]
	push	OFFSET __TI1H
	push	eax
	call	__CxxThrowException@8
$LN44@reconcile_:
$LN43@reconcile_:
	mov	eax, DWORD PTR [eax+4]
	mov	DWORD PTR $T1[ebp], eax
	lea	eax, DWORD PTR $T1[ebp]
	push	OFFSET __TI1H
	push	eax
	call	__CxxThrowException@8
$LN45@reconcile_:
$LN40@reconcile_:
	int	3
?reconcile_stats@kd_thread_env@@QAEXXZ ENDP		; kd_thread_env::reconcile_stats
_TEXT	ENDS
; Function compile flags: /Ogtp
; File e:\study\jpeg2000\visually_lossless_jpeg2000\modifiedkakadu\coresys\compressed\compressed_local.h
;	COMDAT ??0kd_thread_env@@QAE@PAVkdu_thread_env@@@Z
_TEXT	SEGMENT
_this$ = -4						; size = 4
_owner$ = 8						; size = 4
??0kd_thread_env@@QAE@PAVkdu_thread_env@@@Z PROC	; kd_thread_env::kd_thread_env, COMDAT
; _this$ = ecx

; 4553 :     kd_thread_env(kdu_thread_env *owner)

	push	ebp
	mov	ebp, esp
	push	ecx
	push	esi
	mov	esi, ecx
	mov	DWORD PTR _this$[ebp], esi

; 4554 :       {

	lea	ecx, DWORD PTR [esi+136]
	call	??0kdu_block@@AAE@XZ			; kdu_block::kdu_block
	lea	ecx, DWORD PTR [esi+296]

; 418  :       }
; 419  :   private: // Data
; 420  :     kd_thread_env *env;
; 421  :     int peak_buffers; // See the `adjust_peak_buffers' function.
; 422  :     int num_available_buffers; // Number of buffers on the `head' list.
; 423  :     int ref_available_buffers; // Adjusted so that `ref_available_buffers' -
; 424  :          // `num_available_buffers' is always equal to the number of buffers
; 425  :          // allocated via `get' since the last call to `adjust_peak_buffers'.
; 426  :     kd_code_buffer *head;
; 427  :     kd_code_buffer *tail;
; 428  :     kd_buf_server *ultimate_buf_server; // All buffers are allocated from here
; 429  :     kd_thread_buf_server *next_attached; // Used to build a doubly linked list
; 430  :     kd_thread_buf_server *prev_attached; // of objects which are all attached
; 431  :                      // to the same `ultimate_buf_server'.
; 432  :   };
; 433  : 
; 434  : /*****************************************************************************/
; 435  : /*                             kd_compressed_output                          */
; 436  : /*****************************************************************************/
; 437  : 
; 438  : class kd_compressed_output : public kdu_output {
; 439  :   public: // Member functions
; 440  :     kd_compressed_output(kdu_compressed_target *target)
; 441  :       { this->target=target; flushed_bytes = 0; }
; 442  :     virtual ~kd_compressed_output()
; 443  :       { flush_buf(); }
; 444  :     kdu_compressed_target *access_tgt()
; 445  :       { /* You may call this function to access the underlying `target'
; 446  :            object, but you should never manipulate that object if you
; 447  :            have written anything to the present object, without re-accessing
; 448  :            it. */
; 449  :            flush_buf();  return target;
; 450  :       }
; 451  :     kdu_long get_bytes_written()
; 452  :       { return (flushed_bytes + (next_buf-buffer)); }
; 453  :     void flush()
; 454  :       { flush_buf(); }
; 455  :   protected: // Virtual functions which implement required services.
; 456  :     virtual void flush_buf()
; 457  :       {
; 458  :         if (next_buf > buffer)
; 459  :           target->write(buffer,(int)(next_buf-buffer));
; 460  :         flushed_bytes += next_buf - buffer;
; 461  :         next_buf = buffer;
; 462  :       }
; 463  :   private: // Data
; 464  :     kdu_compressed_target *target;
; 465  :     kdu_long flushed_bytes;
; 466  :   };
; 467  : 
; 468  : /*****************************************************************************/
; 469  : /*                                kd_input                                   */
; 470  : /*****************************************************************************/
; 471  : 
; 472  : #define KD_IBUF_SIZE 512
; 473  : #define KD_IBUF_PUTBACK 6 // Maximum number of bytes you can put back.
; 474  : 
; 475  : class kd_input {
; 476  :   /* This abstract base class must be derived to construct meaningful
; 477  :      input devices.  Currently, we have two derived classes in mind: one
; 478  :      for reading from the code-stream and one for recovering packet
; 479  :      headers from PPM or PPT markers.  Since there may be many low level
; 480  :      byte-oriented transactions, we emphasize efficiency for such
; 481  :      transactions. */
; 482  :   public: // Member functions
; 483  :     kd_input()
; 484  :       { first_unread = first_unwritten = buffer+KD_IBUF_PUTBACK;
; 485  :         exhausted = fully_buffered = throw_markers = false; }
; 486  :     virtual ~kd_input() { return; }
; 487  :     bool is_fully_buffered() { return fully_buffered; }
; 488  :     void enable_marker_throwing(bool reject_all=false)
; 489  :       { /* If `reject_all' is false, subsequent reads will throw an exception
; 490  :            if a bona fide SOP or SOT marker is found. In this case, the
; 491  :            function will check to make sure that the length field is correct,
; 492  :            putting the length field and marker code bytes back to the source
; 493  :            before throwing the exception, so that the catch statement can read
; 494  :            them again.
; 495  :               If `reject_all' is true, subsequent reads will throw an
; 496  :            exception if any marker code in the range FF90 to FFFF is found.
; 497  :            Again, the marker code itself is put back onto the stream before
; 498  :            throwing the exception.
; 499  :               Marker throwing is disabled before throwing an exception for
; 500  :            either of the above reasons.
; 501  :               Note that code-stream reading may be slowed down
; 502  :            when this marker throwing is enabled.  For this reason, the
; 503  :            capability is best used only when error resilience or error
; 504  :            detection capabilities are required. */
; 505  :         this->reject_all = reject_all; throw_markers = true; have_FF = false;
; 506  :       }
; 507  :     bool disable_marker_throwing()
; 508  :       { /* Disable marker exception throwing.  Returns true unless the
; 509  :            last byte which was read was an FF, in which case the function
; 510  :            returns false.  This allows the caller to catch markers which
; 511  :            were partially read.  Any code-stream segment which is not
; 512  :            permitted to contain a marker code in the range FF90 through FFFF
; 513  :            is also not permitted to terminate with an FF. */
; 514  :         if (!throw_markers) return true;
; 515  :         throw_markers = false; // Must not touch `reject_all' here.
; 516  :         if (exhausted) have_FF = false;
; 517  :         return !have_FF;
; 518  :       }
; 519  :     void terminate_prematurely()
; 520  :       { /* This function may be called in non-resilient mode if an EOC marker
; 521  :            is encountered before the stream physically ends. */
; 522  :         exhausted = true;
; 523  :       }
; 524  :     bool failed()
; 525  :       { /* Returns true if any of the input functions, `get', `read' or
; 526  :            `ignore' failed to completely fulfill its objective due to
; 527  :            exhaustion of the relevant source. */
; 528  :         return exhausted;
; 529  :       }
; 530  :     bool get(kdu_byte &byte) // throws (kdu_uint16 code): unexpected marker
; 531  :       { /* Access a single byte, returning false if and only if the source is
; 532  :            exhausted, in which case future calls to `failed' return true. */
; 533  :         if (exhausted || ((first_unread==first_unwritten) && !load_buf()))
; 534  :           return false; // If `load_buf' fails it sets `exhausted' for us.
; 535  :         byte = *(first_unread++);
; 536  :         if (throw_markers)
; 537  :           {
; 538  :             if (have_FF && (byte > 0x8F))
; 539  :               process_unexpected_marker(byte);
; 540  :             have_FF = (byte==0xFF);
; 541  :           }
; 542  :         return true;
; 543  :       }
; 544  :     void putback(kdu_byte byte)
; 545  :       { /* You may put back more than 1 byte, but you may not call this
; 546  :            function if a previous read has ever failed.  It is also illegal
; 547  :            to call this function while marker throwing is enabled. */
; 548  :         assert(!exhausted);
; 549  :         assert(!throw_markers);
; 550  :         first_unread--;
; 551  :         if (!fully_buffered)
; 552  :           {
; 553  :             assert(first_unread >= buffer);
; 554  :             *first_unread = byte;
; 555  :           }
; 556  :       }
; 557  :     void putback(kdu_uint16 code)
; 558  :       { /* This function is designed to improve the readability of code
; 559  :            which puts marker codes back to the input object from which they
; 560  :            were read. */
; 561  :         assert(!exhausted);
; 562  :         assert(!throw_markers);
; 563  :         first_unread-=2;
; 564  :         if (!fully_buffered)
; 565  :           {
; 566  :             assert(first_unread >= buffer);
; 567  :             first_unread[0] = (kdu_byte)(code>>8);
; 568  :             first_unread[1] = (kdu_byte) code;
; 569  :           }
; 570  :       }
; 571  :     int pseudo_read(kdu_byte * &addr, int count)
; 572  :       { /* This function should be called only for `fully_buffered' sources.
; 573  :            It behaves like `read', except that it does not actually read
; 574  :            any bytes.  Instead, it puts the address of the block of data
; 575  :            that would have been read into the variable referenced by the
; 576  :            `addr' argument. */
; 577  :         assert(fully_buffered);
; 578  :         addr = first_unread;
; 579  :         if (throw_markers)
; 580  :           return read(addr,count); // Slower path, looks for markers
; 581  :         first_unread += count;
; 582  :         if (first_unread > first_unwritten)
; 583  :           {
; 584  :             count -= (int)(first_unread - first_unwritten);
; 585  :             first_unread = first_unwritten; exhausted = true;
; 586  :           }
; 587  :         return count;
; 588  :       }
; 589  :     int read(kdu_byte *buf, int count);
; 590  :       /* More efficient than `get' when the number of bytes to be read is
; 591  :          more than 2 or 3.  Returns the number of bytes actually read.  If
; 592  :          less than `count', future calls to `failed' will return true.  Note
; 593  :          that this function is less efficient if marker throwing is enabled. */
; 594  :     int read(kd_code_buffer * &cbuf, kdu_byte &buf_pos,
; 595  :              kd_buf_server *buf_server, int length);
; 596  :       /* Same as the above function, except that the requested bytes are
; 597  :          written to a linked list of `kd_code_buffer' buffers, headed by
; 598  :          `cbuf', where the `buf_pos' indicates the next free byte in the
; 599  :          `cbuf' buffer.  The function automatically grows the linked list
; 600  :          of buffers, as required, using `buf_server->get()'.  Upon return,
; 601  :          the `cbuf' and `buf_pos' variables are advanced to refer to the
; 602  :          most recently written `kd_code_buffer' object and the already
; 603  :          written prefix of that object, respectively.  The function
; 604  :          returns the actual number of bytes transferred in this way, which
; 605  :          is equal to `length' unless the ultimate source of data ran dry. */
; 606  :     virtual kdu_long ignore(kdu_long count);
; 607  :       /* Skips over the indicated number of bytes, returning the number of
; 608  :          bytes actually skipped.  If less than `count', future calls to
; 609  :          `failed' will return true.  The function may be overridden by
; 610  :          derived classes which support seeking. */
; 611  :   protected: // Data and functions used for buffer management.
; 612  :     virtual bool load_buf() = 0;
; 613  :       /* Returns false and sets `exhausted' to true if the source is unable
; 614  :          to provide any more data.  Otherwise, augments the internal buffer
; 615  :          and returns true.  Buffer manipulation must conform to the following
; 616  :          conventions.  The `first_unread' pointer should be set to
; 617  :          `buffer'+KD_IBUF_PUTBACK and then bytes should be loaded into the
; 618  :          remaining KD_IBUF_SIZE bytes of the `buffer' array. The
; 619  :          `first_unwritten' pointer should then be set to point just beyond
; 620  :          the last byte actually written into the buffer.  The only exception
; 621  :          to the above conventions is for fully buffered sources, in which
; 622  :          the entire data source lies in a contiguous external memory buffer.
; 623  :          In this case, the internal `buffer' is not used; the first call to
; 624  :          `load_buf' sets `first_unread' to point to the start of the external
; 625  :          memory buffer and `first_unwritten' to point just beyond the external
; 626  :          memory buffer.  In this case, the `fully_buffered' flag should be
; 627  :          set to true, which signals to the `putback' functions that it is
; 628  :          sufficient for them to adjust the `first_unread' pointer, without
; 629  :          actually writing anything. */
; 630  :     kdu_byte buffer[KD_IBUF_SIZE+KD_IBUF_PUTBACK];
; 631  :     kdu_byte *first_unread; // Points to next byte to retrieve from buffer.
; 632  :     kdu_byte *first_unwritten; // Points beyond last available byte in buffer
; 633  :     bool fully_buffered;
; 634  :     bool exhausted;
; 635  :     bool throw_markers; // If true, must look for unexpected markers.
; 636  :   private: // Functions
; 637  :     void process_unexpected_marker(kdu_byte last_byte);
; 638  :       /* This function is called when marker throwing is enabled and a
; 639  :          marker code in the range FF90 through FFFF has been found.  The
; 640  :          least significant byte of the marker code is supplied as the
; 641  :          `last_byte' argument.  The function determines whether to throw
; 642  :          the exception or not.  If not, reading continues unaffected. */
; 643  :   private: // Data
; 644  :     bool have_FF; // Valid only with `throw_markers'. Means last byte was FF.
; 645  :     bool reject_all; // If `false' marker throwing is only for SOP's and SOT's
; 646  :   };
; 647  :   
; 648  : /*****************************************************************************/
; 649  : /*                             kd_compressed_input                           */
; 650  : /*****************************************************************************/
; 651  : 
; 652  : class kd_compressed_input : public kd_input {
; 653  :   public: // Member functions
; 654  :     kd_compressed_input(kdu_compressed_source *source);
; 655  :     int get_capabilities()
; 656  :       { return source->get_capabilities(); }
; 657  :     bool set_tileheader_scope(int tnum, int num_tiles);
; 658  :       /* Generates an error through `kdu_error' if the embedded source does
; 659  :          not support the `KDU_SOURCE_CAP_CACHED' capability.  This function
; 660  :          simply calls the source's own `set_tileheader_scope' function and
; 661  :          clears the internal state variables (especially, the `exhausted'
; 662  :          member) so that subsequent reads will recover bytes from the indicated
; 663  :          tile's header.  For more information, refer to the comments appearing
; 664  :          with `kdu_compressed_source::set_tileheader_scope'. */
; 665  :     kdu_long get_offset()
; 666  :       { /* Returns the address of the next byte which will be returned by the
; 667  :            base object's `get' function.  If seeking is enabled, the source
; 668  :            may be repositioned to this point by supplying this address as the
; 669  :            `unique_address' argument to `seek'.  Even if seeking is not
; 670  :            enabled, `get_offset' will return the correct address and this may
; 671  :            be used to determine appropriate arguments for the `ignore' member
; 672  :            function declared below.  May not be called if the source is in
; 673  :            anything other than code-stream scope. */
; 674  :         assert(!special_scope);
; 675  :         return cur_offset + last_loaded_bytes - (first_unwritten-first_unread);
; 676  :       }
; 677  :     void seek(kdu_long unique_address);
; 678  :       /* If `unique_address' is non-negative, it is treated as a code-stream
; 679  :          offset and the function seeks to a point `unique_address' bytes past
; 680  :          the beginning of the code-stream (SOC marker), using the embedded
; 681  :          `kdu_compressed_source' object's `seek' function.  In this case,
; 682  :          a terminal error is generated if the source does not
; 683  :          offer the KDU_SOURCE_CAP_SEEKABLE capability.
; 684  :             If `unique_address' is negative, the function treats
; 685  :          -(1+`unique_address') as the unique identifier associated with a
; 686  :          cached precinct, supplying this identifier to the embedded
; 687  :          `kdu_compressed_source' object's `set_precinct_scope' function.  In
; 688  :          this case, a terminal error is generated if the source does not
; 689  :          offer the KDU_SOURCE_CAP_CACHEABLE capability.
; 690  :             In either case, the function may clear or set the "exhausted"
; 691  :          state, so that the base object's `failed' member function may return
; 692  :          false, having previously returned true, or vice-versa. */
; 693  :     kdu_long ignore(kdu_long count); // Overrides `kd_input::ignore'.
; 694  :     void set_max_bytes(kdu_long limit);
; 695  :       /* No effect except when reading in code-stream scope. */
; 696  :     kdu_long get_bytes_read();
; 697  :       /* Returns the smallest initial prefix of the source stream which
; 698  :          contains all of the bytes consumed from `kd_input'.  Note that more
; 699  :          bytes may have been read from the compressed data source and
; 700  :          buffered internally, without having been actually used.
; 701  :             For cached sources (those advertising the KDU_SOURCE_CAP_CACHED
; 702  :          capability), the function's return value will be 0, unless we
; 703  :          are still reading the main header. */
; 704  :     kdu_long get_suspended_bytes();
; 705  :       /* Returns the total number of bytes which have been read in the
; 706  :          suspended state.  The returned value may be subtracted from
; 707  :          the value returned by `get_bytes_read' to determine the total
; 708  :          number of bytes which have been read in a non-suspended state.
; 709  :          Byte limits apply only to non-suspended reads. */
; 710  :     void set_suspend(bool state)
; 711  :       {
; 712  :         if (special_scope) return;
; 713  :         if ((suspend_ptr == NULL) && state)
; 714  :           { // Enter suspended mode
; 715  :             suspend_ptr = first_unread;
; 716  :             if (alt_first_unwritten != NULL)
; 717  :               {
; 718  :                 assert(alt_first_unwritten > first_unwritten);
; 719  :                 last_loaded_bytes += alt_first_unwritten - first_unwritten;
; 720  :                 first_unwritten = alt_first_unwritten;
; 721  :                 alt_first_unwritten = NULL;
; 722  :               }
; 723  :           }
; 724  :         else if ((suspend_ptr != NULL) && !state)
; 725  :           { // Leave suspended mode
; 726  :             suspended_bytes += first_unread-suspend_ptr;  suspend_ptr = NULL;
; 727  :             kdu_long limit = suspended_bytes + max_bytes_allowed - cur_offset;
; 728  :             if (limit < last_loaded_bytes)
; 729  :               { // We have already loaded the buffer with too many bytes
; 730  :                 alt_first_unwritten = first_unwritten;
; 731  :                 first_unwritten -= (last_loaded_bytes - limit);
; 732  :                 last_loaded_bytes = limit;
; 733  :                 if (first_unwritten < first_unread)
; 734  :                   { // We have already read past the end.
; 735  :                     exhausted = true;
; 736  :                     suspended_bytes -= (first_unread-first_unwritten);
; 737  :                     first_unwritten = first_unread;
; 738  :                     alt_first_unwritten = NULL;
; 739  :                   }
; 740  :               }
; 741  :           }
; 742  :       }
; 743  :   protected: // Virtual functions which implement required services.
; 744  :     virtual bool load_buf();
; 745  :   private: // Data
; 746  :     kdu_compressed_source *source;
; 747  :     kdu_long cur_offset; // Offset from start of code-stream
; 748  :     kdu_long max_bytes_allowed; // Source may have fewer bytes than this
; 749  :     kdu_long max_address_read; // Address of last byte read from base object.
; 750  :     kdu_long suspended_bytes; // Bytes read while in suspended mode.
; 751  :     kdu_long last_loaded_bytes; // Num bytes added by last call to `load_buf'
; 752  :     kdu_byte *suspend_ptr; // Points into the buffer
; 753  :     kdu_byte *alt_first_unwritten; // See below
; 754  :     bool special_scope; // True for anything other than code-stream scope.
; 755  :   };
; 756  :   /* Notes:
; 757  :         The `cur_offset' member holds the offset from the start of the
; 758  :      code-stream to the first nominal byte in the input buffer; i.e., the
; 759  :      byte at kd_input::buffer + KD_IBUF_PUTBACK.  The actual number of bytes
; 760  :      which have been read from `source' is larger by the amount
; 761  :      `kd_input::first_unwritten' - (`kd_input::buffer'+KD_IBUF_PUTBACK).
; 762  :         The object may be placed in a suspended mode while reading data
; 763  :      which belongs to code-stream packets which lie outside the current
; 764  :      resolution, components or layers of interest.  This allows the
; 765  :      application to set a byte limit which applies only to the relevant
; 766  :      data which would be left if the irrelevant data were first parsed
; 767  :      out of the code-stream.  The object is in suspended mode if and only
; 768  :      if `suspend_ptr' is non-NULL.  In this case, `suspend_ptr' holds the
; 769  :      value of `kd_input::first_unread' immediately prior to the point at
; 770  :      which the object entered the suspended mode.  The total number of
; 771  :      bytes consumed while in the suspended mode is maintained by the
; 772  :      `suspended_bytes' member, but use the function, `get_suspended_bytes'
; 773  :      to evaluate a reliable count of the number of suspended bytes, which
; 774  :      takes into account activity within the `kd_input' object of which
; 775  :      the derived object might not be aware.
; 776  :         The `alt_first_unwritten' member is used to keep track of bytes in
; 777  :      the buffer which may be inaccessible while in the regular (non-suspended)
; 778  :      mode, which may need to be made accessible while the object is in the
; 779  :      suspended mode.  This member holds NULL until exiting the suspended mode
; 780  :      requires `first_unwritten' to be truncated to account for a byte limit.
; 781  :      At that point, it is set to the value of the `first_unwritten' member
; 782  :      prior to truncation.  When the object enters the suspended mode, any
; 783  :      non-NULL `alt_first_unwritten' value is copied to `first_unwritten'. */
; 784  : 
; 785  : /*****************************************************************************/
; 786  : /*                               kd_pph_input                                */
; 787  : /*****************************************************************************/
; 788  : 
; 789  : class kd_pph_input : public kd_input {
; 790  :   /* Alternate input for packet header bytes, which is used in conjunction
; 791  :      with the PPM and PPT marker segments. */
; 792  :   public: // Member functions
; 793  :     kd_pph_input(kd_buf_server *server)
; 794  :       { buf_server = server; first_buf = read_buf = write_buf = NULL; }
; 795  :     virtual ~kd_pph_input();
; 796  :     void add_bytes(kdu_byte *data, int num_bytes);
; 797  :       /* This function is called when unpacking a PPM or PPT marker, to
; 798  :          augment the current object. */
; 799  :   protected: // Virtual functions which implement required services.
; 800  :     virtual bool load_buf();
; 801  :   private: // Data
; 802  :     kd_code_buffer *first_buf;
; 803  :     kd_code_buffer *read_buf, *write_buf;
; 804  :     int read_pos, write_pos;
; 805  :     kd_buf_server *buf_server;
; 806  :   };
; 807  :   /* Notes:
; 808  :         `first_buf' points to the first in a linked list of buffers used to
; 809  :      temporarily store PPM or PPT marker segment bytes.
; 810  :         `read_buf' points to the element in the linked list of code buffers
; 811  :      which is currently being read; `read_pos' points to the next element of
