; Listing generated by Microsoft (R) Optimizing Compiler Version 19.00.23506.0 

	TITLE	E:\study\JPEG2000\visually_lossless_JPEG2000\ModifiedKakadu\coresys\compressed\compressed.cpp
	.686P
	.XMM
	include listing.inc
	.model	flat

INCLUDELIB MSVCRT
INCLUDELIB OLDNAMES

PUBLIC	??_H@YGXPAXIIP6EPAX0@Z@Z			; `vector constructor iterator'
PUBLIC	?__empty_global_delete@@YAXPAX@Z		; __empty_global_delete
PUBLIC	?__empty_global_delete@@YAXPAXI@Z		; __empty_global_delete
PUBLIC	___local_stdio_printf_options
PUBLIC	??$__vcrt_va_start_verify_argument_type@QBD@@YAXXZ ; __vcrt_va_start_verify_argument_type<char const * const>
PUBLIC	_sprintf
PUBLIC	?put_text@kdu_message@@UAEXPBG@Z		; kdu_message::put_text
PUBLIC	??6kdu_message@@QAEAAV0@H@Z			; kdu_message::operator<<
PUBLIC	?put_text@kdu_message_formatter@@UAEXPBG@Z	; kdu_message_formatter::put_text
PUBLIC	?put_text@kdu_error@@UAEXPBG@Z			; kdu_error::put_text
PUBLIC	?put_text@kdu_warning@@UAEXPBG@Z		; kdu_warning::put_text
PUBLIC	??1kdu_output@@UAE@XZ				; kdu_output::~kdu_output
PUBLIC	?put@kdu_output@@QAEHI@Z			; kdu_output::put
PUBLIC	??_Gkdu_output@@UAEPAXI@Z			; kdu_output::`scalar deleting destructor'
PUBLIC	??0kdu_kernel_step_info@@QAE@XZ			; kdu_kernel_step_info::kdu_kernel_step_info
PUBLIC	??1kdu_kernels@@QAE@XZ				; kdu_kernels::~kdu_kernels
PUBLIC	?release_lock@kdu_thread_entity@@QAEXH@Z	; kdu_thread_entity::release_lock
PUBLIC	??_4kdu_dims@@QAE?AU0@AAU0@@Z			; kdu_dims::operator&=
PUBLIC	?intersects@kdu_dims@@QAE_NAAU1@@Z		; kdu_dims::intersects
PUBLIC	?close@kdu_tile@@QAEXPAVkdu_thread_env@@@Z	; kdu_tile::close
PUBLIC	?get_tnum@kdu_tile@@QAEHXZ			; kdu_tile::get_tnum
PUBLIC	?get_tile_idx@kdu_tile@@QAE?AUkdu_coords@@XZ	; kdu_tile::get_tile_idx
PUBLIC	?get_ycc@kdu_tile@@QAE_NXZ			; kdu_tile::get_ycc
PUBLIC	?set_components_of_interest@kdu_tile@@QAEXHPBH@Z ; kdu_tile::set_components_of_interest
PUBLIC	?get_mct_block_info@kdu_tile@@QAE_NHHAAH000PAH1PAM11@Z ; kdu_tile::get_mct_block_info
PUBLIC	?get_mct_matrix_info@kdu_tile@@QAE_NHHPAM@Z	; kdu_tile::get_mct_matrix_info
PUBLIC	?get_mct_rxform_info@kdu_tile@@QAE_NHHPAH0@Z	; kdu_tile::get_mct_rxform_info
PUBLIC	?get_mct_dependency_info@kdu_tile@@QAE_NHHAA_NPAM1PAH22@Z ; kdu_tile::get_mct_dependency_info
PUBLIC	?get_mct_dwt_info@kdu_tile@@QAEPBUkdu_kernel_step_info@@HHAA_NAAH11100AAPBMPAH3@Z ; kdu_tile::get_mct_dwt_info
PUBLIC	?get_num_components@kdu_tile@@QAEHXZ		; kdu_tile::get_num_components
PUBLIC	?get_num_layers@kdu_tile@@QAEHXZ		; kdu_tile::get_num_layers
PUBLIC	?parse_all_relevant_packets@kdu_tile@@QAE_N_NPAVkdu_thread_env@@@Z ; kdu_tile::parse_all_relevant_packets
PUBLIC	?get_parsed_packet_stats@kdu_tile@@QAE_JHHHPA_J0@Z ; kdu_tile::get_parsed_packet_stats
PUBLIC	?access_component@kdu_tile@@QAE?AVkdu_tile_comp@@H@Z ; kdu_tile::access_component
PUBLIC	?find_component_gain_info@kdu_tile@@QAEMH_N@Z	; kdu_tile::find_component_gain_info
PUBLIC	?get_reversible@kdu_tile_comp@@QAE_NXZ		; kdu_tile_comp::get_reversible
PUBLIC	?get_subsampling@kdu_tile_comp@@QAEXAAUkdu_coords@@@Z ; kdu_tile_comp::get_subsampling
PUBLIC	?get_bit_depth@kdu_tile_comp@@QAEH_N@Z		; kdu_tile_comp::get_bit_depth
PUBLIC	?get_signed@kdu_tile_comp@@QAE_NXZ		; kdu_tile_comp::get_signed
PUBLIC	?get_num_resolutions@kdu_tile_comp@@QAEHXZ	; kdu_tile_comp::get_num_resolutions
PUBLIC	?access_resolution@kdu_tile_comp@@QAE?AVkdu_resolution@@H@Z ; kdu_tile_comp::access_resolution
PUBLIC	?access_resolution@kdu_tile_comp@@QAE?AVkdu_resolution@@XZ ; kdu_tile_comp::access_resolution
PUBLIC	?access_next@kdu_resolution@@QAE?AV1@XZ		; kdu_resolution::access_next
PUBLIC	?which@kdu_resolution@@QAEHXZ			; kdu_resolution::which
PUBLIC	?get_dwt_level@kdu_resolution@@QAEHXZ		; kdu_resolution::get_dwt_level
PUBLIC	?get_comp_idx@kdu_resolution@@QAEHXZ		; kdu_resolution::get_comp_idx
PUBLIC	?get_dims@kdu_resolution@@QAEXAAUkdu_dims@@@Z	; kdu_resolution::get_dims
PUBLIC	?get_valid_precincts@kdu_resolution@@QAEXAAUkdu_dims@@@Z ; kdu_resolution::get_valid_precincts
PUBLIC	?open_precinct@kdu_resolution@@QAE?AVkdu_precinct@@Ukdu_coords@@@Z ; kdu_resolution::open_precinct
PUBLIC	?get_precinct_id@kdu_resolution@@QAE_JUkdu_coords@@@Z ; kdu_resolution::get_precinct_id
PUBLIC	?get_precinct_relevance@kdu_resolution@@QAENUkdu_coords@@@Z ; kdu_resolution::get_precinct_relevance
PUBLIC	?get_precinct_packets@kdu_resolution@@QAEHUkdu_coords@@PAVkdu_thread_env@@_N@Z ; kdu_resolution::get_precinct_packets
PUBLIC	?get_precinct_samples@kdu_resolution@@QAE_JUkdu_coords@@@Z ; kdu_resolution::get_precinct_samples
PUBLIC	?access_node@kdu_resolution@@QAE?AVkdu_node@@XZ	; kdu_resolution::access_node
PUBLIC	?get_valid_band_indices@kdu_resolution@@QAEHAAH@Z ; kdu_resolution::get_valid_band_indices
PUBLIC	?access_subband@kdu_resolution@@QAE?AVkdu_subband@@H@Z ; kdu_resolution::access_subband
PUBLIC	?get_reversible@kdu_resolution@@QAE_NXZ		; kdu_resolution::get_reversible
PUBLIC	?propagate_roi@kdu_resolution@@QAE_NXZ		; kdu_resolution::propagate_roi
PUBLIC	?access_child@kdu_node@@QAE?AV1@H@Z		; kdu_node::access_child
PUBLIC	?get_num_descendants@kdu_node@@QAEHAAH@Z	; kdu_node::get_num_descendants
PUBLIC	?access_subband@kdu_node@@QAE?AVkdu_subband@@XZ	; kdu_node::access_subband
PUBLIC	?access_resolution@kdu_node@@QAE?AVkdu_resolution@@XZ ; kdu_node::access_resolution
PUBLIC	?get_dims@kdu_node@@QAEXAAUkdu_dims@@@Z		; kdu_node::get_dims
PUBLIC	?get_kernel_id@kdu_node@@QAEHXZ			; kdu_node::get_kernel_id
PUBLIC	?get_kernel_info@kdu_node@@QAEPBUkdu_kernel_step_info@@AAHAAM1AA_N20000_N@Z ; kdu_node::get_kernel_info
PUBLIC	?get_kernel_coefficients@kdu_node@@QAEPBM_N@Z	; kdu_node::get_kernel_coefficients
PUBLIC	?get_bibo_gains@kdu_node@@QAEPBMAAH_N@Z		; kdu_node::get_bibo_gains
PUBLIC	?get_band_idx@kdu_subband@@QAEHXZ		; kdu_subband::get_band_idx
PUBLIC	?access_resolution@kdu_subband@@QAE?AVkdu_resolution@@XZ ; kdu_subband::access_resolution
PUBLIC	?get_K_max@kdu_subband@@QAEHXZ			; kdu_subband::get_K_max
PUBLIC	?get_K_max_prime@kdu_subband@@QAEHXZ		; kdu_subband::get_K_max_prime
PUBLIC	?get_reversible@kdu_subband@@QAE_NXZ		; kdu_subband::get_reversible
PUBLIC	?get_delta@kdu_subband@@QAEMXZ			; kdu_subband::get_delta
PUBLIC	?get_msb_wmse@kdu_subband@@QAEMXZ		; kdu_subband::get_msb_wmse
PUBLIC	?get_roi_weight@kdu_subband@@QAE_NAAM@Z		; kdu_subband::get_roi_weight
PUBLIC	?get_dims@kdu_subband@@QAEXAAUkdu_dims@@@Z	; kdu_subband::get_dims
PUBLIC	?get_valid_blocks@kdu_subband@@QAEXAAUkdu_dims@@@Z ; kdu_subband::get_valid_blocks
PUBLIC	?get_block_size@kdu_subband@@QAEXAAUkdu_coords@@0@Z ; kdu_subband::get_block_size
PUBLIC	?open_block@kdu_subband@@QAEPAUkdu_block@@Ukdu_coords@@PAHPAVkdu_thread_env@@@Z ; kdu_subband::open_block
PUBLIC	?close_block@kdu_subband@@QAEXPAUkdu_block@@PAVkdu_thread_env@@@Z ; kdu_subband::close_block
PUBLIC	?get_conservative_slope_threshold@kdu_subband@@QAEGXZ ; kdu_subband::get_conservative_slope_threshold
PUBLIC	?check_loaded@kdu_precinct@@QAE_NXZ		; kdu_precinct::check_loaded
PUBLIC	?get_unique_id@kdu_precinct@@QAE_JXZ		; kdu_precinct::get_unique_id
PUBLIC	?get_valid_blocks@kdu_precinct@@QAE_NHAAUkdu_dims@@@Z ; kdu_precinct::get_valid_blocks
PUBLIC	?open_block@kdu_precinct@@QAEPAUkdu_block@@HUkdu_coords@@PAVkdu_thread_env@@@Z ; kdu_precinct::open_block
PUBLIC	?close_block@kdu_precinct@@QAEXPAUkdu_block@@PAVkdu_thread_env@@@Z ; kdu_precinct::close_block
PUBLIC	?size_packets@kdu_precinct@@QAE_NAAH0AA_N@Z	; kdu_precinct::size_packets
PUBLIC	?get_packets@kdu_precinct@@QAE_NHHAAH0PAVkdu_output@@@Z ; kdu_precinct::get_packets
PUBLIC	?restart@kdu_precinct@@QAEXXZ			; kdu_precinct::restart
PUBLIC	?close@kdu_precinct@@QAEXXZ			; kdu_precinct::close
PUBLIC	?set_codestream_buf_server@kd_thread_buf_server@@QAEXPAVkd_buf_server@@@Z ; kd_thread_buf_server::set_codestream_buf_server
PUBLIC	??1kd_input@@UAE@XZ				; kd_input::~kd_input
PUBLIC	?disable_marker_throwing@kd_input@@QAE_NXZ	; kd_input::disable_marker_throwing
PUBLIC	?get@kd_input@@QAE_NAAE@Z			; kd_input::get
PUBLIC	??_Gkd_input@@UAEPAXI@Z				; kd_input::`scalar deleting destructor'
PUBLIC	?set_suspend@kd_compressed_input@@QAEX_N@Z	; kd_compressed_input::set_suspend
PUBLIC	??0kd_pph_input@@QAE@PAVkd_buf_server@@@Z	; kd_pph_input::kd_pph_input
PUBLIC	??_Gkd_pph_input@@UAEPAXI@Z			; kd_pph_input::`scalar deleting destructor'
PUBLIC	?restart@kd_precinct_pointer_server@@QAEXXZ	; kd_precinct_pointer_server::restart
PUBLIC	?initialize@kd_precinct_pointer_server@@QAEXPAVkd_buf_server@@@Z ; kd_precinct_pointer_server::initialize
PUBLIC	?update_stats@kd_compressed_stats@@QAE_NPAUkdu_block@@@Z ; kd_compressed_stats::update_stats
PUBLIC	?update_quant_slope_thresholds@kd_compressed_stats@@QAEXXZ ; kd_compressed_stats::update_quant_slope_thresholds
PUBLIC	??0kd_packet_sequencer@@QAE@PAUkd_tile@@@Z	; kd_packet_sequencer::kd_packet_sequencer
PUBLIC	??0kd_reslength_checker@@QAE@XZ			; kd_reslength_checker::kd_reslength_checker
PUBLIC	??1kd_reslength_checker@@QAE@XZ			; kd_reslength_checker::~kd_reslength_checker
PUBLIC	??_Ekd_reslength_checker@@QAEPAXI@Z		; kd_reslength_checker::`vector deleting destructor'
PUBLIC	??1kd_mct_ss_model@@QAE@XZ			; kd_mct_ss_model::~kd_mct_ss_model
PUBLIC	??1kd_mct_block@@QAE@XZ				; kd_mct_block::~kd_mct_block
PUBLIC	??0kd_tile@@QAE@PAUkd_codestream@@PAUkd_tile_ref@@Ukdu_coords@@Ukdu_dims@@@Z ; kd_tile::kd_tile
PUBLIC	??1kd_tile@@QAE@XZ				; kd_tile::~kd_tile
PUBLIC	?release@kd_tile@@QAEXXZ			; kd_tile::release
PUBLIC	?initialize@kd_tile@@QAEXXZ			; kd_tile::initialize
PUBLIC	?recycle@kd_tile@@QAEXPAUkd_tile_ref@@Ukdu_coords@@Ukdu_dims@@@Z ; kd_tile::recycle
PUBLIC	?restart@kd_tile@@QAEXXZ			; kd_tile::restart
PUBLIC	?reinitialize@kd_tile@@QAEXXZ			; kd_tile::reinitialize
PUBLIC	?open@kd_tile@@QAEXXZ				; kd_tile::open
PUBLIC	?read_tile_part_header@kd_tile@@QAE_NXZ		; kd_tile::read_tile_part_header
PUBLIC	?finished_reading@kd_tile@@QAE_NXZ		; kd_tile::finished_reading
PUBLIC	?generate_tile_part@kd_tile@@QAE_JHQAG@Z	; kd_tile::generate_tile_part
PUBLIC	?remove_from_in_progress_list@kd_tile@@QAEXXZ	; kd_tile::remove_from_in_progress_list
PUBLIC	?adjust_unloadability@kd_tile@@QAEXXZ		; kd_tile::adjust_unloadability
PUBLIC	?set_elements_of_interest@kd_tile@@AAEXXZ	; kd_tile::set_elements_of_interest
PUBLIC	?withdraw_from_unloadable_list@kd_tile@@AAEXXZ	; kd_tile::withdraw_from_unloadable_list
PUBLIC	?add_to_unloadable_list@kd_tile@@AAEXXZ		; kd_tile::add_to_unloadable_list
PUBLIC	?find_multicomponent_energy_gain@kd_tile@@AAEMH_N@Z ; kd_tile::find_multicomponent_energy_gain
PUBLIC	??0kd_tile_comp@@QAE@XZ				; kd_tile_comp::kd_tile_comp
PUBLIC	??1kd_tile_comp@@QAE@XZ				; kd_tile_comp::~kd_tile_comp
PUBLIC	?initialize_kernel_parameters@kd_tile_comp@@QAEXHAAVkdu_kernels@@@Z ; kd_tile_comp::initialize_kernel_parameters
PUBLIC	??_Ekd_tile_comp@@QAEPAXI@Z			; kd_tile_comp::`vector deleting destructor'
PUBLIC	??0kd_precinct_ref@@QAE@XZ			; kd_precinct_ref::kd_precinct_ref
PUBLIC	??1kd_precinct_ref@@QAE@XZ			; kd_precinct_ref::~kd_precinct_ref
PUBLIC	?open@kd_precinct_ref@@QAEPAUkd_precinct@@PAUkd_resolution@@Ukdu_coords@@_N@Z ; kd_precinct_ref::open
PUBLIC	?close@kd_precinct_ref@@QAEXXZ			; kd_precinct_ref::close
PUBLIC	?set_address@kd_precinct_ref@@QAE_NPAUkd_resolution@@Ukdu_coords@@_J@Z ; kd_precinct_ref::set_address
PUBLIC	?instantiate_precinct@kd_precinct_ref@@AAEPAUkd_precinct@@PAUkd_resolution@@Ukdu_coords@@@Z ; kd_precinct_ref::instantiate_precinct
PUBLIC	??_Ekd_precinct_ref@@QAEPAXI@Z			; kd_precinct_ref::`vector deleting destructor'
PUBLIC	?adjust_cover@kd_node@@QAEXUkdu_dims@@HH@Z	; kd_node::adjust_cover
PUBLIC	??0kd_node@@QAE@XZ				; kd_node::kd_node
PUBLIC	??0kd_subband@@QAE@XZ				; kd_subband::kd_subband
PUBLIC	??0kd_resolution@@QAE@XZ			; kd_resolution::kd_resolution
PUBLIC	??1kd_resolution@@QAE@XZ			; kd_resolution::~kd_resolution
PUBLIC	?build_decomposition_structure@kd_resolution@@QAEXPAVkdu_params@@AAVkdu_kernels@@@Z ; kd_resolution::build_decomposition_structure
PUBLIC	?complete_initialization@kd_resolution@@QAEXXZ	; kd_resolution::complete_initialization
PUBLIC	??_Ekd_resolution@@QAEPAXI@Z			; kd_resolution::`vector deleting destructor'
PUBLIC	?get_bit@kd_header_in@@QAEHXZ			; kd_header_in::get_bit
PUBLIC	?finish@kd_header_in@@QAEHXZ			; kd_header_in::finish
PUBLIC	?cleanup@kd_block@@QAEXPAVkd_buf_server@@@Z	; kd_block::cleanup
PUBLIC	?initialize@kd_precinct@@QAEXPAUkd_resolution@@Ukdu_coords@@@Z ; kd_precinct::initialize
PUBLIC	?activate@kd_precinct@@QAEXXZ			; kd_precinct::activate
PUBLIC	?closing@kd_precinct@@QAEXXZ			; kd_precinct::closing
PUBLIC	?release@kd_precinct@@QAEXXZ			; kd_precinct::release
PUBLIC	?desequence_packet@kd_precinct@@QAE_NXZ		; kd_precinct::desequence_packet
PUBLIC	?load_required_packets@kd_precinct@@QAEXXZ	; kd_precinct::load_required_packets
PUBLIC	?simulate_packet@kd_precinct@@QAE_JAA_JHG_N1_J1@Z ; kd_precinct::simulate_packet
PUBLIC	?write_packet@kd_precinct@@QAE_JG_N@Z		; kd_precinct::write_packet
PUBLIC	?read_packet@kd_precinct@@AAE_NXZ		; kd_precinct::read_packet
PUBLIC	?handle_corrupt_packet@kd_precinct@@AAE_NXZ	; kd_precinct::handle_corrupt_packet
PUBLIC	?move_to_inactive_list@kd_precinct_size_class@@QAEXPAUkd_precinct@@@Z ; kd_precinct_size_class::move_to_inactive_list
PUBLIC	?withdraw_from_inactive_list@kd_precinct_size_class@@QAEXPAUkd_precinct@@@Z ; kd_precinct_size_class::withdraw_from_inactive_list
PUBLIC	?augment_free_list@kd_precinct_size_class@@AAEXXZ ; kd_precinct_size_class::augment_free_list
PUBLIC	?get@kd_precinct_server@@QAEPAUkd_precinct@@HH@Z ; kd_precinct_server::get
PUBLIC	?get_block_state@kd_thread_env@@QAEPAUkd_thread_block_state@@PAUkd_codestream@@PAUkd_precinct@@PAVkd_block@@@Z ; kd_thread_env::get_block_state
PUBLIC	?flush_buf@kd_dummy_target@@MAEXXZ		; kd_dummy_target::flush_buf
PUBLIC	??1kd_dummy_target@@UAE@XZ			; kd_dummy_target::~kd_dummy_target
PUBLIC	??_Gkd_dummy_target@@UAEPAXI@Z			; kd_dummy_target::`scalar deleting destructor'
PUBLIC	?_OptionsStorage@?1??__local_stdio_printf_options@@9@4_KA ; `__local_stdio_printf_options'::`2'::_OptionsStorage
PUBLIC	??_C@_02NJNOFBBI@?$CFx?$AA@			; `string'
PUBLIC	??_C@_02DPKJAMEF@?$CFd?$AA@			; `string'
PUBLIC	__TI2PAE
PUBLIC	__CTA2PAE
PUBLIC	??_R0PAE@8					; unsigned char * `RTTI Type Descriptor'
PUBLIC	__CT??_R0PAE@84
PUBLIC	??_R0PAX@8					; void * `RTTI Type Descriptor'
PUBLIC	__CT??_R0PAX@84
PUBLIC	??_7kdu_output@@6B@				; kdu_output::`vftable'
PUBLIC	__TI1H
PUBLIC	__CTA1H
PUBLIC	??_R0H@8					; int `RTTI Type Descriptor'
PUBLIC	__CT??_R0H@84
PUBLIC	??_7kd_input@@6B@				; kd_input::`vftable'
PUBLIC	??_7kd_pph_input@@6B@				; kd_pph_input::`vftable'
PUBLIC	__TI2PAVkd_header_in@@
PUBLIC	__CTA2PAVkd_header_in@@
PUBLIC	??_R0PAVkd_header_in@@@8			; kd_header_in * `RTTI Type Descriptor'
PUBLIC	__CT??_R0PAVkd_header_in@@@84
PUBLIC	??_C@_0BE@KMIJLGEL@Kakadu?5Core?5Error?3?6?$AA@	; `string'
PUBLIC	??_C@_0GL@JBAAPDCE@Coding?5partitions?5?$CIcode?9blocks?5a@ ; `string'
PUBLIC	??_C@_0GG@KMAHIAKO@Coding?5partitions?5?$CInamely?0?5code?9@ ; `string'
PUBLIC	??_C@_0BN@MCFNCJCD@?6?$DO?$DO?5New?5attributes?5for?5tile?5?$AA@ ; `string'
PUBLIC	??_C@_02NDKNKOCB@?3?6?$AA@			; `string'
PUBLIC	??_C@_03LIMJJHMM@COD?$AA@			; `string'
PUBLIC	??_C@_03ELMDPBLM@QCD?$AA@			; `string'
PUBLIC	??_C@_03KEJABOAE@RGN?$AA@			; `string'
PUBLIC	??_C@_03MNMMELJE@ORG?$AA@			; `string'
PUBLIC	??_C@_08DAJNLNLL@Cuse_sop?$AA@			; `string'
PUBLIC	??_C@_08NAIOMJOM@Cuse_eph?$AA@			; `string'
PUBLIC	??_C@_04DEPIIIHA@Cycc?$AA@			; `string'
PUBLIC	??_C@_0BA@JFAKJNFN@Calign_blk_last?$AA@		; `string'
PUBLIC	??_C@_07BJCMAMHC@Clayers?$AA@			; `string'
PUBLIC	??_C@_0M@HKNEBDCB@Creslengths?$AA@		; `string'
PUBLIC	??_C@_09CNLDEMAK@ORGtparts?$AA@			; `string'
PUBLIC	??_C@_0L@DMGGEJHL@ORGgen_plt?$AA@		; `string'
PUBLIC	??_C@_07BGFFFHMP@Clevels?$AA@			; `string'
PUBLIC	??_C@_0M@ODOOFFGJ@Creversible?$AA@		; `string'
PUBLIC	??_C@_08IDCJHBJK@Ckernels?$AA@			; `string'
PUBLIC	??_C@_0P@LMCGKBAC@Cuse_precincts?$AA@		; `string'
PUBLIC	??_C@_04HAGFJFNL@Cblk?$AA@			; `string'
PUBLIC	??_C@_06EGDCPANH@Cmodes?$AA@			; `string'
PUBLIC	??_C@_04HAOFMIPN@Catk?$AA@			; `string'
PUBLIC	??_C@_08CCOBJCLJ@Qderived?$AA@			; `string'
PUBLIC	??_C@_0L@ELEFPJIC@Qabs_steps?$AA@		; `string'
PUBLIC	??_C@_0BHA@JBHJNMJO@Tile?9components?5which?5are?5compre@ ; `string'
PUBLIC	??_C@_07KGEEGGHK@Rlevels?$AA@			; `string'
PUBLIC	??_C@_07HDHNGJDI@Cweight?$AA@			; `string'
PUBLIC	??_C@_0BG@JPDDDEGK@Kakadu?5Core?5Warning?3?6?$AA@ ; `string'
PUBLIC	??_C@_0ML@FMBEAHIM@Profile?5violation?5detected?5?$CIcode@ ; `string'
PUBLIC	??_C@_0MC@OOKHAIOM@Profile?5violation?5detected?5?$CIcode@ ; `string'
PUBLIC	??_C@_0KN@KMCHIBHI@Profile?5violation?5detected?5?$CIcode@ ; `string'
PUBLIC	??_C@_0PN@ECKJOGL@Profile?5violation?5detected?5?$CIcode@ ; `string'
PUBLIC	??_C@_0L@KGBLICHL@Cprecincts?$AA@		; `string'
PUBLIC	??_C@_0BBK@KIFKIPEK@Tile?9component?9resolution?5encoun@ ; `string'
PUBLIC	??_C@_0BBP@FFHCNMHP@Profile?5violation?5detected?5?$CIcode@ ; `string'
PUBLIC	??_C@_0MJ@MHJOJOLI@Profile?5violation?5detected?5?$CIcode@ ; `string'
PUBLIC	??_C@_0N@HICBBPMC@Clev_weights?$AA@		; `string'
PUBLIC	??_C@_0M@FADGJEKJ@Qabs_ranges?$AA@		; `string'
PUBLIC	??_C@_06BGIMBACE@Qguard?$AA@			; `string'
PUBLIC	??_C@_07MDGMFIIN@Rweight?$AA@			; `string'
PUBLIC	??_C@_06LDAKCIBF@Rshift?$AA@			; `string'
PUBLIC	??_C@_0JM@NAEKEAHJ@Profile?5violation?5detected?5?$CIcode@ ; `string'
PUBLIC	??_C@_0O@GLALLHKC@Cband_weights?$AA@		; `string'
PUBLIC	??_C@_0KN@HAEBDHLJ@Precinct?5partition?5dimensions?5to@ ; `string'
PUBLIC	??_C@_0GC@GCDNIPCG@Illegal?5colour?5transform?5specifi@ ; `string'
PUBLIC	??_C@_07HDMBGKJA@QCD?3RGN?$AA@			; `string'
PUBLIC	??_C@_0DB@CKMBKEOA@You?5must?5close?5a?5tile?5before?5you@ ; `string'
PUBLIC	??_C@_0GH@CBFAGHCH@You?5cannot?5use?5PPM?5or?5PPT?5marker@ ; `string'
PUBLIC	??_C@_0HP@MELIFPKI@Found?5non?9marker?5code?5while?5pars@ ; `string'
PUBLIC	??_C@_0CL@KHMENMGB@Invalid?5marker?5code?5found?5in?5cod@ ; `string'
PUBLIC	??_C@_0BO@BKLJKNEJ@?7Expected?5SOT?5marker?5and?5got?5?$AA@ ; `string'
PUBLIC	??_C@_01LFCBOECM@?4?$AA@			; `string'
PUBLIC	??_C@_0IL@OEKPKFDK@Corrupt?5SOT?5marker?5segment?5found@ ; `string'
PUBLIC	??_C@_0DH@BFBKABHP@Missing?5or?5out?9of?9sequence?5tile?9@ ; `string'
PUBLIC	??_C@_0BB@LBOIHLHG@?5in?5code?9stream?$CB?$AA@	; `string'
PUBLIC	??_C@_0CK@JIECJLAN@The?5number?5of?5tile?9parts?5for?5til@ ; `string'
PUBLIC	??_C@_0FD@MEKGJNMP@?5is?5identified?5by?5different?5non?9@ ; `string'
PUBLIC	??_C@_03LFCEPJHK@POC?$AA@			; `string'
PUBLIC	??_C@_0KL@FMHHAPCD@Profile?5violation?5detected?5?$CIcode@ ; `string'
PUBLIC	??_C@_0JC@HCNJDFHD@Found?5non?9marker?5code?5while?5look@ ; `string'
PUBLIC	??_C@_0DE@HNLKCMOC@Use?5of?5both?5PPM?5and?5PPT?5marker?5s@ ; `string'
PUBLIC	??_C@_0BO@KPHEGGEJ@Too?5many?5tile?9parts?5for?5tile?5?$AA@ ; `string'
PUBLIC	??_C@_0CJ@PEIPJIAP@?4?5?5No?5tile?5may?5have?5more?5than?525@ ; `string'
PUBLIC	??_C@_0GI@GJEHPDEO@?4?5?5The?5maximum?5number?5of?5tile?9pa@ ; `string'
PUBLIC	??_C@_0MP@KJDJEMOL@Profile?5violation?5detected?5?$CIcode@ ; `string'
PUBLIC	??_C@_0KI@NPIDLLIG@Attempting?5to?5generate?5tile?9part@ ; `string'
PUBLIC	??_C@_0NP@BHJNFIFJ@Cannot?5satisfy?5the?5request?5to?5ge@ ; `string'
PUBLIC	??_C@_0OJ@JNMDPNHM@Length?5of?5current?5tile?9part?5exce@ ; `string'
PUBLIC	??_C@_0P@DIALIICI@Mvector_coeffs?$AA@		; `string'
PUBLIC	??_C@_0P@NJDNNBNG@Mmatrix_coeffs?$AA@		; `string'
PUBLIC	??_C@_0P@CMBCAAOP@Mtriang_coeffs?$AA@		; `string'
PUBLIC	??_C@_0NP@CFEPKMLA@Attempting?5to?5access?5a?5non?9exist@ ; `string'
PUBLIC	??_C@_0BCL@NDBOHLBO@Attempting?5to?5access?5a?5resolutio@ ; `string'
PUBLIC	??_C@_07MIOINIMK@Cdecomp?$AA@			; `string'
PUBLIC	??_C@_0LI@BAKNOCIL@Calls?5to?5?$GAkdu_resolution?3?3open_p@ ; `string'
PUBLIC	??_C@_0MG@MIKKMPNN@The?5precinct?5you?5are?5trying?5to?5a@ ; `string'
PUBLIC	??_C@_0NN@MFAEJGKE@You?5are?5permitted?5to?5open?5each?5c@ ; `string'
PUBLIC	??_C@_0ED@CJMFIANH@Attempting?5to?5open?5the?5same?5code@ ; `string'
PUBLIC	??_C@_0FK@HALGFJID@Out?9of?9sequence?5SOP?5marker?5found@ ; `string'
PUBLIC	??_C@_0BI@NMKGFPMC@?7Found?5sequence?5number?5?$AA@ ; `string'
PUBLIC	??_C@_0BA@BNNPLEHB@?0?5but?5expected?5?$AA@	; `string'
PUBLIC	??_C@_02MIICKFIN@?4?6?$AA@			; `string'
PUBLIC	??_C@_0EO@IEHAKBJH@Use?5the?5resilient?5option?5if?5you?5@ ; `string'
PUBLIC	??_C@_0FD@LOABHKKD@Illegal?5marker?5code?5found?5while?5@ ; `string'
PUBLIC	??_C@_0BJ@HMCGKOMP@?7Illegal?5marker?5code?5is?5?$AA@ ; `string'
PUBLIC	??_C@_0FB@NMDJGOOL@Exhausted?5PPM?1PPT?5marker?5segment@ ; `string'
PUBLIC	??_R0G@8					; unsigned short `RTTI Type Descriptor'
PUBLIC	??_C@_0BDO@LLBNLAKJ@Packet?5header?5contains?5a?5represe@ ; `string'
PUBLIC	??_C@_0CBL@LGBHIIBA@Illegal?5inclusion?5tag?5tree?5encou@ ; `string'
PUBLIC	??_C@_0BAA@PKDCKLHJ@Illegal?5number?5of?5missing?5MSB?8s?5@ ; `string'
PUBLIC	??_C@_0BG@OOKLLMMG@Illegal?5marker?5code?0?5?$AA@ ; `string'
PUBLIC	??_C@_0GA@NALIOIEH@?0?5found?5while?5reading?5packet?5hea@ ; `string'
PUBLIC	??_C@_0DN@IEKEFHF@Expected?5to?5find?5EPH?5marker?5foll@ ; `string'
PUBLIC	??_C@_09LNCLJGMF@?5instead?4?$AA@		; `string'
PUBLIC	??_C@_0FO@KDIMGOKP@?0?5found?5while?5reading?5packet?5bod@ ; `string'
PUBLIC	??_C@_0CD@BIAHNBHE@Packet?5body?5terminated?5with?5an?5F@ ; `string'
PUBLIC	??_C@_0BEO@PKHFIGLM@Encountered?5a?5corrupted?5packet?5w@ ; `string'
PUBLIC	??_C@_0IN@CECCKADH@You?5may?5not?5currently?5flush?5comp@ ; `string'
PUBLIC	??_7kd_dummy_target@@6B@			; kd_dummy_target::`vftable'
PUBLIC	??_C@_0FI@JEJCBJLM@Heap?5exhausted?4?5?5Unable?5to?5alloc@ ; `string'
PUBLIC	??_R4kdu_output@@6B@				; kdu_output::`RTTI Complete Object Locator'
PUBLIC	??_R0?AVkdu_output@@@8				; kdu_output `RTTI Type Descriptor'
PUBLIC	??_R3kdu_output@@8				; kdu_output::`RTTI Class Hierarchy Descriptor'
PUBLIC	??_R2kdu_output@@8				; kdu_output::`RTTI Base Class Array'
PUBLIC	??_R1A@?0A@EA@kdu_output@@8			; kdu_output::`RTTI Base Class Descriptor at (0,-1,0,64)'
PUBLIC	??_R4kd_input@@6B@				; kd_input::`RTTI Complete Object Locator'
PUBLIC	??_R0?AVkd_input@@@8				; kd_input `RTTI Type Descriptor'
PUBLIC	??_R3kd_input@@8				; kd_input::`RTTI Class Hierarchy Descriptor'
PUBLIC	??_R2kd_input@@8				; kd_input::`RTTI Base Class Array'
PUBLIC	??_R1A@?0A@EA@kd_input@@8			; kd_input::`RTTI Base Class Descriptor at (0,-1,0,64)'
PUBLIC	??_R4kd_pph_input@@6B@				; kd_pph_input::`RTTI Complete Object Locator'
PUBLIC	??_R0?AVkd_pph_input@@@8			; kd_pph_input `RTTI Type Descriptor'
PUBLIC	??_R3kd_pph_input@@8				; kd_pph_input::`RTTI Class Hierarchy Descriptor'
PUBLIC	??_R2kd_pph_input@@8				; kd_pph_input::`RTTI Base Class Array'
PUBLIC	??_R1A@?0A@EA@kd_pph_input@@8			; kd_pph_input::`RTTI Base Class Descriptor at (0,-1,0,64)'
PUBLIC	??_R4kd_dummy_target@@6B@			; kd_dummy_target::`RTTI Complete Object Locator'
PUBLIC	??_R0?AVkd_dummy_target@@@8			; kd_dummy_target `RTTI Type Descriptor'
PUBLIC	??_R3kd_dummy_target@@8				; kd_dummy_target::`RTTI Class Hierarchy Descriptor'
PUBLIC	??_R2kd_dummy_target@@8				; kd_dummy_target::`RTTI Base Class Array'
PUBLIC	??_R1A@?0A@EA@kd_dummy_target@@8		; kd_dummy_target::`RTTI Base Class Descriptor at (0,-1,0,64)'
PUBLIC	__real@00000000
PUBLIC	__real@0000000000000000
PUBLIC	__real@3f1a36e2eb1c432d
PUBLIC	__real@3f800000
PUBLIC	__real@3fb0000000000000
PUBLIC	__real@3fe0000000000000
PUBLIC	__real@3fe2000000000000
PUBLIC	__real@3ff0000000000000
PUBLIC	__real@40000000
PUBLIC	__real@4000000000000000
PUBLIC	__real@40091eafee6fb4c4
PUBLIC	__real@41d0000000000000
PUBLIC	__xmm@3fbe516a0eeb824c0000000000000000
PUBLIC	__xmm@3fe051d7e177e3e53fff731d2e0e3046
EXTRN	??_L@YGXPAXIIP6EX0@Z1@Z:PROC			; `eh vector constructor iterator'
EXTRN	??_M@YGXPAXIIP6EX0@Z@Z:PROC			; `eh vector destructor iterator'
EXTRN	__purecall:PROC
EXTRN	??2@YAPAXI@Z:PROC				; operator new
EXTRN	??3@YAXPAXI@Z:PROC				; operator delete
EXTRN	??_U@YAPAXI@Z:PROC				; operator new[]
EXTRN	??_V@YAXPAX@Z:PROC				; operator delete[]
EXTRN	??_V@YAXPAXI@Z:PROC				; operator delete[]
EXTRN	___std_terminate:PROC
EXTRN	__imp__ReleaseMutex@4:PROC
EXTRN	__imp__WaitForSingleObject@8:PROC
EXTRN	__imp__malloc:PROC
EXTRN	__imp____stdio_common_vsprintf:PROC
EXTRN	??0kdu_error@@QAE@PBD@Z:PROC			; kdu_error::kdu_error
EXTRN	??1kdu_error@@UAE@XZ:PROC			; kdu_error::~kdu_error
EXTRN	??0kdu_warning@@QAE@PBD@Z:PROC			; kdu_warning::kdu_warning
EXTRN	??1kdu_warning@@UAE@XZ:PROC			; kdu_warning::~kdu_warning
EXTRN	??_Ekdu_output@@UAEPAXI@Z:PROC			; kdu_output::`vector deleting destructor'
EXTRN	?access_cluster@kdu_params@@QAEPAV1@PBD@Z:PROC	; kdu_params::access_cluster
EXTRN	?access_cluster@kdu_params@@QAEPAV1@H@Z:PROC	; kdu_params::access_cluster
EXTRN	?access_relation@kdu_params@@QAEPAV1@HHH_N@Z:PROC ; kdu_params::access_relation
EXTRN	?access_unique@kdu_params@@QAEPAV1@HHH@Z:PROC	; kdu_params::access_unique
EXTRN	?any_changes@kdu_params@@QAE_NXZ:PROC		; kdu_params::any_changes
EXTRN	?check_typical_tile@kdu_params@@QAE_NHPBD@Z:PROC ; kdu_params::check_typical_tile
EXTRN	?translate_marker_segment@kdu_params@@QAE_NGHQAEHH@Z:PROC ; kdu_params::translate_marker_segment
EXTRN	?generate_marker_segments@kdu_params@@QAEHPAVkdu_output@@HH@Z:PROC ; kdu_params::generate_marker_segments
EXTRN	?get@kdu_params@@QAE_NPBDHHAAH_N22@Z:PROC	; kdu_params::get
EXTRN	?get@kdu_params@@QAE_NPBDHHAA_N_N22@Z:PROC	; kdu_params::get
EXTRN	?get@kdu_params@@QAE_NPBDHHAAM_N22@Z:PROC	; kdu_params::get
EXTRN	?textualize_attributes@kdu_params@@QAEXAAVkdu_message@@HH_N@Z:PROC ; kdu_params::textualize_attributes
EXTRN	?finalize_all@kdu_params@@QAEXH_N@Z:PROC	; kdu_params::finalize_all
EXTRN	?transpose_decomp@cod_params@@SAHH@Z:PROC	; cod_params::transpose_decomp
EXTRN	?expand_decomp_bands@cod_params@@SAHHQAF@Z:PROC	; cod_params::expand_decomp_bands
EXTRN	?init@kdu_kernels@@QAEXHPBUkdu_kernel_step_info@@PBM_N22@Z:PROC ; kdu_kernels::init
EXTRN	?get_impulse_response@kdu_kernels@@QAEPAMW4kdu_kernel_type@@AAHPAH2@Z:PROC ; kdu_kernels::get_impulse_response
EXTRN	?get_energy_gain@kdu_kernels@@QAENHHQA_N@Z:PROC	; kdu_kernels::get_energy_gain
EXTRN	?get_bibo_gain@kdu_kernels@@QAENHHQA_N@Z:PROC	; kdu_kernels::get_bibo_gain
EXTRN	?get_bibo_gains@kdu_kernels@@QAEPANHHQA_NAAN1@Z:PROC ; kdu_kernels::get_bibo_gains
EXTRN	?clear@kdu_kernels@@AAEXXZ:PROC			; kdu_kernels::clear
EXTRN	?reset@kdu_kernels@@AAEXXZ:PROC			; kdu_kernels::reset
EXTRN	?print_marker_code@@YAXGAAVkdu_message@@@Z:PROC	; print_marker_code
EXTRN	?get@kd_buf_server@@QAEPAUkd_code_buffer@@XZ:PROC ; kd_buf_server::get
EXTRN	?release@kd_buf_server@@QAEXPAUkd_code_buffer@@@Z:PROC ; kd_buf_server::release
EXTRN	?attach_thread_buf_server@kd_buf_server@@QAEXPAVkd_thread_buf_server@@@Z:PROC ; kd_buf_server::attach_thread_buf_server
EXTRN	?detach_thread_buf_server@kd_buf_server@@QAEXPAVkd_thread_buf_server@@@Z:PROC ; kd_buf_server::detach_thread_buf_server
EXTRN	?read@kd_input@@QAEHPAEH@Z:PROC			; kd_input::read
EXTRN	?read@kd_input@@QAEHAAPAUkd_code_buffer@@AAEPAVkd_buf_server@@H@Z:PROC ; kd_input::read
EXTRN	?ignore@kd_input@@UAE_J_J@Z:PROC		; kd_input::ignore
EXTRN	?process_unexpected_marker@kd_input@@AAEXE@Z:PROC ; kd_input::process_unexpected_marker
EXTRN	??_Ekd_input@@UAEPAXI@Z:PROC			; kd_input::`vector deleting destructor'
EXTRN	?set_tileheader_scope@kd_compressed_input@@QAE_NHH@Z:PROC ; kd_compressed_input::set_tileheader_scope
EXTRN	?seek@kd_compressed_input@@QAEX_J@Z:PROC	; kd_compressed_input::seek
EXTRN	??1kd_pph_input@@UAE@XZ:PROC			; kd_pph_input::~kd_pph_input
EXTRN	?load_buf@kd_pph_input@@MAE_NXZ:PROC		; kd_pph_input::load_buf
EXTRN	??_Ekd_pph_input@@UAEPAXI@Z:PROC		; kd_pph_input::`vector deleting destructor'
EXTRN	?read@kd_marker@@QAE_N_N0@Z:PROC		; kd_marker::read
EXTRN	??1kd_pp_markers@@QAE@XZ:PROC			; kd_pp_markers::~kd_pp_markers
EXTRN	?add_marker@kd_pp_markers@@QAEXAAVkd_marker@@@Z:PROC ; kd_pp_markers::add_marker
EXTRN	?transfer_tpart@kd_pp_markers@@QAEXPAVkd_pph_input@@@Z:PROC ; kd_pp_markers::transfer_tpart
EXTRN	?ignore_tpart@kd_pp_markers@@QAEXXZ:PROC	; kd_pp_markers::ignore_tpart
EXTRN	?add_tpart_length@kd_tlm_generator@@QAEXH_J@Z:PROC ; kd_tlm_generator::add_tpart_length
EXTRN	?add_tpart@kd_tpart_pointer_server@@QAEXPAUkd_tile_ref@@_J@Z:PROC ; kd_tpart_pointer_server::add_tpart
EXTRN	?add_plt_marker@kd_precinct_pointer_server@@QAEXAAVkd_marker@@PAVkdu_params@@1@Z:PROC ; kd_precinct_pointer_server::add_plt_marker
EXTRN	?start_tpart_body@kd_precinct_pointer_server@@QAEX_JIPAVkdu_params@@1_N2@Z:PROC ; kd_precinct_pointer_server::start_tpart_body
EXTRN	?init@kd_packet_sequencer@@QAEXXZ:PROC		; kd_packet_sequencer::init
EXTRN	?save_state@kd_packet_sequencer@@QAEXXZ:PROC	; kd_packet_sequencer::save_state
EXTRN	?restore_state@kd_packet_sequencer@@QAEXXZ:PROC	; kd_packet_sequencer::restore_state
EXTRN	?next_in_sequence@kd_packet_sequencer@@QAEPAVkd_precinct_ref@@AAPAUkd_resolution@@AAUkdu_coords@@@Z:PROC ; kd_packet_sequencer::next_in_sequence
EXTRN	?init@kd_reslength_checker@@QAE_NPAVcod_params@@@Z:PROC ; kd_reslength_checker::init
EXTRN	?notify_tile_status@kd_global_rescomp@@QAEXUkdu_dims@@_N@Z:PROC ; kd_global_rescomp::notify_tile_status
EXTRN	?add_ready_precinct@kd_global_rescomp@@QAEXPAUkd_precinct@@@Z:PROC ; kd_global_rescomp::add_ready_precinct
EXTRN	?close_ready_precinct@kd_global_rescomp@@QAEXPAUkd_precinct@@@Z:PROC ; kd_global_rescomp::close_ready_precinct
EXTRN	?analyze_sensitivity@kd_mct_block@@QAEXHMAAH0_N@Z:PROC ; kd_mct_block::analyze_sensitivity
EXTRN	?create_stages@kd_mct_stage@@SAXAAPAU1@0PAVkdu_params@@HHPAUkd_comp_info@@HPAUkd_output_comp_info@@@Z:PROC ; kd_mct_stage::create_stages
EXTRN	?apply_output_restrictions@kd_mct_stage@@QAEXPAUkd_output_comp_info@@HPBH@Z:PROC ; kd_mct_stage::apply_output_restrictions
EXTRN	?create_tile@kd_codestream@@QAEPAUkd_tile@@Ukdu_coords@@@Z:PROC ; kd_codestream::create_tile
EXTRN	?trim_compressed_data@kd_codestream@@QAEXXZ:PROC ; kd_codestream::trim_compressed_data
EXTRN	?unload_tiles_to_cache_threshold@kd_codestream@@QAEXXZ:PROC ; kd_codestream::unload_tiles_to_cache_threshold
EXTRN	?parse_packet_header@kd_block@@QAEHAAVkd_header_in@@PAVkd_buf_server@@H@Z:PROC ; kd_block::parse_packet_header
EXTRN	?retrieve_data@kd_block@@QAEXPAUkdu_block@@HH_N@Z:PROC ; kd_block::retrieve_data
EXTRN	?store_data@kd_block@@QAEXPAUkdu_block@@PAVkd_buf_server@@@Z:PROC ; kd_block::store_data
EXTRN	?store_data@kd_block@@QAEXPAUkdu_block@@PAVkd_thread_buf_server@@@Z:PROC ; kd_block::store_data
EXTRN	?trim_data@kd_block@@QAE_NGPAVkd_buf_server@@@Z:PROC ; kd_block::trim_data
EXTRN	?start_packet@kd_block@@QAEHHG@Z:PROC		; kd_block::start_packet
EXTRN	?write_packet_header@kd_block@@QAEXAAVkd_header_out@@H_N@Z:PROC ; kd_block::write_packet_header
EXTRN	?write_body_bytes@kd_block@@QAEXPAVkdu_output@@@Z:PROC ; kd_block::write_body_bytes
EXTRN	?build_tree@kd_block@@SAPAV1@Ukdu_coords@@AAPAE@Z:PROC ; kd_block::build_tree
EXTRN	?reset_output_tree@kd_block@@SAXPAV1@Ukdu_coords@@@Z:PROC ; kd_block::reset_output_tree
EXTRN	?save_output_tree@kd_block@@SAXPAV1@Ukdu_coords@@@Z:PROC ; kd_block::save_output_tree
EXTRN	?restore_output_tree@kd_block@@SAXPAV1@Ukdu_coords@@@Z:PROC ; kd_block::restore_output_tree
EXTRN	?reconcile_stats@kd_thread_env@@QAEXXZ:PROC	; kd_thread_env::reconcile_stats
EXTRN	?flush@kd_thread_env@@QAEX_N@Z:PROC		; kd_thread_env::flush
EXTRN	?kd_create_dwt_description@@YAXHHPAVkdu_params@@HAA_N11AAHAAPAUkdu_kernel_step_info@@AAPAM@Z:PROC ; kd_create_dwt_description
EXTRN	??_Ekd_dummy_target@@UAEPAXI@Z:PROC		; kd_dummy_target::`vector deleting destructor'
EXTRN	@__security_check_cookie@4:PROC
EXTRN	__CxxThrowException@8:PROC
EXTRN	___CxxFrameHandler3:PROC
EXTRN	__allmul:PROC
EXTRN	__allshr:PROC
EXTRN	__dtol3:PROC
EXTRN	__ftol2_sse:PROC
EXTRN	__libm_sse2_sqrt_precise:PROC
EXTRN	__ltod3:PROC
EXTRN	_floor:PROC
EXTRN	_memset:PROC
EXTRN	??_7type_info@@6B@:QWORD			; type_info::`vftable'
EXTRN	___security_cookie:DWORD
EXTRN	__fltused:DWORD
;	COMDAT ?_OptionsStorage@?1??__local_stdio_printf_options@@9@4_KA
_BSS	SEGMENT
?_OptionsStorage@?1??__local_stdio_printf_options@@9@4_KA DQ 01H DUP (?) ; `__local_stdio_printf_options'::`2'::_OptionsStorage
_BSS	ENDS
;	COMDAT __xmm@3fe051d7e177e3e53fff731d2e0e3046
CONST	SEGMENT
__xmm@3fe051d7e177e3e53fff731d2e0e3046 DB 'F0', 0eH, '.', 01dH, 's', 0ffH
	DB	'?', 0e5H, 0e3H, 'w', 0e1H, 0d7H, 'Q', 0e0H, '?'
CONST	ENDS
;	COMDAT __xmm@3fbe516a0eeb824c0000000000000000
CONST	SEGMENT
__xmm@3fbe516a0eeb824c0000000000000000 DB 00H, 00H, 00H, 00H, 00H, 00H, 00H
	DB	00H, 'L', 082H, 0ebH, 0eH, 'jQ', 0beH, '?'
CONST	ENDS
;	COMDAT __real@41d0000000000000
CONST	SEGMENT
__real@41d0000000000000 DQ 041d0000000000000r	; 1.07374e+09
CONST	ENDS
;	COMDAT __real@40091eafee6fb4c4
CONST	SEGMENT
__real@40091eafee6fb4c4 DQ 040091eafee6fb4c4r	; 3.13998
CONST	ENDS
;	COMDAT __real@4000000000000000
CONST	SEGMENT
__real@4000000000000000 DQ 04000000000000000r	; 2
CONST	ENDS
;	COMDAT __real@40000000
CONST	SEGMENT
__real@40000000 DD 040000000r			; 2
CONST	ENDS
;	COMDAT __real@3ff0000000000000
CONST	SEGMENT
__real@3ff0000000000000 DQ 03ff0000000000000r	; 1
CONST	ENDS
;	COMDAT __real@3fe2000000000000
CONST	SEGMENT
__real@3fe2000000000000 DQ 03fe2000000000000r	; 0.5625
CONST	ENDS
;	COMDAT __real@3fe0000000000000
CONST	SEGMENT
__real@3fe0000000000000 DQ 03fe0000000000000r	; 0.5
CONST	ENDS
;	COMDAT __real@3fb0000000000000
CONST	SEGMENT
__real@3fb0000000000000 DQ 03fb0000000000000r	; 0.0625
CONST	ENDS
;	COMDAT __real@3f800000
CONST	SEGMENT
__real@3f800000 DD 03f800000r			; 1
CONST	ENDS
;	COMDAT __real@3f1a36e2eb1c432d
CONST	SEGMENT
__real@3f1a36e2eb1c432d DQ 03f1a36e2eb1c432dr	; 0.0001
CONST	ENDS
;	COMDAT __real@0000000000000000
CONST	SEGMENT
__real@0000000000000000 DQ 00000000000000000r	; 0
CONST	ENDS
;	COMDAT __real@00000000
CONST	SEGMENT
__real@00000000 DD 000000000r			; 0
CONST	ENDS
;	COMDAT ??_R1A@?0A@EA@kd_dummy_target@@8
rdata$r	SEGMENT
??_R1A@?0A@EA@kd_dummy_target@@8 DD FLAT:??_R0?AVkd_dummy_target@@@8 ; kd_dummy_target::`RTTI Base Class Descriptor at (0,-1,0,64)'
	DD	01H
	DD	00H
	DD	0ffffffffH
	DD	00H
	DD	040H
	DD	FLAT:??_R3kd_dummy_target@@8
rdata$r	ENDS
;	COMDAT ??_R2kd_dummy_target@@8
rdata$r	SEGMENT
??_R2kd_dummy_target@@8 DD FLAT:??_R1A@?0A@EA@kd_dummy_target@@8 ; kd_dummy_target::`RTTI Base Class Array'
	DD	FLAT:??_R1A@?0A@EA@kdu_output@@8
rdata$r	ENDS
;	COMDAT ??_R3kd_dummy_target@@8
rdata$r	SEGMENT
??_R3kd_dummy_target@@8 DD 00H				; kd_dummy_target::`RTTI Class Hierarchy Descriptor'
	DD	00H
	DD	02H
	DD	FLAT:??_R2kd_dummy_target@@8
rdata$r	ENDS
;	COMDAT ??_R0?AVkd_dummy_target@@@8
data$r	SEGMENT
??_R0?AVkd_dummy_target@@@8 DD FLAT:??_7type_info@@6B@	; kd_dummy_target `RTTI Type Descriptor'
	DD	00H
	DB	'.?AVkd_dummy_target@@', 00H
data$r	ENDS
;	COMDAT ??_R4kd_dummy_target@@6B@
rdata$r	SEGMENT
??_R4kd_dummy_target@@6B@ DD 00H			; kd_dummy_target::`RTTI Complete Object Locator'
	DD	00H
	DD	00H
	DD	FLAT:??_R0?AVkd_dummy_target@@@8
	DD	FLAT:??_R3kd_dummy_target@@8
rdata$r	ENDS
;	COMDAT ??_R1A@?0A@EA@kd_pph_input@@8
rdata$r	SEGMENT
??_R1A@?0A@EA@kd_pph_input@@8 DD FLAT:??_R0?AVkd_pph_input@@@8 ; kd_pph_input::`RTTI Base Class Descriptor at (0,-1,0,64)'
	DD	01H
	DD	00H
	DD	0ffffffffH
	DD	00H
	DD	040H
	DD	FLAT:??_R3kd_pph_input@@8
rdata$r	ENDS
;	COMDAT ??_R2kd_pph_input@@8
rdata$r	SEGMENT
??_R2kd_pph_input@@8 DD FLAT:??_R1A@?0A@EA@kd_pph_input@@8 ; kd_pph_input::`RTTI Base Class Array'
	DD	FLAT:??_R1A@?0A@EA@kd_input@@8
rdata$r	ENDS
;	COMDAT ??_R3kd_pph_input@@8
rdata$r	SEGMENT
??_R3kd_pph_input@@8 DD 00H				; kd_pph_input::`RTTI Class Hierarchy Descriptor'
	DD	00H
	DD	02H
	DD	FLAT:??_R2kd_pph_input@@8
rdata$r	ENDS
;	COMDAT ??_R0?AVkd_pph_input@@@8
data$r	SEGMENT
??_R0?AVkd_pph_input@@@8 DD FLAT:??_7type_info@@6B@	; kd_pph_input `RTTI Type Descriptor'
	DD	00H
	DB	'.?AVkd_pph_input@@', 00H
data$r	ENDS
;	COMDAT ??_R4kd_pph_input@@6B@
rdata$r	SEGMENT
??_R4kd_pph_input@@6B@ DD 00H				; kd_pph_input::`RTTI Complete Object Locator'
	DD	00H
	DD	00H
	DD	FLAT:??_R0?AVkd_pph_input@@@8
	DD	FLAT:??_R3kd_pph_input@@8
rdata$r	ENDS
;	COMDAT ??_R1A@?0A@EA@kd_input@@8
rdata$r	SEGMENT
??_R1A@?0A@EA@kd_input@@8 DD FLAT:??_R0?AVkd_input@@@8	; kd_input::`RTTI Base Class Descriptor at (0,-1,0,64)'
	DD	00H
	DD	00H
	DD	0ffffffffH
	DD	00H
	DD	040H
	DD	FLAT:??_R3kd_input@@8
rdata$r	ENDS
;	COMDAT ??_R2kd_input@@8
rdata$r	SEGMENT
??_R2kd_input@@8 DD FLAT:??_R1A@?0A@EA@kd_input@@8	; kd_input::`RTTI Base Class Array'
rdata$r	ENDS
;	COMDAT ??_R3kd_input@@8
rdata$r	SEGMENT
??_R3kd_input@@8 DD 00H					; kd_input::`RTTI Class Hierarchy Descriptor'
	DD	00H
	DD	01H
	DD	FLAT:??_R2kd_input@@8
rdata$r	ENDS
;	COMDAT ??_R0?AVkd_input@@@8
data$r	SEGMENT
??_R0?AVkd_input@@@8 DD FLAT:??_7type_info@@6B@		; kd_input `RTTI Type Descriptor'
	DD	00H
	DB	'.?AVkd_input@@', 00H
data$r	ENDS
;	COMDAT ??_R4kd_input@@6B@
rdata$r	SEGMENT
??_R4kd_input@@6B@ DD 00H				; kd_input::`RTTI Complete Object Locator'
	DD	00H
	DD	00H
	DD	FLAT:??_R0?AVkd_input@@@8
	DD	FLAT:??_R3kd_input@@8
rdata$r	ENDS
;	COMDAT ??_R1A@?0A@EA@kdu_output@@8
rdata$r	SEGMENT
??_R1A@?0A@EA@kdu_output@@8 DD FLAT:??_R0?AVkdu_output@@@8 ; kdu_output::`RTTI Base Class Descriptor at (0,-1,0,64)'
	DD	00H
	DD	00H
	DD	0ffffffffH
	DD	00H
	DD	040H
	DD	FLAT:??_R3kdu_output@@8
rdata$r	ENDS
;	COMDAT ??_R2kdu_output@@8
rdata$r	SEGMENT
??_R2kdu_output@@8 DD FLAT:??_R1A@?0A@EA@kdu_output@@8	; kdu_output::`RTTI Base Class Array'
rdata$r	ENDS
;	COMDAT ??_R3kdu_output@@8
rdata$r	SEGMENT
??_R3kdu_output@@8 DD 00H				; kdu_output::`RTTI Class Hierarchy Descriptor'
	DD	00H
	DD	01H
	DD	FLAT:??_R2kdu_output@@8
rdata$r	ENDS
;	COMDAT ??_R0?AVkdu_output@@@8
data$r	SEGMENT
??_R0?AVkdu_output@@@8 DD FLAT:??_7type_info@@6B@	; kdu_output `RTTI Type Descriptor'
	DD	00H
	DB	'.?AVkdu_output@@', 00H
data$r	ENDS
;	COMDAT ??_R4kdu_output@@6B@
rdata$r	SEGMENT
??_R4kdu_output@@6B@ DD 00H				; kdu_output::`RTTI Complete Object Locator'
	DD	00H
	DD	00H
	DD	FLAT:??_R0?AVkdu_output@@@8
	DD	FLAT:??_R3kdu_output@@8
rdata$r	ENDS
;	COMDAT ??_C@_0FI@JEJCBJLM@Heap?5exhausted?4?5?5Unable?5to?5alloc@
CONST	SEGMENT
??_C@_0FI@JEJCBJLM@Heap?5exhausted?4?5?5Unable?5to?5alloc@ DB 'Heap exhau'
	DB	'sted.  Unable to allocate sufficient memory for code-block st'
	DB	'ate information.', 00H			; `string'
CONST	ENDS
;	COMDAT ??_7kd_dummy_target@@6B@
CONST	SEGMENT
??_7kd_dummy_target@@6B@ DD FLAT:??_R4kd_dummy_target@@6B@ ; kd_dummy_target::`vftable'
	DD	FLAT:??_Ekd_dummy_target@@UAEPAXI@Z
	DD	FLAT:?flush_buf@kd_dummy_target@@MAEXXZ
CONST	ENDS
;	COMDAT ??_C@_0IN@CECCKADH@You?5may?5not?5currently?5flush?5comp@
CONST	SEGMENT
??_C@_0IN@CECCKADH@You?5may?5not?5currently?5flush?5comp@ DB 'You may not'
	DB	' currently flush compressed code-stream data without completi'
	DB	'ng the compression of all code-blocks in all precincts of all'
	DB	' tiles.', 00H				; `string'
CONST	ENDS
;	COMDAT ??_C@_0BEO@PKHFIGLM@Encountered?5a?5corrupted?5packet?5w@
CONST	SEGMENT
??_C@_0BEO@PKHFIGLM@Encountered?5a?5corrupted?5packet?5w@ DB 'Encountered'
	DB	' a corrupted packet while using packet length information to '
	DB	'access the compressed data source in a random access fashion.'
	DB	'  To process corrupted code-streams in an error resilient man'
	DB	'ner, you must disable seeking on the compressed data source ('
	DB	'i.e., force sequential access) as well as enabling the resili'
	DB	'ent parsing mode.', 00H			; `string'
CONST	ENDS
;	COMDAT ??_C@_0CD@BIAHNBHE@Packet?5body?5terminated?5with?5an?5F@
CONST	SEGMENT
??_C@_0CD@BIAHNBHE@Packet?5body?5terminated?5with?5an?5F@ DB 'Packet body'
	DB	' terminated with an FF!', 00H		; `string'
CONST	ENDS
;	COMDAT ??_C@_0FO@KDIMGOKP@?0?5found?5while?5reading?5packet?5bod@
CONST	SEGMENT
??_C@_0FO@KDIMGOKP@?0?5found?5while?5reading?5packet?5bod@ DB ', found wh'
	DB	'ile reading packet body.  Try re-opening the image with the r'
	DB	'esilient mode enabled.', 00H		; `string'
CONST	ENDS
;	COMDAT ??_C@_09LNCLJGMF@?5instead?4?$AA@
CONST	SEGMENT
??_C@_09LNCLJGMF@?5instead?4?$AA@ DB ' instead.', 00H	; `string'
CONST	ENDS
;	COMDAT ??_C@_0DN@IEKEFHF@Expected?5to?5find?5EPH?5marker?5foll@
CONST	SEGMENT
??_C@_0DN@IEKEFHF@Expected?5to?5find?5EPH?5marker?5foll@ DB 'Expected to '
	DB	'find EPH marker following packet header.  Found ', 00H ; `string'
CONST	ENDS
;	COMDAT ??_C@_0GA@NALIOIEH@?0?5found?5while?5reading?5packet?5hea@
CONST	SEGMENT
??_C@_0GA@NALIOIEH@?0?5found?5while?5reading?5packet?5hea@ DB ', found wh'
	DB	'ile reading packet header.  Try re-opening the image with the'
	DB	' resilient mode enabled.', 00H		; `string'
CONST	ENDS
;	COMDAT ??_C@_0BG@OOKLLMMG@Illegal?5marker?5code?0?5?$AA@
CONST	SEGMENT
??_C@_0BG@OOKLLMMG@Illegal?5marker?5code?0?5?$AA@ DB 'Illegal marker code'
	DB	', ', 00H					; `string'
CONST	ENDS
;	COMDAT ??_C@_0BAA@PKDCKLHJ@Illegal?5number?5of?5missing?5MSB?8s?5@
CONST	SEGMENT
??_C@_0BAA@PKDCKLHJ@Illegal?5number?5of?5missing?5MSB?8s?5@ DB 'Illegal n'
	DB	'umber of missing MSB''s signalled in corrupted tag tree.  The'
	DB	' value may not exceed 74 in any practical code-stream or any '
	DB	'legal code-stream which is consistent with profile 0 or profi'
	DB	'le 1.  Try re-opening the image with the resilient mode enabl'
	DB	'ed.', 00H					; `string'
CONST	ENDS
;	COMDAT ??_C@_0CBL@LGBHIIBA@Illegal?5inclusion?5tag?5tree?5encou@
CONST	SEGMENT
??_C@_0CBL@LGBHIIBA@Illegal?5inclusion?5tag?5tree?5encou@ DB 'Illegal inc'
	DB	'lusion tag tree encountered while decoding a packet header.  '
	DB	'This problem can arise if empty packets are used (i.e., packe'
	DB	'ts whose first header bit is 0) and the value coded by the in'
	DB	'clusion tag tree in a subsequent packet is not exactly equal '
	DB	'to the index of the quality layer in which each code-block ma'
	DB	'kes its first contribution.  Such an error may arise from a m'
	DB	'is-interpretation of the standard.  The problem may also occu'
	DB	'r as a result of a corrupted code-stream.  Try re-opening the'
	DB	' image with the resilient mode enabled.', 00H ; `string'
CONST	ENDS
;	COMDAT ??_C@_0BDO@LLBNLAKJ@Packet?5header?5contains?5a?5represe@
CONST	SEGMENT
??_C@_0BDO@LLBNLAKJ@Packet?5header?5contains?5a?5represe@ DB 'Packet head'
	DB	'er contains a representation which is not strictly illegal, b'
	DB	'ut unreasonably large so that it exceeds the dynamic range av'
	DB	'ailable for our internal representation!  The problem is most'
	DB	' likely due to a corrupt or incorrectly constructed code-stre'
	DB	'am.  Try re-opening the image with the resilient mode enabled'
	DB	'.', 00H					; `string'
CONST	ENDS
;	COMDAT ??_R0G@8
data$r	SEGMENT
??_R0G@8 DD	FLAT:??_7type_info@@6B@			; unsigned short `RTTI Type Descriptor'
	DD	00H
	DB	'.G', 00H
data$r	ENDS
;	COMDAT ??_C@_0FB@NMDJGOOL@Exhausted?5PPM?1PPT?5marker?5segment@
CONST	SEGMENT
??_C@_0FB@NMDJGOOL@Exhausted?5PPM?1PPT?5marker?5segment@ DB 'Exhausted PP'
	DB	'M/PPT marker segment data while attempting to parse a packet '
	DB	'header!', 00H				; `string'
CONST	ENDS
;	COMDAT ??_C@_0BJ@HMCGKOMP@?7Illegal?5marker?5code?5is?5?$AA@
CONST	SEGMENT
??_C@_0BJ@HMCGKOMP@?7Illegal?5marker?5code?5is?5?$AA@ DB 09H, 'Illegal ma'
	DB	'rker code is ', 00H				; `string'
CONST	ENDS
;	COMDAT ??_C@_0FD@LOABHKKD@Illegal?5marker?5code?5found?5while?5@
CONST	SEGMENT
??_C@_0FD@LOABHKKD@Illegal?5marker?5code?5found?5while?5@ DB 'Illegal mar'
	DB	'ker code found while attempting to read a packet from the cod'
	DB	'e-stream!', 0aH, 00H			; `string'
CONST	ENDS
;	COMDAT ??_C@_0EO@IEHAKBJH@Use?5the?5resilient?5option?5if?5you?5@
CONST	SEGMENT
??_C@_0EO@IEHAKBJH@Use?5the?5resilient?5option?5if?5you?5@ DB 'Use the re'
	DB	'silient option if you would like to try to recover from this '
	DB	'error.', 00H				; `string'
CONST	ENDS
;	COMDAT ??_C@_02MIICKFIN@?4?6?$AA@
CONST	SEGMENT
??_C@_02MIICKFIN@?4?6?$AA@ DB '.', 0aH, 00H		; `string'
CONST	ENDS
;	COMDAT ??_C@_0BA@BNNPLEHB@?0?5but?5expected?5?$AA@
CONST	SEGMENT
??_C@_0BA@BNNPLEHB@?0?5but?5expected?5?$AA@ DB ', but expected ', 00H ; `string'
CONST	ENDS
;	COMDAT ??_C@_0BI@NMKGFPMC@?7Found?5sequence?5number?5?$AA@
CONST	SEGMENT
??_C@_0BI@NMKGFPMC@?7Found?5sequence?5number?5?$AA@ DB 09H, 'Found sequen'
	DB	'ce number ', 00H				; `string'
CONST	ENDS
;	COMDAT ??_C@_0FK@HALGFJID@Out?9of?9sequence?5SOP?5marker?5found@
CONST	SEGMENT
??_C@_0FK@HALGFJID@Out?9of?9sequence?5SOP?5marker?5found@ DB 'Out-of-sequ'
	DB	'ence SOP marker found while attempting to read a packet from '
	DB	'the code-stream!', 0aH, 00H			; `string'
CONST	ENDS
;	COMDAT ??_C@_0ED@CJMFIANH@Attempting?5to?5open?5the?5same?5code@
CONST	SEGMENT
??_C@_0ED@CJMFIANH@Attempting?5to?5open?5the?5same?5code@ DB 'Attempting '
	DB	'to open the same code-block more than once for writing!', 00H ; `string'
CONST	ENDS
;	COMDAT ??_C@_0NN@MFAEJGKE@You?5are?5permitted?5to?5open?5each?5c@
CONST	SEGMENT
??_C@_0NN@MFAEJGKE@You?5are?5permitted?5to?5open?5each?5c@ DB 'You are pe'
	DB	'rmitted to open each code-block only once from an open tile b'
	DB	'efore closing that tile.  If the codestream object is marked '
	DB	'as persistent, you may re-open code-blocks only after re-open'
	DB	'ing their containing tiles.', 00H		; `string'
CONST	ENDS
;	COMDAT ??_C@_0MG@MIKKMPNN@The?5precinct?5you?5are?5trying?5to?5a@
CONST	SEGMENT
??_C@_0MG@MIKKMPNN@The?5precinct?5you?5are?5trying?5to?5a@ DB 'The precin'
	DB	'ct you are trying to access via `kdu_resolution::get_precinct'
	DB	'_packets'' is no longer available, probably because you alrea'
	DB	'dy fully accessed its visible contents, causing it to be recy'
	DB	'cled.', 00H					; `string'
CONST	ENDS
;	COMDAT ??_C@_0LI@BAKNOCIL@Calls?5to?5?$GAkdu_resolution?3?3open_p@
CONST	SEGMENT
??_C@_0LI@BAKNOCIL@Calls?5to?5?$GAkdu_resolution?3?3open_p@ DB 'Calls to '
	DB	'`kdu_resolution::open_precinct'' are permitted only with inte'
	DB	'rchange codestream objects (i.e., those which have neither a '
	DB	'compressed data source nor a compressed data target).', 00H ; `string'
CONST	ENDS
;	COMDAT ??_C@_07MIOINIMK@Cdecomp?$AA@
CONST	SEGMENT
??_C@_07MIOINIMK@Cdecomp?$AA@ DB 'Cdecomp', 00H		; `string'
CONST	ENDS
;	COMDAT ??_C@_0BCL@NDBOHLBO@Attempting?5to?5access?5a?5resolutio@
CONST	SEGMENT
??_C@_0BCL@NDBOHLBO@Attempting?5to?5access?5a?5resolutio@ DB 'Attempting '
	DB	'to access a resolution level within some tile-component, whil'
	DB	'e the codestream is in a geometrically flipped viewing condit'
	DB	'ion, where a packet wavelet transform has been found to be in'
	DB	'compatible with flipping.  This condition can be identified b'
	DB	'y calling `kdu_codestream::can_flip'' first.', 00H ; `string'
CONST	ENDS
;	COMDAT ??_C@_0NP@CFEPKMLA@Attempting?5to?5access?5a?5non?9exist@
CONST	SEGMENT
??_C@_0NP@CFEPKMLA@Attempting?5to?5access?5a?5non?9exist@ DB 'Attempting '
	DB	'to access a non-existent resolution level within some tile-co'
	DB	'mponent.  Problem almost certainly caused by trying to discar'
	DB	'd more resolution levels than the number of DWT levels used t'
	DB	'o compress a tile-component.', 00H		; `string'
CONST	ENDS
;	COMDAT ??_C@_0P@CMBCAAOP@Mtriang_coeffs?$AA@
CONST	SEGMENT
??_C@_0P@CMBCAAOP@Mtriang_coeffs?$AA@ DB 'Mtriang_coeffs', 00H ; `string'
CONST	ENDS
;	COMDAT ??_C@_0P@NJDNNBNG@Mmatrix_coeffs?$AA@
CONST	SEGMENT
??_C@_0P@NJDNNBNG@Mmatrix_coeffs?$AA@ DB 'Mmatrix_coeffs', 00H ; `string'
CONST	ENDS
;	COMDAT ??_C@_0P@DIALIICI@Mvector_coeffs?$AA@
CONST	SEGMENT
??_C@_0P@DIALIICI@Mvector_coeffs?$AA@ DB 'Mvector_coeffs', 00H ; `string'
CONST	ENDS
;	COMDAT ??_C@_0OJ@JNMDPNHM@Length?5of?5current?5tile?9part?5exce@
CONST	SEGMENT
??_C@_0OJ@JNMDPNHM@Length?5of?5current?5tile?9part?5exce@ DB 'Length of c'
	DB	'urrent tile-part exceeds the maximum value which can be repre'
	DB	'sented by the 32-bit length field in the SOT marker!  You wil'
	DB	'l have to split the code-stream into smaller tile-parts -- se'
	DB	'e the "ORGtparts" parameter attribute.', 00H ; `string'
CONST	ENDS
;	COMDAT ??_C@_0NP@BHJNFIFJ@Cannot?5satisfy?5the?5request?5to?5ge@
CONST	SEGMENT
??_C@_0NP@BHJNFIFJ@Cannot?5satisfy?5the?5request?5to?5ge@ DB 'Cannot sati'
	DB	'sfy the request to generate PLT marker segments!  There are s'
	DB	'o many packets in one tile-part that it is beyond the capacit'
	DB	'y of the maximum 256 marker segments to represent length info'
	DB	'rmation for all tile-parts!!', 00H		; `string'
CONST	ENDS
;	COMDAT ??_C@_0KI@NPIDLLIG@Attempting?5to?5generate?5tile?9part@
CONST	SEGMENT
??_C@_0KI@NPIDLLIG@Attempting?5to?5generate?5tile?9part@ DB 'Attempting t'
	DB	'o generate tile-part data without first determining packet le'
	DB	'ngths.  This may be a consequence of incomplete simulation of'
	DB	' the packet construction process.', 00H	; `string'
CONST	ENDS
;	COMDAT ??_C@_0MP@KJDJEMOL@Profile?5violation?5detected?5?$CIcode@
CONST	SEGMENT
??_C@_0MP@KJDJEMOL@Profile?5violation?5detected?5?$CIcode@ DB 'Profile vi'
	DB	'olation detected (code-stream is technically illegal).  In a '
	DB	'Profile-0 code-stream, all first tile-parts of all tiles must'
	DB	' appear first, in exactly the same order as their respective '
	DB	'tile numbers.', 00H				; `string'
CONST	ENDS
;	COMDAT ??_C@_0GI@GJEHPDEO@?4?5?5The?5maximum?5number?5of?5tile?9pa@
CONST	SEGMENT
??_C@_0GI@GJEHPDEO@?4?5?5The?5maximum?5number?5of?5tile?9pa@ DB '.  The m'
	DB	'aximum number of tile-parts per tile has been fixed by the `O'
	DB	'RGgen_tlm'' parameter attribute to ', 00H	; `string'
CONST	ENDS
;	COMDAT ??_C@_0CJ@PEIPJIAP@?4?5?5No?5tile?5may?5have?5more?5than?525@
CONST	SEGMENT
??_C@_0CJ@PEIPJIAP@?4?5?5No?5tile?5may?5have?5more?5than?525@ DB '.  No t'
	DB	'ile may have more than 255 parts.', 00H	; `string'
CONST	ENDS
;	COMDAT ??_C@_0BO@KPHEGGEJ@Too?5many?5tile?9parts?5for?5tile?5?$AA@
CONST	SEGMENT
??_C@_0BO@KPHEGGEJ@Too?5many?5tile?9parts?5for?5tile?5?$AA@ DB 'Too many '
	DB	'tile-parts for tile ', 00H			; `string'
CONST	ENDS
;	COMDAT ??_C@_0DE@HNLKCMOC@Use?5of?5both?5PPM?5and?5PPT?5marker?5s@
CONST	SEGMENT
??_C@_0DE@HNLKCMOC@Use?5of?5both?5PPM?5and?5PPT?5marker?5s@ DB 'Use of bo'
	DB	'th PPM and PPT marker segments is illegal!', 00H ; `string'
CONST	ENDS
;	COMDAT ??_C@_0JC@HCNJDFHD@Found?5non?9marker?5code?5while?5look@
CONST	SEGMENT
??_C@_0JC@HCNJDFHD@Found?5non?9marker?5code?5while?5look@ DB 'Found non-m'
	DB	'arker code while looking for SOD marker to terminate a tile-p'
	DB	'art header.  Chances are that a marker segment length field i'
	DB	's incorrect!', 00H				; `string'
CONST	ENDS
;	COMDAT ??_C@_0KL@FMHHAPCD@Profile?5violation?5detected?5?$CIcode@
CONST	SEGMENT
??_C@_0KL@FMHHAPCD@Profile?5violation?5detected?5?$CIcode@ DB 'Profile vi'
	DB	'olation detected (code-stream is technically illegal).  PPT m'
	DB	'arker segments may not appear within a Profile-0 code-stream.'
	DB	'  You should set "Sprofile" to 1 or 2.', 00H ; `string'
CONST	ENDS
;	COMDAT ??_C@_03LFCEPJHK@POC?$AA@
CONST	SEGMENT
??_C@_03LFCEPJHK@POC?$AA@ DB 'POC', 00H			; `string'
CONST	ENDS
;	COMDAT ??_C@_0FD@MEKGJNMP@?5is?5identified?5by?5different?5non?9@
CONST	SEGMENT
??_C@_0FD@MEKGJNMP@?5is?5identified?5by?5different?5non?9@ DB ' is identi'
	DB	'fied by different non-zero values in different SOT markers fo'
	DB	'r the tile!', 00H				; `string'
CONST	ENDS
;	COMDAT ??_C@_0CK@JIECJLAN@The?5number?5of?5tile?9parts?5for?5til@
CONST	SEGMENT
??_C@_0CK@JIECJLAN@The?5number?5of?5tile?9parts?5for?5til@ DB 'The number'
	DB	' of tile-parts for tile number ', 00H	; `string'
CONST	ENDS
;	COMDAT ??_C@_0BB@LBOIHLHG@?5in?5code?9stream?$CB?$AA@
CONST	SEGMENT
??_C@_0BB@LBOIHLHG@?5in?5code?9stream?$CB?$AA@ DB ' in code-stream!', 00H ; `string'
CONST	ENDS
;	COMDAT ??_C@_0DH@BFBKABHP@Missing?5or?5out?9of?9sequence?5tile?9@
CONST	SEGMENT
??_C@_0DH@BFBKABHP@Missing?5or?5out?9of?9sequence?5tile?9@ DB 'Missing or'
	DB	' out-of-sequence tile-parts for tile number ', 00H ; `string'
CONST	ENDS
;	COMDAT ??_C@_0IL@OEKPKFDK@Corrupt?5SOT?5marker?5segment?5found@
CONST	SEGMENT
??_C@_0IL@OEKPKFDK@Corrupt?5SOT?5marker?5segment?5found@ DB 'Corrupt SOT '
	DB	'marker segment found in codestream: tile-number lies outside '
	DB	'the range of available tiles derived from the SIZ marker segm'
	DB	'ent.', 00H					; `string'
CONST	ENDS
;	COMDAT ??_C@_01LFCBOECM@?4?$AA@
CONST	SEGMENT
??_C@_01LFCBOECM@?4?$AA@ DB '.', 00H			; `string'
CONST	ENDS
;	COMDAT ??_C@_0BO@BKLJKNEJ@?7Expected?5SOT?5marker?5and?5got?5?$AA@
CONST	SEGMENT
??_C@_0BO@BKLJKNEJ@?7Expected?5SOT?5marker?5and?5got?5?$AA@ DB 09H, 'Expe'
	DB	'cted SOT marker and got ', 00H		; `string'
CONST	ENDS
;	COMDAT ??_C@_0CL@KHMENMGB@Invalid?5marker?5code?5found?5in?5cod@
CONST	SEGMENT
??_C@_0CL@KHMENMGB@Invalid?5marker?5code?5found?5in?5cod@ DB 'Invalid mar'
	DB	'ker code found in code-stream!', 0aH, 00H	; `string'
CONST	ENDS
;	COMDAT ??_C@_0HP@MELIFPKI@Found?5non?9marker?5code?5while?5pars@
CONST	SEGMENT
??_C@_0HP@MELIFPKI@Found?5non?9marker?5code?5while?5pars@ DB 'Found non-m'
	DB	'arker code while parsing tile header marker segments.  Chance'
	DB	's are that a marker segment length field is incorrect!', 00H ; `string'
CONST	ENDS
;	COMDAT ??_C@_0GH@CBFAGHCH@You?5cannot?5use?5PPM?5or?5PPT?5marker@
CONST	SEGMENT
??_C@_0GH@CBFAGHCH@You?5cannot?5use?5PPM?5or?5PPT?5marker@ DB 'You cannot'
	DB	' use PPM or PPT marker segments (packed packet headers) with '
	DB	'cached compressed data sources.', 00H	; `string'
CONST	ENDS
;	COMDAT ??_C@_0DB@CKMBKEOA@You?5must?5close?5a?5tile?5before?5you@
CONST	SEGMENT
??_C@_0DB@CKMBKEOA@You?5must?5close?5a?5tile?5before?5you@ DB 'You must c'
	DB	'lose a tile before you can re-open it.', 00H ; `string'
CONST	ENDS
;	COMDAT ??_C@_07HDMBGKJA@QCD?3RGN?$AA@
CONST	SEGMENT
??_C@_07HDMBGKJA@QCD?3RGN?$AA@ DB 'QCD:RGN', 00H	; `string'
CONST	ENDS
;	COMDAT ??_C@_0GC@GCDNIPCG@Illegal?5colour?5transform?5specifi@
CONST	SEGMENT
??_C@_0GC@GCDNIPCG@Illegal?5colour?5transform?5specifi@ DB 'Illegal colou'
	DB	'r transform specified when image has insufficient or incompat'
	DB	'ible colour components.', 00H		; `string'
CONST	ENDS
;	COMDAT ??_C@_0KN@HAEBDHLJ@Precinct?5partition?5dimensions?5to@
CONST	SEGMENT
??_C@_0KN@HAEBDHLJ@Precinct?5partition?5dimensions?5to@ DB 'Precinct part'
	DB	'ition dimensions too small!  Must not be so small that the in'
	DB	'duced code-block partition becomes smaller than 1 sample wide'
	DB	' or 1 sample high within any subband.', 00H	; `string'
CONST	ENDS
;	COMDAT ??_C@_0O@GLALLHKC@Cband_weights?$AA@
CONST	SEGMENT
??_C@_0O@GLALLHKC@Cband_weights?$AA@ DB 'Cband_weights', 00H ; `string'
CONST	ENDS
;	COMDAT ??_C@_0JM@NAEKEAHJ@Profile?5violation?5detected?5?$CIcode@
CONST	SEGMENT
??_C@_0JM@NAEKEAHJ@Profile?5violation?5detected?5?$CIcode@ DB 'Profile vi'
	DB	'olation detected (code-stream is technically illegal).  The "'
	DB	'Rshift" attribute may not exceed 37, except in Profile-2 (the'
	DB	' unrestricted profile).', 00H		; `string'
CONST	ENDS
;	COMDAT ??_C@_06LDAKCIBF@Rshift?$AA@
CONST	SEGMENT
??_C@_06LDAKCIBF@Rshift?$AA@ DB 'Rshift', 00H		; `string'
CONST	ENDS
;	COMDAT ??_C@_07MDGMFIIN@Rweight?$AA@
CONST	SEGMENT
??_C@_07MDGMFIIN@Rweight?$AA@ DB 'Rweight', 00H		; `string'
CONST	ENDS
;	COMDAT ??_C@_06BGIMBACE@Qguard?$AA@
CONST	SEGMENT
??_C@_06BGIMBACE@Qguard?$AA@ DB 'Qguard', 00H		; `string'
CONST	ENDS
;	COMDAT ??_C@_0M@FADGJEKJ@Qabs_ranges?$AA@
CONST	SEGMENT
??_C@_0M@FADGJEKJ@Qabs_ranges?$AA@ DB 'Qabs_ranges', 00H ; `string'
CONST	ENDS
;	COMDAT ??_C@_0N@HICBBPMC@Clev_weights?$AA@
CONST	SEGMENT
??_C@_0N@HICBBPMC@Clev_weights?$AA@ DB 'Clev_weights', 00H ; `string'
CONST	ENDS
;	COMDAT ??_C@_0MJ@MHJOJOLI@Profile?5violation?5detected?5?$CIcode@
CONST	SEGMENT
??_C@_0MJ@MHJOJOLI@Profile?5violation?5detected?5?$CIcode@ DB 'Profile vi'
	DB	'olation detected (code-stream is technically illegal).  Profi'
	DB	'le-0 code-streams may have multiple precincts only in those t'
	DB	'ile-component resolutions whose dimensions are greater than 1'
	DB	'28x128.', 00H				; `string'
CONST	ENDS
;	COMDAT ??_C@_0BBP@FFHCNMHP@Profile?5violation?5detected?5?$CIcode@
CONST	SEGMENT
??_C@_0BBP@FFHCNMHP@Profile?5violation?5detected?5?$CIcode@ DB 'Profile v'
	DB	'iolation detected (code-stream is technically illegal).  Prof'
	DB	'ile-0 and Profile-1 code-streams must have sufficient DWT lev'
	DB	'els to permit extraction of a low resolution image which is n'
	DB	'o larger than 128x128.   Try setting a larger value for "Clev'
	DB	'els" or else set "Sprofile" to 2.', 00H	; `string'
CONST	ENDS
;	COMDAT ??_C@_0BBK@KIFKIPEK@Tile?9component?9resolution?5encoun@
CONST	SEGMENT
??_C@_0BBK@KIFKIPEK@Tile?9component?9resolution?5encoun@ DB 'Tile-compone'
	DB	'nt-resolution encountered in the codestream contains way too '
	DB	'many precincts!!!  The value calculated from codestream param'
	DB	'eters exceeds (2^30) which means that even the storage requir'
	DB	'ed to keep a status pointer for each precinct will exceed the'
	DB	' memory on most machines.', 00H		; `string'
CONST	ENDS
;	COMDAT ??_C@_0L@KGBLICHL@Cprecincts?$AA@
CONST	SEGMENT
??_C@_0L@KGBLICHL@Cprecincts?$AA@ DB 'Cprecincts', 00H	; `string'
CONST	ENDS
;	COMDAT ??_C@_0PN@ECKJOGL@Profile?5violation?5detected?5?$CIcode@
CONST	SEGMENT
??_C@_0PN@ECKJOGL@Profile?5violation?5detected?5?$CIcode@ DB 'Profile vio'
	DB	'lation detected (code-stream is technically illegal).  Part-1'
	DB	' code-streams must have their coding origin (anchor point) se'
	DB	't to 0.  A non-zero coding origin is legal only in JPEG2000 P'
	DB	'art 2; set `Sprofile=PART2'' to avoid this warning message.', 00H ; `string'
CONST	ENDS
;	COMDAT ??_C@_0KN@KMCHIBHI@Profile?5violation?5detected?5?$CIcode@
CONST	SEGMENT
??_C@_0KN@KMCHIBHI@Profile?5violation?5detected?5?$CIcode@ DB 'Profile vi'
	DB	'olation detected (code-stream is technically illegal).  Profi'
	DB	'le-1 code-streams may not have code-block dimensions larger t'
	DB	'han 64.  You should set "Sprofile" to 2.', 00H ; `string'
CONST	ENDS
;	COMDAT ??_C@_0MC@OOKHAIOM@Profile?5violation?5detected?5?$CIcode@
CONST	SEGMENT
??_C@_0MC@OOKHAIOM@Profile?5violation?5detected?5?$CIcode@ DB 'Profile vi'
	DB	'olation detected (code-stream is technically illegal).  Profi'
	DB	'le-0 code-streams may not use the BYPASS, RESET or CAUSAL blo'
	DB	'ck coder mode switches.  You should set "Sprofile" to 1 or 2.'
	DB	00H						; `string'
CONST	ENDS
;	COMDAT ??_C@_0ML@FMBEAHIM@Profile?5violation?5detected?5?$CIcode@
CONST	SEGMENT
??_C@_0ML@FMBEAHIM@Profile?5violation?5detected?5?$CIcode@ DB 'Profile vi'
	DB	'olation detected (code-stream is technically illegal).  Profi'
	DB	'le-0 code-streams must have nominally square code-block dimen'
	DB	'sions, measuring 32x32 or 64x64.  You should set "Sprofile" t'
	DB	'o 1 or 2.', 00H				; `string'
CONST	ENDS
;	COMDAT ??_C@_0BG@JPDDDEGK@Kakadu?5Core?5Warning?3?6?$AA@
CONST	SEGMENT
??_C@_0BG@JPDDDEGK@Kakadu?5Core?5Warning?3?6?$AA@ DB 'Kakadu Core Warning'
	DB	':', 0aH, 00H				; `string'
CONST	ENDS
;	COMDAT ??_C@_07HDHNGJDI@Cweight?$AA@
CONST	SEGMENT
??_C@_07HDHNGJDI@Cweight?$AA@ DB 'Cweight', 00H		; `string'
CONST	ENDS
;	COMDAT ??_C@_07KGEEGGHK@Rlevels?$AA@
CONST	SEGMENT
??_C@_07KGEEGGHK@Rlevels?$AA@ DB 'Rlevels', 00H		; `string'
CONST	ENDS
;	COMDAT ??_C@_0BHA@JBHJNMJO@Tile?9components?5which?5are?5compre@
CONST	SEGMENT
??_C@_0BHA@JBHJNMJO@Tile?9components?5which?5are?5compre@ DB 'Tile-compon'
	DB	'ents which are compressed using the irreversible processing p'
	DB	'ath must have quantization parameters specified in the QCD/QC'
	DB	'C marker segments, either explicitly, or through implicit der'
	DB	'ivation from the quantization parameters for the LL subband, '
	DB	'as explained in the JPEG2000 standard, ISO/IEC 15444-1.  The '
	DB	'present set of code-stream parameters is not legal.', 00H ; `string'
CONST	ENDS
;	COMDAT ??_C@_0L@ELEFPJIC@Qabs_steps?$AA@
CONST	SEGMENT
??_C@_0L@ELEFPJIC@Qabs_steps?$AA@ DB 'Qabs_steps', 00H	; `string'
CONST	ENDS
;	COMDAT ??_C@_08CCOBJCLJ@Qderived?$AA@
CONST	SEGMENT
??_C@_08CCOBJCLJ@Qderived?$AA@ DB 'Qderived', 00H	; `string'
CONST	ENDS
;	COMDAT ??_C@_04HAOFMIPN@Catk?$AA@
CONST	SEGMENT
??_C@_04HAOFMIPN@Catk?$AA@ DB 'Catk', 00H		; `string'
CONST	ENDS
;	COMDAT ??_C@_06EGDCPANH@Cmodes?$AA@
CONST	SEGMENT
??_C@_06EGDCPANH@Cmodes?$AA@ DB 'Cmodes', 00H		; `string'
CONST	ENDS
;	COMDAT ??_C@_04HAGFJFNL@Cblk?$AA@
CONST	SEGMENT
??_C@_04HAGFJFNL@Cblk?$AA@ DB 'Cblk', 00H		; `string'
CONST	ENDS
;	COMDAT ??_C@_0P@LMCGKBAC@Cuse_precincts?$AA@
CONST	SEGMENT
??_C@_0P@LMCGKBAC@Cuse_precincts?$AA@ DB 'Cuse_precincts', 00H ; `string'
CONST	ENDS
;	COMDAT ??_C@_08IDCJHBJK@Ckernels?$AA@
CONST	SEGMENT
??_C@_08IDCJHBJK@Ckernels?$AA@ DB 'Ckernels', 00H	; `string'
CONST	ENDS
;	COMDAT ??_C@_0M@ODOOFFGJ@Creversible?$AA@
CONST	SEGMENT
??_C@_0M@ODOOFFGJ@Creversible?$AA@ DB 'Creversible', 00H ; `string'
CONST	ENDS
;	COMDAT ??_C@_07BGFFFHMP@Clevels?$AA@
CONST	SEGMENT
??_C@_07BGFFFHMP@Clevels?$AA@ DB 'Clevels', 00H		; `string'
CONST	ENDS
;	COMDAT ??_C@_0L@DMGGEJHL@ORGgen_plt?$AA@
CONST	SEGMENT
??_C@_0L@DMGGEJHL@ORGgen_plt?$AA@ DB 'ORGgen_plt', 00H	; `string'
CONST	ENDS
;	COMDAT ??_C@_09CNLDEMAK@ORGtparts?$AA@
CONST	SEGMENT
??_C@_09CNLDEMAK@ORGtparts?$AA@ DB 'ORGtparts', 00H	; `string'
CONST	ENDS
;	COMDAT ??_C@_0M@HKNEBDCB@Creslengths?$AA@
CONST	SEGMENT
??_C@_0M@HKNEBDCB@Creslengths?$AA@ DB 'Creslengths', 00H ; `string'
CONST	ENDS
;	COMDAT ??_C@_07BJCMAMHC@Clayers?$AA@
CONST	SEGMENT
??_C@_07BJCMAMHC@Clayers?$AA@ DB 'Clayers', 00H		; `string'
CONST	ENDS
;	COMDAT ??_C@_0BA@JFAKJNFN@Calign_blk_last?$AA@
CONST	SEGMENT
??_C@_0BA@JFAKJNFN@Calign_blk_last?$AA@ DB 'Calign_blk_last', 00H ; `string'
CONST	ENDS
;	COMDAT ??_C@_04DEPIIIHA@Cycc?$AA@
CONST	SEGMENT
??_C@_04DEPIIIHA@Cycc?$AA@ DB 'Cycc', 00H		; `string'
CONST	ENDS
;	COMDAT ??_C@_08NAIOMJOM@Cuse_eph?$AA@
CONST	SEGMENT
??_C@_08NAIOMJOM@Cuse_eph?$AA@ DB 'Cuse_eph', 00H	; `string'
CONST	ENDS
;	COMDAT ??_C@_08DAJNLNLL@Cuse_sop?$AA@
CONST	SEGMENT
??_C@_08DAJNLNLL@Cuse_sop?$AA@ DB 'Cuse_sop', 00H	; `string'
CONST	ENDS
;	COMDAT ??_C@_03MNMMELJE@ORG?$AA@
CONST	SEGMENT
??_C@_03MNMMELJE@ORG?$AA@ DB 'ORG', 00H			; `string'
CONST	ENDS
;	COMDAT ??_C@_03KEJABOAE@RGN?$AA@
CONST	SEGMENT
??_C@_03KEJABOAE@RGN?$AA@ DB 'RGN', 00H			; `string'
CONST	ENDS
;	COMDAT ??_C@_03ELMDPBLM@QCD?$AA@
CONST	SEGMENT
??_C@_03ELMDPBLM@QCD?$AA@ DB 'QCD', 00H			; `string'
CONST	ENDS
;	COMDAT ??_C@_03LIMJJHMM@COD?$AA@
CONST	SEGMENT
??_C@_03LIMJJHMM@COD?$AA@ DB 'COD', 00H			; `string'
CONST	ENDS
;	COMDAT ??_C@_02NDKNKOCB@?3?6?$AA@
CONST	SEGMENT
??_C@_02NDKNKOCB@?3?6?$AA@ DB ':', 0aH, 00H		; `string'
CONST	ENDS
;	COMDAT ??_C@_0BN@MCFNCJCD@?6?$DO?$DO?5New?5attributes?5for?5tile?5?$AA@
CONST	SEGMENT
??_C@_0BN@MCFNCJCD@?6?$DO?$DO?5New?5attributes?5for?5tile?5?$AA@ DB 0aH, '>'
	DB	'> New attributes for tile ', 00H		; `string'
CONST	ENDS
;	COMDAT ??_C@_0GG@KMAHIAKO@Coding?5partitions?5?$CInamely?0?5code?9@
CONST	SEGMENT
??_C@_0GG@KMAHIAKO@Coding?5partitions?5?$CInamely?0?5code?9@ DB 'Coding p'
	DB	'artitions (namely, code-block and precinct partitions) must h'
	DB	'ave exact power-of-2 dimensions!', 00H	; `string'
CONST	ENDS
;	COMDAT ??_C@_0GL@JBAAPDCE@Coding?5partitions?5?$CIcode?9blocks?5a@
CONST	SEGMENT
??_C@_0GL@JBAAPDCE@Coding?5partitions?5?$CIcode?9blocks?5a@ DB 'Coding pa'
	DB	'rtitions (code-blocks and precinct partitions) must have orig'
	DB	'in coordinates equal to 1 or 0 only!', 00H	; `string'
CONST	ENDS
;	COMDAT ??_C@_0BE@KMIJLGEL@Kakadu?5Core?5Error?3?6?$AA@
CONST	SEGMENT
??_C@_0BE@KMIJLGEL@Kakadu?5Core?5Error?3?6?$AA@ DB 'Kakadu Core Error:', 0aH
	DB	00H						; `string'
CONST	ENDS
;	COMDAT __CT??_R0PAVkd_header_in@@@84
xdata$x	SEGMENT
__CT??_R0PAVkd_header_in@@@84 DD 01H
	DD	FLAT:??_R0PAVkd_header_in@@@8
	DD	00H
	DD	0ffffffffH
	ORG $+4
	DD	04H
	DD	00H
xdata$x	ENDS
;	COMDAT ??_R0PAVkd_header_in@@@8
data$r	SEGMENT
??_R0PAVkd_header_in@@@8 DD FLAT:??_7type_info@@6B@	; kd_header_in * `RTTI Type Descriptor'
	DD	00H
	DB	'.PAVkd_header_in@@', 00H
data$r	ENDS
;	COMDAT __CTA2PAVkd_header_in@@
xdata$x	SEGMENT
__CTA2PAVkd_header_in@@ DD 02H
	DD	FLAT:__CT??_R0PAVkd_header_in@@@84
	DD	FLAT:__CT??_R0PAX@84
xdata$x	ENDS
;	COMDAT __TI2PAVkd_header_in@@
xdata$x	SEGMENT
__TI2PAVkd_header_in@@ DD 00H
	DD	00H
	DD	00H
	DD	FLAT:__CTA2PAVkd_header_in@@
xdata$x	ENDS
;	COMDAT ??_7kd_pph_input@@6B@
CONST	SEGMENT
??_7kd_pph_input@@6B@ DD FLAT:??_R4kd_pph_input@@6B@	; kd_pph_input::`vftable'
	DD	FLAT:??_Ekd_pph_input@@UAEPAXI@Z
	DD	FLAT:?ignore@kd_input@@UAE_J_J@Z
	DD	FLAT:?load_buf@kd_pph_input@@MAE_NXZ
CONST	ENDS
;	COMDAT ??_7kd_input@@6B@
CONST	SEGMENT
??_7kd_input@@6B@ DD FLAT:??_R4kd_input@@6B@		; kd_input::`vftable'
	DD	FLAT:??_Ekd_input@@UAEPAXI@Z
	DD	FLAT:?ignore@kd_input@@UAE_J_J@Z
	DD	FLAT:__purecall
CONST	ENDS
;	COMDAT __CT??_R0H@84
xdata$x	SEGMENT
__CT??_R0H@84 DD 01H
	DD	FLAT:??_R0H@8
	DD	00H
	DD	0ffffffffH
	ORG $+4
	DD	04H
	DD	00H
xdata$x	ENDS
;	COMDAT ??_R0H@8
data$r	SEGMENT
??_R0H@8 DD	FLAT:??_7type_info@@6B@			; int `RTTI Type Descriptor'
	DD	00H
	DB	'.H', 00H
data$r	ENDS
;	COMDAT __CTA1H
xdata$x	SEGMENT
__CTA1H	DD	01H
	DD	FLAT:__CT??_R0H@84
xdata$x	ENDS
;	COMDAT __TI1H
xdata$x	SEGMENT
__TI1H	DD	00H
	DD	00H
	DD	00H
	DD	FLAT:__CTA1H
xdata$x	ENDS
;	COMDAT ??_7kdu_output@@6B@
CONST	SEGMENT
??_7kdu_output@@6B@ DD FLAT:??_R4kdu_output@@6B@	; kdu_output::`vftable'
	DD	FLAT:??_Ekdu_output@@UAEPAXI@Z
	DD	FLAT:__purecall
CONST	ENDS
;	COMDAT __CT??_R0PAX@84
xdata$x	SEGMENT
__CT??_R0PAX@84 DD 01H
	DD	FLAT:??_R0PAX@8
	DD	00H
	DD	0ffffffffH
	ORG $+4
	DD	04H
	DD	00H
xdata$x	ENDS
;	COMDAT ??_R0PAX@8
data$r	SEGMENT
??_R0PAX@8 DD	FLAT:??_7type_info@@6B@			; void * `RTTI Type Descriptor'
	DD	00H
	DB	'.PAX', 00H
data$r	ENDS
;	COMDAT __CT??_R0PAE@84
xdata$x	SEGMENT
__CT??_R0PAE@84 DD 01H
	DD	FLAT:??_R0PAE@8
	DD	00H
	DD	0ffffffffH
	ORG $+4
	DD	04H
	DD	00H
xdata$x	ENDS
;	COMDAT ??_R0PAE@8
data$r	SEGMENT
??_R0PAE@8 DD	FLAT:??_7type_info@@6B@			; unsigned char * `RTTI Type Descriptor'
	DD	00H
	DB	'.PAE', 00H
data$r	ENDS
;	COMDAT __CTA2PAE
xdata$x	SEGMENT
__CTA2PAE DD	02H
	DD	FLAT:__CT??_R0PAE@84
	DD	FLAT:__CT??_R0PAX@84
xdata$x	ENDS
;	COMDAT __TI2PAE
xdata$x	SEGMENT
__TI2PAE DD	00H
	DD	00H
	DD	00H
	DD	FLAT:__CTA2PAE
xdata$x	ENDS
;	COMDAT ??_C@_02DPKJAMEF@?$CFd?$AA@
CONST	SEGMENT
??_C@_02DPKJAMEF@?$CFd?$AA@ DB '%d', 00H		; `string'
CONST	ENDS
;	COMDAT ??_C@_02NJNOFBBI@?$CFx?$AA@
CONST	SEGMENT
??_C@_02NJNOFBBI@?$CFx?$AA@ DB '%x', 00H		; `string'
CONST	ENDS
;	COMDAT xdata$x
xdata$x	SEGMENT
__unwindtable$?check_coding_partition@@YAXUkdu_dims@@@Z DD 0ffffffffH
	DD	FLAT:__unwindfunclet$?check_coding_partition@@YAXUkdu_dims@@@Z$0
	DD	0ffffffffH
	DD	FLAT:__unwindfunclet$?check_coding_partition@@YAXUkdu_dims@@@Z$1
__ehfuncinfo$?check_coding_partition@@YAXUkdu_dims@@@Z DD 019930522H
	DD	02H
	DD	FLAT:__unwindtable$?check_coding_partition@@YAXUkdu_dims@@@Z
	DD	2 DUP(00H)
	DD	2 DUP(00H)
	DD	00H
	DD	01H
xdata$x	ENDS
;	COMDAT xdata$x
xdata$x	SEGMENT
__unwindtable$?augment_free_list@kd_precinct_size_class@@AAEXXZ DD 0ffffffffH
	DD	FLAT:__unwindfunclet$?augment_free_list@kd_precinct_size_class@@AAEXXZ$0
__ehfuncinfo$?augment_free_list@kd_precinct_size_class@@AAEXXZ DD 019930522H
	DD	01H
	DD	FLAT:__unwindtable$?augment_free_list@kd_precinct_size_class@@AAEXXZ
	DD	2 DUP(00H)
	DD	2 DUP(00H)
	DD	00H
	DD	01H
xdata$x	ENDS
;	COMDAT xdata$x
xdata$x	SEGMENT
__unwindtable$?handle_corrupt_packet@kd_precinct@@AAE_NXZ DD 0ffffffffH
	DD	FLAT:__unwindfunclet$?handle_corrupt_packet@kd_precinct@@AAE_NXZ$0
__ehfuncinfo$?handle_corrupt_packet@kd_precinct@@AAE_NXZ DD 019930522H
	DD	01H
	DD	FLAT:__unwindtable$?handle_corrupt_packet@kd_precinct@@AAE_NXZ
	DD	2 DUP(00H)
	DD	2 DUP(00H)
	DD	00H
	DD	01H
xdata$x	ENDS
;	COMDAT xdata$x
xdata$x	SEGMENT
__catchsym$?read_packet@kd_precinct@@AAE_NXZ$17 DD 00H
	DD	FLAT:??_R0G@8
	DD	0ffffffb8H
	DD	FLAT:__catch$?read_packet@kd_precinct@@AAE_NXZ$3
__catchsym$?read_packet@kd_precinct@@AAE_NXZ$16 DD 00H
	DD	FLAT:??_R0PAVkd_header_in@@@8
	DD	00H
	DD	FLAT:__catch$?read_packet@kd_precinct@@AAE_NXZ$0
	DD	00H
	DD	FLAT:??_R0G@8
	DD	0ffffffbcH
	DD	FLAT:__catch$?read_packet@kd_precinct@@AAE_NXZ$1
__ehfuncinfo$?read_packet@kd_precinct@@AAE_NXZ DD 019930522H
	DD	0fH
	DD	FLAT:__unwindtable$?read_packet@kd_precinct@@AAE_NXZ
	DD	02H
	DD	FLAT:__tryblocktable$?read_packet@kd_precinct@@AAE_NXZ
	DD	2 DUP(00H)
	DD	00H
	DD	01H
__tryblocktable$?read_packet@kd_precinct@@AAE_NXZ DD 02H
	DD	02H
	DD	08H
	DD	02H
	DD	FLAT:__catchsym$?read_packet@kd_precinct@@AAE_NXZ$16
	DD	0bH
	DD	0bH
	DD	0dH
	DD	01H
	DD	FLAT:__catchsym$?read_packet@kd_precinct@@AAE_NXZ$17
__unwindtable$?read_packet@kd_precinct@@AAE_NXZ DD 0ffffffffH
	DD	FLAT:__unwindfunclet$?read_packet@kd_precinct@@AAE_NXZ$5
	DD	0ffffffffH
	DD	FLAT:__unwindfunclet$?read_packet@kd_precinct@@AAE_NXZ$6
	DD	0ffffffffH
	DD	00H
	DD	0ffffffffH
	DD	00H
	DD	03H
	DD	FLAT:__unwindfunclet$?read_packet@kd_precinct@@AAE_NXZ$7
	DD	03H
	DD	FLAT:__unwindfunclet$?read_packet@kd_precinct@@AAE_NXZ$8
	DD	03H
	DD	FLAT:__unwindfunclet$?read_packet@kd_precinct@@AAE_NXZ$9
	DD	03H
	DD	FLAT:__unwindfunclet$?read_packet@kd_precinct@@AAE_NXZ$10
	DD	03H
	DD	FLAT:__unwindfunclet$?read_packet@kd_precinct@@AAE_NXZ$11
	DD	0ffffffffH
	DD	FLAT:__unwindfunclet$?read_packet@kd_precinct@@AAE_NXZ$12
	DD	0ffffffffH
	DD	FLAT:__unwindfunclet$?read_packet@kd_precinct@@AAE_NXZ$13
	DD	0ffffffffH
	DD	00H
	DD	0ffffffffH
	DD	00H
	DD	0cH
	DD	FLAT:__unwindfunclet$?read_packet@kd_precinct@@AAE_NXZ$14
	DD	0ffffffffH
	DD	FLAT:__unwindfunclet$?read_packet@kd_precinct@@AAE_NXZ$15
xdata$x	ENDS
;	COMDAT xdata$x
xdata$x	SEGMENT
__unwindtable$?simulate_packet@kd_precinct@@QAE_JAA_JHG_N1_J1@Z DD 0ffffffffH
	DD	FLAT:__unwindfunclet$?simulate_packet@kd_precinct@@QAE_JAA_JHG_N1_J1@Z$0
__ehfuncinfo$?simulate_packet@kd_precinct@@QAE_JAA_JHG_N1_J1@Z DD 019930522H
	DD	01H
	DD	FLAT:__unwindtable$?simulate_packet@kd_precinct@@QAE_JAA_JHG_N1_J1@Z
	DD	2 DUP(00H)
	DD	2 DUP(00H)
	DD	00H
	DD	01H
xdata$x	ENDS
;	COMDAT xdata$x
xdata$x	SEGMENT
__ehfuncinfo$??_Ekd_resolution@@QAEPAXI@Z DD 019930522H
	DD	00H
	DD	00H
	DD	2 DUP(00H)
	DD	2 DUP(00H)
	DD	00H
	DD	05H
xdata$x	ENDS
;	COMDAT xdata$x
xdata$x	SEGMENT
__unwindtable$??1kd_resolution@@QAE@XZ DD 0ffffffffH
	DD	FLAT:__unwindfunclet$??1kd_resolution@@QAE@XZ$0
	DD	00H
	DD	00H
__ehfuncinfo$??1kd_resolution@@QAE@XZ DD 019930522H
	DD	02H
	DD	FLAT:__unwindtable$??1kd_resolution@@QAE@XZ
	DD	2 DUP(00H)
	DD	2 DUP(00H)
	DD	00H
	DD	05H
xdata$x	ENDS
;	COMDAT xdata$x
xdata$x	SEGMENT
__unwindtable$??_Ekd_precinct_ref@@QAEPAXI@Z DD 0ffffffffH
	DD	FLAT:__unwindfunclet$??_Ekd_precinct_ref@@QAEPAXI@Z$0
__ehfuncinfo$??_Ekd_precinct_ref@@QAEPAXI@Z DD 019930522H
	DD	01H
	DD	FLAT:__unwindtable$??_Ekd_precinct_ref@@QAEPAXI@Z
	DD	2 DUP(00H)
	DD	2 DUP(00H)
	DD	00H
	DD	05H
xdata$x	ENDS
;	COMDAT xdata$x
xdata$x	SEGMENT
__ehfuncinfo$??1kd_precinct_ref@@QAE@XZ DD 019930522H
	DD	00H
	DD	00H
	DD	2 DUP(00H)
	DD	2 DUP(00H)
	DD	00H
	DD	05H
xdata$x	ENDS
;	COMDAT xdata$x
xdata$x	SEGMENT
__ehfuncinfo$??_Ekd_tile_comp@@QAEPAXI@Z DD 019930522H
	DD	00H
	DD	00H
	DD	2 DUP(00H)
	DD	2 DUP(00H)
	DD	00H
	DD	05H
xdata$x	ENDS
;	COMDAT xdata$x
xdata$x	SEGMENT
__unwindtable$??1kd_tile_comp@@QAE@XZ DD 0ffffffffH
	DD	FLAT:__unwindfunclet$??1kd_tile_comp@@QAE@XZ$0
__ehfuncinfo$??1kd_tile_comp@@QAE@XZ DD 019930522H
	DD	01H
	DD	FLAT:__unwindtable$??1kd_tile_comp@@QAE@XZ
	DD	2 DUP(00H)
	DD	2 DUP(00H)
	DD	00H
	DD	05H
xdata$x	ENDS
;	COMDAT xdata$x
xdata$x	SEGMENT
__ehfuncinfo$?generate_tile_part@kd_tile@@QAE_JHQAG@Z DD 019930522H
	DD	06H
	DD	FLAT:__unwindtable$?generate_tile_part@kd_tile@@QAE_JHQAG@Z
	DD	2 DUP(00H)
	DD	2 DUP(00H)
	DD	00H
	DD	01H
__unwindtable$?generate_tile_part@kd_tile@@QAE_JHQAG@Z DD 0ffffffffH
	DD	FLAT:__unwindfunclet$?generate_tile_part@kd_tile@@QAE_JHQAG@Z$0
	DD	0ffffffffH
	DD	FLAT:__unwindfunclet$?generate_tile_part@kd_tile@@QAE_JHQAG@Z$1
	DD	0ffffffffH
	DD	FLAT:__unwindfunclet$?generate_tile_part@kd_tile@@QAE_JHQAG@Z$2
	DD	0ffffffffH
	DD	FLAT:__unwindfunclet$?generate_tile_part@kd_tile@@QAE_JHQAG@Z$3
	DD	0ffffffffH
	DD	FLAT:__unwindfunclet$?generate_tile_part@kd_tile@@QAE_JHQAG@Z$4
	DD	0ffffffffH
	DD	FLAT:__unwindfunclet$?generate_tile_part@kd_tile@@QAE_JHQAG@Z$5
xdata$x	ENDS
;	COMDAT xdata$x
xdata$x	SEGMENT
__ehfuncinfo$?read_tile_part_header@kd_tile@@QAE_NXZ DD 019930522H
	DD	09H
	DD	FLAT:__unwindtable$?read_tile_part_header@kd_tile@@QAE_NXZ
	DD	2 DUP(00H)
	DD	2 DUP(00H)
	DD	00H
	DD	01H
__unwindtable$?read_tile_part_header@kd_tile@@QAE_NXZ DD 0ffffffffH
	DD	FLAT:__unwindfunclet$?read_tile_part_header@kd_tile@@QAE_NXZ$0
	DD	0ffffffffH
	DD	FLAT:__unwindfunclet$?read_tile_part_header@kd_tile@@QAE_NXZ$1
	DD	0ffffffffH
	DD	FLAT:__unwindfunclet$?read_tile_part_header@kd_tile@@QAE_NXZ$2
	DD	0ffffffffH
	DD	FLAT:__unwindfunclet$?read_tile_part_header@kd_tile@@QAE_NXZ$3
	DD	0ffffffffH
	DD	FLAT:__unwindfunclet$?read_tile_part_header@kd_tile@@QAE_NXZ$4
	DD	0ffffffffH
	DD	FLAT:__unwindfunclet$?read_tile_part_header@kd_tile@@QAE_NXZ$5
	DD	0ffffffffH
	DD	FLAT:__unwindfunclet$?read_tile_part_header@kd_tile@@QAE_NXZ$6
	DD	0ffffffffH
	DD	FLAT:__unwindfunclet$?read_tile_part_header@kd_tile@@QAE_NXZ$8
	DD	0ffffffffH
	DD	FLAT:__unwindfunclet$?read_tile_part_header@kd_tile@@QAE_NXZ$9
xdata$x	ENDS
;	COMDAT xdata$x
xdata$x	SEGMENT
__unwindtable$?open@kd_tile@@QAEXXZ DD 0ffffffffH
	DD	FLAT:__unwindfunclet$?open@kd_tile@@QAEXXZ$0
__ehfuncinfo$?open@kd_tile@@QAEXXZ DD 019930522H
	DD	01H
	DD	FLAT:__unwindtable$?open@kd_tile@@QAEXXZ
	DD	2 DUP(00H)
	DD	2 DUP(00H)
	DD	00H
	DD	01H
xdata$x	ENDS
;	COMDAT xdata$x
xdata$x	SEGMENT
__unwindtable$?reinitialize@kd_tile@@QAEXXZ DD 0ffffffffH
	DD	FLAT:__unwindfunclet$?reinitialize@kd_tile@@QAEXXZ$0
	DD	0ffffffffH
	DD	FLAT:__unwindfunclet$?reinitialize@kd_tile@@QAEXXZ$1
	DD	01H
	DD	FLAT:__unwindfunclet$?reinitialize@kd_tile@@QAEXXZ$2
	DD	02H
	DD	FLAT:__unwindfunclet$?reinitialize@kd_tile@@QAEXXZ$3
__ehfuncinfo$?reinitialize@kd_tile@@QAEXXZ DD 019930522H
	DD	04H
	DD	FLAT:__unwindtable$?reinitialize@kd_tile@@QAEXXZ
	DD	2 DUP(00H)
	DD	2 DUP(00H)
	DD	00H
	DD	01H
xdata$x	ENDS
;	COMDAT xdata$x
xdata$x	SEGMENT
__ehfuncinfo$?recycle@kd_tile@@QAEXPAUkd_tile_ref@@Ukdu_coords@@Ukdu_dims@@@Z DD 019930522H
	DD	0dH
	DD	FLAT:__unwindtable$?recycle@kd_tile@@QAEXPAUkd_tile_ref@@Ukdu_coords@@Ukdu_dims@@@Z
	DD	2 DUP(00H)
	DD	2 DUP(00H)
	DD	00H
	DD	01H
__unwindtable$?recycle@kd_tile@@QAEXPAUkd_tile_ref@@Ukdu_coords@@Ukdu_dims@@@Z DD 0ffffffffH
	DD	FLAT:__unwindfunclet$?recycle@kd_tile@@QAEXPAUkd_tile_ref@@Ukdu_coords@@Ukdu_dims@@@Z$7
	DD	0ffffffffH
	DD	FLAT:__unwindfunclet$?recycle@kd_tile@@QAEXPAUkd_tile_ref@@Ukdu_coords@@Ukdu_dims@@@Z$8
	DD	01H
	DD	FLAT:__unwindfunclet$?recycle@kd_tile@@QAEXPAUkd_tile_ref@@Ukdu_coords@@Ukdu_dims@@@Z$9
	DD	02H
	DD	FLAT:__unwindfunclet$?recycle@kd_tile@@QAEXPAUkd_tile_ref@@Ukdu_coords@@Ukdu_dims@@@Z$10
	DD	0ffffffffH
	DD	FLAT:__unwindfunclet$?recycle@kd_tile@@QAEXPAUkd_tile_ref@@Ukdu_coords@@Ukdu_dims@@@Z$11
	DD	04H
	DD	00H
	DD	0ffffffffH
	DD	FLAT:__unwindfunclet$?recycle@kd_tile@@QAEXPAUkd_tile_ref@@Ukdu_coords@@Ukdu_dims@@@Z$0
	DD	0ffffffffH
	DD	FLAT:__unwindfunclet$?recycle@kd_tile@@QAEXPAUkd_tile_ref@@Ukdu_coords@@Ukdu_dims@@@Z$1
	DD	0ffffffffH
	DD	FLAT:__unwindfunclet$?recycle@kd_tile@@QAEXPAUkd_tile_ref@@Ukdu_coords@@Ukdu_dims@@@Z$2
	DD	0ffffffffH
	DD	FLAT:__unwindfunclet$?recycle@kd_tile@@QAEXPAUkd_tile_ref@@Ukdu_coords@@Ukdu_dims@@@Z$3
	DD	0ffffffffH
	DD	FLAT:__unwindfunclet$?recycle@kd_tile@@QAEXPAUkd_tile_ref@@Ukdu_coords@@Ukdu_dims@@@Z$4
	DD	0ffffffffH
	DD	FLAT:__unwindfunclet$?recycle@kd_tile@@QAEXPAUkd_tile_ref@@Ukdu_coords@@Ukdu_dims@@@Z$5
	DD	0ffffffffH
	DD	FLAT:__unwindfunclet$?recycle@kd_tile@@QAEXPAUkd_tile_ref@@Ukdu_coords@@Ukdu_dims@@@Z$6
xdata$x	ENDS
;	COMDAT xdata$x
xdata$x	SEGMENT
__ehfuncinfo$?initialize@kd_tile@@QAEXXZ DD 019930522H
	DD	012H
	DD	FLAT:__unwindtable$?initialize@kd_tile@@QAEXXZ
	DD	2 DUP(00H)
	DD	2 DUP(00H)
	DD	00H
	DD	01H
__unwindtable$?initialize@kd_tile@@QAEXXZ DD 0ffffffffH
	DD	FLAT:__unwindfunclet$?initialize@kd_tile@@QAEXXZ$0
	DD	0ffffffffH
	DD	FLAT:__unwindfunclet$?initialize@kd_tile@@QAEXXZ$1
	DD	0ffffffffH
	DD	FLAT:__unwindfunclet$?initialize@kd_tile@@QAEXXZ$2
	DD	02H
	DD	FLAT:__unwindfunclet$?initialize@kd_tile@@QAEXXZ$3
	DD	02H
	DD	FLAT:__unwindfunclet$?initialize@kd_tile@@QAEXXZ$4
	DD	02H
	DD	FLAT:__unwindfunclet$?initialize@kd_tile@@QAEXXZ$5
	DD	02H
	DD	FLAT:__unwindfunclet$?initialize@kd_tile@@QAEXXZ$6
	DD	02H
	DD	FLAT:__unwindfunclet$?initialize@kd_tile@@QAEXXZ$7
	DD	02H
	DD	FLAT:__unwindfunclet$?initialize@kd_tile@@QAEXXZ$8
	DD	02H
	DD	FLAT:__unwindfunclet$?initialize@kd_tile@@QAEXXZ$9
	DD	02H
	DD	FLAT:__unwindfunclet$?initialize@kd_tile@@QAEXXZ$10
	DD	02H
	DD	FLAT:__unwindfunclet$?initialize@kd_tile@@QAEXXZ$11
	DD	02H
	DD	FLAT:__unwindfunclet$?initialize@kd_tile@@QAEXXZ$12
	DD	02H
	DD	FLAT:__unwindfunclet$?initialize@kd_tile@@QAEXXZ$13
	DD	02H
	DD	FLAT:__unwindfunclet$?initialize@kd_tile@@QAEXXZ$14
	DD	0ffffffffH
	DD	FLAT:__unwindfunclet$?initialize@kd_tile@@QAEXXZ$17
	DD	0ffffffffH
	DD	FLAT:__unwindfunclet$?initialize@kd_tile@@QAEXXZ$15
	DD	0ffffffffH
	DD	FLAT:__unwindfunclet$?initialize@kd_tile@@QAEXXZ$16
xdata$x	ENDS
;	COMDAT xdata$x
xdata$x	SEGMENT
__ehfuncinfo$??1kd_tile@@QAE@XZ DD 019930522H
	DD	06H
	DD	FLAT:__unwindtable$??1kd_tile@@QAE@XZ
	DD	2 DUP(00H)
	DD	2 DUP(00H)
	DD	00H
	DD	05H
__unwindtable$??1kd_tile@@QAE@XZ DD 0ffffffffH
	DD	FLAT:__unwindfunclet$??1kd_tile@@QAE@XZ$1
	DD	0ffffffffH
	DD	FLAT:__unwindfunclet$??1kd_tile@@QAE@XZ$3
	DD	0ffffffffH
	DD	FLAT:__unwindfunclet$??1kd_tile@@QAE@XZ$4
	DD	02H
	DD	FLAT:__unwindfunclet$??1kd_tile@@QAE@XZ$5
	DD	03H
	DD	FLAT:__unwindfunclet$??1kd_tile@@QAE@XZ$6
	DD	0ffffffffH
	DD	FLAT:__unwindfunclet$??1kd_tile@@QAE@XZ$7
xdata$x	ENDS
;	COMDAT xdata$x
xdata$x	SEGMENT
__unwindtable$??_Gkd_mct_stage@@QAEPAXI@Z DD 0ffffffffH
	DD	FLAT:__unwindfunclet$??_Gkd_mct_stage@@QAEPAXI@Z$0
	DD	00H
	DD	FLAT:__unwindfunclet$??_Gkd_mct_stage@@QAEPAXI@Z$1
__ehfuncinfo$??_Gkd_mct_stage@@QAEPAXI@Z DD 019930522H
	DD	02H
	DD	FLAT:__unwindtable$??_Gkd_mct_stage@@QAEPAXI@Z
	DD	2 DUP(00H)
	DD	2 DUP(00H)
	DD	00H
	DD	05H
xdata$x	ENDS
;	COMDAT xdata$x
xdata$x	SEGMENT
__unwindtable$??1kd_mct_stage@@QAE@XZ DD 0ffffffffH
	DD	FLAT:__unwindfunclet$??1kd_mct_stage@@QAE@XZ$0
__ehfuncinfo$??1kd_mct_stage@@QAE@XZ DD 019930522H
	DD	01H
	DD	FLAT:__unwindtable$??1kd_mct_stage@@QAE@XZ
	DD	2 DUP(00H)
	DD	2 DUP(00H)
	DD	00H
	DD	05H
xdata$x	ENDS
;	COMDAT xdata$x
xdata$x	SEGMENT
__ehfuncinfo$??_Ekd_mct_block@@QAEPAXI@Z DD 019930522H
	DD	00H
	DD	00H
	DD	2 DUP(00H)
	DD	2 DUP(00H)
	DD	00H
	DD	05H
xdata$x	ENDS
;	COMDAT xdata$x
xdata$x	SEGMENT
__unwindtable$??1kd_mct_block@@QAE@XZ DD 0ffffffffH
	DD	FLAT:__unwindfunclet$??1kd_mct_block@@QAE@XZ$0
__ehfuncinfo$??1kd_mct_block@@QAE@XZ DD 019930522H
	DD	01H
	DD	FLAT:__unwindtable$??1kd_mct_block@@QAE@XZ
	DD	2 DUP(00H)
	DD	2 DUP(00H)
	DD	00H
	DD	05H
xdata$x	ENDS
;	COMDAT xdata$x
xdata$x	SEGMENT
__ehfuncinfo$??_Ekd_mct_ss_model@@QAEPAXI@Z DD 019930522H
	DD	00H
	DD	00H
	DD	2 DUP(00H)
	DD	2 DUP(00H)
	DD	00H
	DD	05H
xdata$x	ENDS
;	COMDAT xdata$x
xdata$x	SEGMENT
__ehfuncinfo$??_Ekd_reslength_checker@@QAEPAXI@Z DD 019930522H
	DD	00H
	DD	00H
	DD	2 DUP(00H)
	DD	2 DUP(00H)
	DD	00H
	DD	05H
xdata$x	ENDS
;	COMDAT xdata$x
xdata$x	SEGMENT
__ehfuncinfo$??1kd_precinct_pointer_server@@QAE@XZ DD 019930522H
	DD	00H
	DD	00H
	DD	2 DUP(00H)
	DD	2 DUP(00H)
	DD	00H
	DD	05H
xdata$x	ENDS
;	COMDAT xdata$x
xdata$x	SEGMENT
__unwindtable$?get_packets@kdu_precinct@@QAE_NHHAAH0PAVkdu_output@@@Z DD 0ffffffffH
	DD	FLAT:__unwindfunclet$?get_packets@kdu_precinct@@QAE_NHHAAH0PAVkdu_output@@@Z$0
__ehfuncinfo$?get_packets@kdu_precinct@@QAE_NHHAAH0PAVkdu_output@@@Z DD 019930522H
	DD	01H
	DD	FLAT:__unwindtable$?get_packets@kdu_precinct@@QAE_NHHAAH0PAVkdu_output@@@Z
	DD	2 DUP(00H)
	DD	2 DUP(00H)
	DD	00H
	DD	01H
xdata$x	ENDS
;	COMDAT xdata$x
xdata$x	SEGMENT
__unwindtable$?open_block@kdu_precinct@@QAEPAUkdu_block@@HUkdu_coords@@PAVkdu_thread_env@@@Z DD 0ffffffffH
	DD	FLAT:__unwindfunclet$?open_block@kdu_precinct@@QAEPAUkdu_block@@HUkdu_coords@@PAVkdu_thread_env@@@Z$0
__ehfuncinfo$?open_block@kdu_precinct@@QAEPAUkdu_block@@HUkdu_coords@@PAVkdu_thread_env@@@Z DD 019930522H
	DD	01H
	DD	FLAT:__unwindtable$?open_block@kdu_precinct@@QAEPAUkdu_block@@HUkdu_coords@@PAVkdu_thread_env@@@Z
	DD	2 DUP(00H)
	DD	2 DUP(00H)
	DD	00H
	DD	01H
xdata$x	ENDS
;	COMDAT xdata$x
xdata$x	SEGMENT
__unwindtable$?open_block@kdu_subband@@QAEPAUkdu_block@@Ukdu_coords@@PAHPAVkdu_thread_env@@@Z DD 0ffffffffH
	DD	FLAT:__unwindfunclet$?open_block@kdu_subband@@QAEPAUkdu_block@@Ukdu_coords@@PAHPAVkdu_thread_env@@@Z$0
	DD	0ffffffffH
	DD	FLAT:__unwindfunclet$?open_block@kdu_subband@@QAEPAUkdu_block@@Ukdu_coords@@PAHPAVkdu_thread_env@@@Z$1
__ehfuncinfo$?open_block@kdu_subband@@QAEPAUkdu_block@@Ukdu_coords@@PAHPAVkdu_thread_env@@@Z DD 019930522H
	DD	02H
	DD	FLAT:__unwindtable$?open_block@kdu_subband@@QAEPAUkdu_block@@Ukdu_coords@@PAHPAVkdu_thread_env@@@Z
	DD	2 DUP(00H)
	DD	2 DUP(00H)
	DD	00H
	DD	01H
xdata$x	ENDS
;	COMDAT xdata$x
xdata$x	SEGMENT
__unwindtable$?get_precinct_packets@kdu_resolution@@QAEHUkdu_coords@@PAVkdu_thread_env@@_N@Z DD 0ffffffffH
	DD	FLAT:__unwindfunclet$?get_precinct_packets@kdu_resolution@@QAEHUkdu_coords@@PAVkdu_thread_env@@_N@Z$0
__ehfuncinfo$?get_precinct_packets@kdu_resolution@@QAEHUkdu_coords@@PAVkdu_thread_env@@_N@Z DD 019930522H
	DD	01H
	DD	FLAT:__unwindtable$?get_precinct_packets@kdu_resolution@@QAEHUkdu_coords@@PAVkdu_thread_env@@_N@Z
	DD	2 DUP(00H)
	DD	2 DUP(00H)
	DD	00H
	DD	01H
xdata$x	ENDS
;	COMDAT xdata$x
xdata$x	SEGMENT
__unwindtable$?open_precinct@kdu_resolution@@QAE?AVkdu_precinct@@Ukdu_coords@@@Z DD 0ffffffffH
	DD	FLAT:__unwindfunclet$?open_precinct@kdu_resolution@@QAE?AVkdu_precinct@@Ukdu_coords@@@Z$0
__ehfuncinfo$?open_precinct@kdu_resolution@@QAE?AVkdu_precinct@@Ukdu_coords@@@Z DD 019930522H
	DD	01H
	DD	FLAT:__unwindtable$?open_precinct@kdu_resolution@@QAE?AVkdu_precinct@@Ukdu_coords@@@Z
	DD	2 DUP(00H)
	DD	2 DUP(00H)
	DD	00H
	DD	01H
xdata$x	ENDS
;	COMDAT xdata$x
xdata$x	SEGMENT
__unwindtable$?access_resolution@kdu_tile_comp@@QAE?AVkdu_resolution@@H@Z DD 0ffffffffH
	DD	FLAT:__unwindfunclet$?access_resolution@kdu_tile_comp@@QAE?AVkdu_resolution@@H@Z$0
	DD	0ffffffffH
	DD	FLAT:__unwindfunclet$?access_resolution@kdu_tile_comp@@QAE?AVkdu_resolution@@H@Z$1
__ehfuncinfo$?access_resolution@kdu_tile_comp@@QAE?AVkdu_resolution@@H@Z DD 019930522H
	DD	02H
	DD	FLAT:__unwindtable$?access_resolution@kdu_tile_comp@@QAE?AVkdu_resolution@@H@Z
	DD	2 DUP(00H)
	DD	2 DUP(00H)
	DD	00H
	DD	01H
xdata$x	ENDS
;	COMDAT xdata$x
xdata$x	SEGMENT
__ehfuncinfo$??1kdu_kernels@@QAE@XZ DD 019930522H
	DD	00H
	DD	00H
	DD	2 DUP(00H)
	DD	2 DUP(00H)
	DD	00H
	DD	05H
xdata$x	ENDS
; Function compile flags: /Ogtp
; File e:\study\jpeg2000\visually_lossless_jpeg2000\modifiedkakadu\coresys\common\kdu_params.h
;	COMDAT ??_Gkd_dummy_target@@UAEPAXI@Z
_TEXT	SEGMENT
___flags$ = 8						; size = 4
??_Gkd_dummy_target@@UAEPAXI@Z PROC			; kd_dummy_target::`scalar deleting destructor', COMDAT
; _this$ = ecx
	push	ebp
	mov	ebp, esp
	test	BYTE PTR ___flags$[ebp], 1
	push	esi
	mov	esi, ecx

; 132  :     virtual ~kdu_output() { return; }

	mov	DWORD PTR [esi], OFFSET ??_7kdu_output@@6B@
	je	SHORT $LN10@scalar
	push	524					; 0000020cH
	push	esi
	call	??3@YAXPAXI@Z				; operator delete
	add	esp, 8
$LN10@scalar:
	mov	eax, esi
	pop	esi
	pop	ebp
	ret	4
??_Gkd_dummy_target@@UAEPAXI@Z ENDP			; kd_dummy_target::`scalar deleting destructor'
_TEXT	ENDS
; Function compile flags: /Ogtp
; File e:\study\jpeg2000\visually_lossless_jpeg2000\modifiedkakadu\coresys\common\kdu_params.h
;	COMDAT ??1kd_dummy_target@@UAE@XZ
_TEXT	SEGMENT
??1kd_dummy_target@@UAE@XZ PROC				; kd_dummy_target::~kd_dummy_target, COMDAT
; _this$ = ecx

; 132  :     virtual ~kdu_output() { return; }

	mov	DWORD PTR [ecx], OFFSET ??_7kdu_output@@6B@
	ret	0
??1kd_dummy_target@@UAE@XZ ENDP				; kd_dummy_target::~kd_dummy_target
_TEXT	ENDS
; Function compile flags: /Ogtp
; File e:\study\jpeg2000\visually_lossless_jpeg2000\modifiedkakadu\coresys\common\kdu_params.h
;	COMDAT ??0kd_dummy_target@@QAE@XZ
_TEXT	SEGMENT
_this$ = -4						; size = 4
??0kd_dummy_target@@QAE@XZ PROC				; kd_dummy_target::kd_dummy_target, COMDAT
; _this$ = ecx
	push	ebp
	mov	ebp, esp
	push	ecx

; 131  :       { next_buf = buffer; end_buf = buffer+KDU_OBUF_SIZE; }

	lea	edx, DWORD PTR [ecx+516]
	mov	DWORD PTR _this$[ebp], ecx
	lea	eax, DWORD PTR [ecx+4]
	mov	DWORD PTR [ecx+520], edx
	mov	DWORD PTR [edx], eax
	mov	eax, ecx
	mov	DWORD PTR [ecx], OFFSET ??_7kd_dummy_target@@6B@
	mov	esp, ebp
	pop	ebp
	ret	0
??0kd_dummy_target@@QAE@XZ ENDP				; kd_dummy_target::kd_dummy_target
_TEXT	ENDS
; Function compile flags: /Ogtp
; File e:\study\jpeg2000\visually_lossless_jpeg2000\modifiedkakadu\coresys\compressed\compressed.cpp
;	COMDAT ?flush_buf@kd_dummy_target@@MAEXXZ
_TEXT	SEGMENT
?flush_buf@kd_dummy_target@@MAEXXZ PROC			; kd_dummy_target::flush_buf, COMDAT
; _this$ = ecx

; 6252 :       virtual void flush_buf() { next_buf = buffer; }

	lea	eax, DWORD PTR [ecx+4]
	mov	DWORD PTR [ecx+516], eax
	ret	0
?flush_buf@kd_dummy_target@@MAEXXZ ENDP			; kd_dummy_target::flush_buf
_TEXT	ENDS
; Function compile flags: /Ogtp
; File e:\study\jpeg2000\visually_lossless_jpeg2000\modifiedkakadu\coresys\compressed\compressed.cpp
; File e:\study\jpeg2000\visually_lossless_jpeg2000\modifiedkakadu\coresys\common\kdu_compressed.h
; File e:\study\jpeg2000\visually_lossless_jpeg2000\modifiedkakadu\coresys\compressed\compressed.cpp
; File e:\study\jpeg2000\visually_lossless_jpeg2000\modifiedkakadu\coresys\compressed\compressed_local.h
; File e:\study\jpeg2000\visually_lossless_jpeg2000\modifiedkakadu\coresys\compressed\compressed.cpp
; File e:\study\jpeg2000\visually_lossless_jpeg2000\modifiedkakadu\coresys\compressed\compressed_local.h
; File e:\study\jpeg2000\visually_lossless_jpeg2000\modifiedkakadu\coresys\compressed\compressed.cpp
; File e:\study\jpeg2000\visually_lossless_jpeg2000\modifiedkakadu\coresys\compressed\compressed_local.h
; File e:\study\jpeg2000\visually_lossless_jpeg2000\modifiedkakadu\coresys\compressed\compressed.cpp
;	COMDAT ?desequence_packets_until_tile_inactive@@YAXPAUkd_tile@@PAUkd_codestream@@@Z
_TEXT	SEGMENT
_p_idx$ = -8						; size = 8
_active$ = 8						; size = 4
_res$ = 12						; size = 4
_codestream$ = 12					; size = 4
?desequence_packets_until_tile_inactive@@YAXPAUkd_tile@@PAUkd_codestream@@@Z PROC ; desequence_packets_until_tile_inactive, COMDAT

; 462  : {

	push	ebp
	mov	ebp, esp
	sub	esp, 8
	push	ebx

; 466  :   while ((active == codestream->active_tile) && // In case destroyed

	mov	ebx, DWORD PTR _codestream$[ebp]
	push	edi
	mov	edi, DWORD PTR _active$[ebp]
; File e:\study\jpeg2000\visually_lossless_jpeg2000\modifiedkakadu\coresys\common\kdu_compressed.h

; 209  :     kdu_coords() { x = y = 0; }

	mov	DWORD PTR _p_idx$[ebp], 0
	mov	DWORD PTR _p_idx$[ebp+4], 0
; File e:\study\jpeg2000\visually_lossless_jpeg2000\modifiedkakadu\coresys\compressed\compressed.cpp

; 466  :   while ((active == codestream->active_tile) && // In case destroyed

	cmp	edi, DWORD PTR [ebx+364]
	jne	$LN28@desequence
	push	esi
	npad	7
$LL2@desequence:
	mov	ecx, DWORD PTR [edi+52]
	lea	eax, DWORD PTR _p_idx$[ebp]
	push	eax
	lea	eax, DWORD PTR _res$[ebp]
	push	eax
	call	?next_in_sequence@kd_packet_sequencer@@QAEPAVkd_precinct_ref@@AAPAUkd_resolution@@AAUkdu_coords@@@Z ; kd_packet_sequencer::next_in_sequence
	mov	edx, eax
	test	edx, edx
	je	SHORT $LN37@desequence
; File e:\study\jpeg2000\visually_lossless_jpeg2000\modifiedkakadu\coresys\compressed\compressed_local.h

; 4661 :   register kdu_long state_val = state;

	mov	ecx, DWORD PTR [edx]

; 4662 :   return ((state_val != 0) &&

	mov	eax, ecx
	mov	esi, DWORD PTR [edx+4]
	or	eax, esi
	je	SHORT $LN12@desequence
	mov	eax, ecx
	and	eax, 1
	or	eax, 0
	jne	SHORT $LN4@desequence
	test	BYTE PTR [ecx+8], 4
	jne	SHORT $LN4@desequence
$LN12@desequence:

; 4663 :           ((state_val & 1) ||
; 4664 :            (((kd_precinct *) _kdu_long_to_addr(state_val))->flags &
; 4665 :             KD_PFLAG_DESEQUENCED)));
; 4666 : }
; 4667 : 
; 4668 : inline void
; 4669 :   kd_precinct_ref::clear()
; 4670 : {
; 4671 :   if (state && !(state & 1))
; 4672 :     {
; 4673 :       kd_precinct *precinct = (kd_precinct *) _kdu_long_to_addr(state);
; 4674 :       precinct->ref = NULL; // Satisfy the test in `kd_precinct::closing'
; 4675 :       precinct->closing();
; 4676 :       precinct->size_class->release(precinct);
; 4677 :     }
; 4678 :   state = 0;
; 4679 : }
; 4680 : 
; 4681 : inline void
; 4682 :   kd_precinct_ref::close_and_reset()
; 4683 : {
; 4684 :   if (state & 1)
; 4685 :     {
; 4686 :       if (state != 3)
; 4687 :         state &= ~((kdu_long) 2);
; 4688 :     }
; 4689 :   else if (state != 0)
; 4690 :     {
; 4691 :       kd_precinct *prec = (kd_precinct *) _kdu_long_to_addr(state);
; 4692 :       if ((prec->flags & KD_PFLAG_PARSED)||(prec->num_packets_read > 0))
; 4693 :         {
; 4694 :           close();
; 4695 :           state &= ~((kdu_long) 2);
; 4696 :         }
; 4697 :     }
; 4698 : }
; 4699 : 
; 4700 : inline void
; 4701 :   kd_precinct_ref::release()
; 4702 : {
; 4703 :   kd_precinct *precinct = (kd_precinct *) _kdu_long_to_addr(state);
; 4704 :   assert((state != 0) && !(state & 1));
; 4705 :   if (precinct->flags & KD_PFLAG_INACTIVE)
; 4706 :     return; // Already on the inactive list.
; 4707 :   precinct->flags |= KD_PFLAG_RELEASED;
; 4708 :     // precinct->released = true; // In case not already set.
; 4709 :   if ((precinct->flags & KD_PFLAG_ADDRESSABLE) &&
; 4710 :       (!precinct->resolution->codestream->cached) &&
; 4711 :       ((precinct->num_packets_read == 0) ||
; 4712 :        (precinct->num_packets_read == precinct->next_layer_idx)))
; 4713 :     precinct->size_class->move_to_inactive_list(precinct);
; 4714 :   else
; 4715 :     close();
; 4716 : }
; 4717 : 
; 4718 : inline kd_precinct *
; 4719 :   kd_precinct_ref::open(kd_resolution *res, kdu_coords pos_idx,
; 4720 :                         bool need_activate)
; 4721 : {
; 4722 :   if (state == 3)

	cmp	ecx, 3
	jne	SHORT $LN15@desequence
	test	esi, esi
	je	SHORT $LN14@desequence
$LN15@desequence:

; 4723 :     return NULL; // Precinct is not currently loaded
; 4724 :   if ((state == 0) || (state & 1))

	mov	eax, ecx
	or	eax, esi
	je	SHORT $LN17@desequence
	and	ecx, 1
	or	ecx, 0
	jne	SHORT $LN17@desequence

; 4726 :   kd_precinct *result = (kd_precinct *) _kdu_long_to_addr(state);

	mov	esi, DWORD PTR [edx]

; 4727 :   if (result->flags & KD_PFLAG_INACTIVE)

	test	BYTE PTR [esi+8], 32			; 00000020H
	je	SHORT $LN14@desequence

; 4728 :     { // Must be on the inactive list
; 4729 :       result->size_class->withdraw_from_inactive_list(result);

	mov	ecx, DWORD PTR [esi+52]
	push	esi
	call	?withdraw_from_inactive_list@kd_precinct_size_class@@QAEXPAUkd_precinct@@@Z ; kd_precinct_size_class::withdraw_from_inactive_list

; 4730 :       result->activate();

	mov	ecx, esi
	call	?activate@kd_precinct@@QAEXXZ		; kd_precinct::activate

; 4731 :     }
; 4732 :   else if (need_activate && (result->flags & KD_PFLAG_RELEASED))
; 4733 :     result->activate();
; 4734 :   return result;

	jmp	SHORT $LN14@desequence
$LN17@desequence:

; 4725 :     return instantiate_precinct(res,pos_idx);

	push	DWORD PTR _p_idx$[ebp+4]
	mov	ecx, edx
	push	DWORD PTR _p_idx$[ebp]
	push	DWORD PTR _res$[ebp]
	call	?instantiate_precinct@kd_precinct_ref@@AAEPAUkd_precinct@@PAUkd_resolution@@Ukdu_coords@@@Z ; kd_precinct_ref::instantiate_precinct
	mov	esi, eax
$LN14@desequence:
; File e:\study\jpeg2000\visually_lossless_jpeg2000\modifiedkakadu\coresys\compressed\compressed.cpp

; 468  :     if (!(pref->is_desequenced() ||

	mov	ecx, esi
	call	?desequence_packet@kd_precinct@@QAE_NXZ	; kd_precinct::desequence_packet
	test	al, al
	je	SHORT $LN37@desequence
$LN4@desequence:

; 466  :   while ((active == codestream->active_tile) && // In case destroyed

	cmp	edi, DWORD PTR [ebx+364]
	je	$LL2@desequence
$LN37@desequence:
	pop	esi

; 469  :           pref->open(res,p_idx,false)->desequence_packet()))
; 470  :       break;
; 471  :   if (active == codestream->active_tile)

	cmp	edi, DWORD PTR [ebx+364]
	jne	SHORT $LN28@desequence

; 472  :     {
; 473  :       codestream->active_tile = NULL;

	mov	DWORD PTR [ebx+364], 0
; File e:\study\jpeg2000\visually_lossless_jpeg2000\modifiedkakadu\coresys\compressed\compressed_local.h

; 2743 :         if ((!codestream->persistent) ||

	mov	eax, DWORD PTR [edi]
	cmp	BYTE PTR [eax+337], 0
	je	SHORT $LN28@desequence
	cmp	DWORD PTR [eax+36], 0
	jne	SHORT $LN23@desequence
	cmp	BYTE PTR [eax+338], 0
	je	SHORT $LN28@desequence
$LN23@desequence:

; 2744 :             ((codestream->tpart_ptr_server==NULL) && !codestream->cached))
; 2745 :           { assert(!is_unloadable); return; }
; 2746 :         if (is_open || (this==codestream->active_tile))

	cmp	BYTE PTR [edi+229], 0
	jne	SHORT $LN27@desequence
	cmp	edi, DWORD PTR [eax+364]
	je	SHORT $LN27@desequence

; 2750 :           }
; 2751 :         else
; 2752 :           { // Should be on the unloadable list
; 2753 :             if (!is_unloadable)

	cmp	BYTE PTR [edi+230], 0
	jne	SHORT $LN28@desequence

; 2754 :               add_to_unloadable_list();

	mov	ecx, edi
	call	?add_to_unloadable_list@kd_tile@@AAEXXZ	; kd_tile::add_to_unloadable_list
	pop	edi
	pop	ebx
; File e:\study\jpeg2000\visually_lossless_jpeg2000\modifiedkakadu\coresys\compressed\compressed.cpp

; 476  : }

	mov	esp, ebp
	pop	ebp
	ret	0
$LN27@desequence:
; File e:\study\jpeg2000\visually_lossless_jpeg2000\modifiedkakadu\coresys\compressed\compressed_local.h

; 2748 :             if (is_unloadable)

	cmp	BYTE PTR [edi+230], 0
	je	SHORT $LN28@desequence

; 2749 :               withdraw_from_unloadable_list();

	mov	ecx, edi
	call	?withdraw_from_unloadable_list@kd_tile@@AAEXXZ ; kd_tile::withdraw_from_unloadable_list
$LN28@desequence:
	pop	edi
	pop	ebx
; File e:\study\jpeg2000\visually_lossless_jpeg2000\modifiedkakadu\coresys\compressed\compressed.cpp

; 476  : }

	mov	esp, ebp
	pop	ebp
	ret	0
?desequence_packets_until_tile_inactive@@YAXPAUkd_tile@@PAUkd_codestream@@@Z ENDP ; desequence_packets_until_tile_inactive
_TEXT	ENDS
; Function compile flags: /Ogtp
; File e:\study\jpeg2000\visually_lossless_jpeg2000\modifiedkakadu\coresys\compressed\compressed.cpp
;	COMDAT ?compare_sop_num@@YAHHH@Z
_TEXT	SEGMENT
_sop_num$ = 8						; size = 4
_packet_num$ = 12					; size = 4
?compare_sop_num@@YAHHH@Z PROC				; compare_sop_num, COMDAT

; 436  : {

	push	ebp
	mov	ebp, esp

; 437  :   assert((sop_num >= 0) && (sop_num < (1<<16)));
; 438  :   int diff = sop_num - packet_num;

	mov	eax, DWORD PTR _sop_num$[ebp]
	sub	eax, DWORD PTR _packet_num$[ebp]

; 439  : 
; 440  :   if ((diff & 0x0000FFFF) == 0)

	movzx	ecx, ax
	test	ecx, ecx
	jne	SHORT $LN2@compare_so

; 441  :     return 0;

	xor	eax, eax

; 446  : }

	pop	ebp
	ret	0
$LN2@compare_so:

; 442  :   if ((diff > 0) || ((diff & 0x0000FFFF) <= (1<<15)))

	test	eax, eax
	jg	SHORT $LN4@compare_so
	cmp	ecx, 32768				; 00008000H
	jle	SHORT $LN4@compare_so

; 443  :     return diff; // `sop_num' deemed to be greater than `packet_num'.
; 444  :   else
; 445  :     return diff-(1<<16); // `sop_num' deemed to be less than `packet_num'.

	add	eax, -65536				; ffff0000H
$LN4@compare_so:

; 446  : }

	pop	ebp
	ret	0
?compare_sop_num@@YAHHH@Z ENDP				; compare_sop_num
_TEXT	ENDS
; Function compile flags: /Ogtp
; File e:\study\jpeg2000\visually_lossless_jpeg2000\modifiedkakadu\coresys\compressed\compressed.cpp
; File e:\study\jpeg2000\visually_lossless_jpeg2000\modifiedkakadu\coresys\common\kdu_compressed.h
; File e:\study\jpeg2000\visually_lossless_jpeg2000\modifiedkakadu\coresys\compressed\compressed.cpp
; File e:\study\jpeg2000\visually_lossless_jpeg2000\modifiedkakadu\coresys\common\kdu_compressed.h
; File e:\study\jpeg2000\visually_lossless_jpeg2000\modifiedkakadu\coresys\compressed\compressed.cpp
; File e:\study\jpeg2000\visually_lossless_jpeg2000\modifiedkakadu\coresys\common\kdu_compressed.h
; File e:\study\jpeg2000\visually_lossless_jpeg2000\modifiedkakadu\coresys\compressed\compressed.cpp
; File e:\study\jpeg2000\visually_lossless_jpeg2000\modifiedkakadu\coresys\common\kdu_compressed.h
; File e:\study\jpeg2000\visually_lossless_jpeg2000\modifiedkakadu\coresys\compressed\compressed.cpp
; File e:\study\jpeg2000\visually_lossless_jpeg2000\modifiedkakadu\coresys\common\kdu_compressed.h
; File e:\study\jpeg2000\visually_lossless_jpeg2000\modifiedkakadu\coresys\compressed\compressed.cpp
;	COMDAT ?create_child_node@@YAPAUkd_leaf_node@@PAUkd_node@@HH0AAHPAUkd_subband@@1HHH_N3HQA_NH4AAVkdu_kernels@@@Z
_TEXT	SEGMENT
$T1 = -48						; size = 16
_lval$2 = -40						; size = 8
_num_hor_extra_stages$1$ = -32				; size = 4
_num_vert_extra_stages$1$ = -28				; size = 4
_min$1$ = -24						; size = 4
_vert_bibo_gains$1$ = -24				; size = 4
_branch_y$1$ = -20					; size = 4
_hor_bibo_gains$1$ = -20				; size = 4
_hval$3 = -16						; size = 8
_branch_x$1$ = -12					; size = 4
_next_branch_mask$1$ = -8				; size = 4
_result$1$ = -4						; size = 4
_parent$ = 8						; size = 4
_child_idx$ = 12					; size = 4
_min$2$ = 16						; size = 4
tv800 = 16						; size = 4
tv778 = 16						; size = 4
_branch_mask$ = 16					; size = 4
_primary_vert_depth$1$ = 19				; size = 1
_intermediate_nodes$ = 20				; size = 4
_next_inode_idx$ = 24					; size = 4
_subbands$ = 28						; size = 4
_next_band_idx$ = 32					; size = 4
_decomp_val$ = 36					; size = 4
_sub_level$ = 40					; size = 4
_orientation$ = 44					; size = 4
_hor_high$ = 48						; size = 1
_vert_high$ = 52					; size = 1
_num_hor_extra_stages$ = 56				; size = 4
_hor_extra_stage_high$ = 60				; size = 4
_num_vert_extra_stages$ = 64				; size = 4
_vert_extra_stage_high$ = 68				; size = 4
_kernels$ = 72						; size = 4
?create_child_node@@YAPAUkd_leaf_node@@PAUkd_node@@HH0AAHPAUkd_subband@@1HHH_N3HQA_NH4AAVkdu_kernels@@@Z PROC ; create_child_node, COMDAT

; 269  : {

	push	ebp
	mov	ebp, esp
	sub	esp, 48					; 00000030H

; 270  :   assert((sub_level >= 1) && (sub_level <= 3));
; 271  :   int next_branch_mask = decomp_val & 3;

	mov	eax, DWORD PTR _decomp_val$[ebp]

; 272  :   decomp_val >>= 2;
; 273  :   if (sub_level == 2)

	xor	ecx, ecx
	mov	edx, eax
	sar	eax, 2
	and	edx, 3
	cmp	DWORD PTR _sub_level$[ebp], 2
	push	ebx
	push	esi
	cmove	eax, ecx
	mov	DWORD PTR _next_branch_mask$1$[ebp], edx
	push	edi

; 274  :     decomp_val = 0; // No more decomposition beyond our own children, if any
; 275  : 
; 276  :   kd_leaf_node *result=NULL;
; 277  :   kd_node *inode=NULL;

	xor	edi, edi
	mov	DWORD PTR _decomp_val$[ebp], eax

; 278  :   if (next_branch_mask == 0)

	test	edx, edx
	jne	SHORT $LN12@create_chi

; 279  :     result = &(subbands[next_band_idx++]);

	mov	ecx, DWORD PTR _next_band_idx$[ebp]
	mov	eax, DWORD PTR [ecx]
	imul	ebx, eax, 132
	add	ebx, DWORD PTR _subbands$[ebp]
	mov	DWORD PTR _result$1$[ebp], ebx

; 280  :   else

	jmp	SHORT $LN63@create_chi
$LN12@create_chi:

; 281  :     result = inode = &(intermediate_nodes[next_inode_idx++]);

	mov	ecx, DWORD PTR _next_inode_idx$[ebp]
	mov	eax, DWORD PTR [ecx]
	imul	edi, eax, 104
	add	edi, DWORD PTR _intermediate_nodes$[ebp]
	mov	ebx, edi
	mov	DWORD PTR _result$1$[ebp], edi
$LN63@create_chi:

; 282  : 
; 283  :   result->parent = parent;

	mov	esi, DWORD PTR _parent$[ebp]
	inc	eax

; 284  :   if (branch_mask & 1)

	test	BYTE PTR _branch_mask$[ebp], 1
	mov	DWORD PTR [ecx], eax
	mov	ecx, DWORD PTR _child_idx$[ebp]
	mov	DWORD PTR [ebx], esi
	je	SHORT $LN14@create_chi

; 285  :     {
; 286  :       result->branch_x = (kdu_byte)(child_idx & 1);
; 287  :       assert(num_hor_extra_stages < 3);
; 288  :       hor_extra_stage_high[num_hor_extra_stages++] =

	mov	esi, DWORD PTR _num_hor_extra_stages$[ebp]
	mov	al, cl
	mov	edx, DWORD PTR _hor_extra_stage_high$[ebp]
	and	al, 1
	mov	BYTE PTR [ebx+40], al
	setne	al
	mov	BYTE PTR [esi+edx], al
	mov	eax, esi

; 289  :         (result->branch_x)?true:false;
; 290  :       if (result->branch_x)

	mov	edx, DWORD PTR _next_branch_mask$1$[ebp]
	inc	eax
	cmp	BYTE PTR [ebx+40], 0
	mov	esi, DWORD PTR _parent$[ebp]
	mov	DWORD PTR _num_hor_extra_stages$1$[ebp], eax
	je	SHORT $LN15@create_chi

; 291  :         {
; 292  :           if (hor_high)

	cmp	BYTE PTR _hor_high$[ebp], 0
	je	SHORT $LN17@create_chi

; 293  :             result->resolution->can_flip = false;

	mov	eax, DWORD PTR [ebx+4]
	mov	BYTE PTR [eax+173], 0
$LN17@create_chi:

; 294  :           hor_high = true;

	mov	BYTE PTR _hor_high$[ebp], 1

; 295  :         }
; 296  :     }
; 297  :   else

	jmp	SHORT $LN15@create_chi
$LN14@create_chi:

; 298  :     {
; 299  :       result->branch_x = 2;

	mov	eax, DWORD PTR _num_hor_extra_stages$[ebp]
	mov	BYTE PTR [ebx+40], 2
	mov	DWORD PTR _num_hor_extra_stages$1$[ebp], eax
$LN15@create_chi:

; 300  :       assert(!(child_idx & 1));
; 301  :     }
; 302  :   if (branch_mask & 2)

	test	BYTE PTR _branch_mask$[ebp], 2
	je	SHORT $LN18@create_chi

; 303  :     {
; 304  :       result->branch_y = (kdu_byte)((child_idx>>1) & 1);
; 305  :       assert(num_vert_extra_stages < 3);
; 306  :       vert_extra_stage_high[num_vert_extra_stages++] =

	mov	esi, DWORD PTR _vert_extra_stage_high$[ebp]
	sar	ecx, 1
	and	cl, 1
	mov	BYTE PTR [ebx+41], cl
	mov	ecx, DWORD PTR _num_vert_extra_stages$[ebp]
	setne	al
	mov	BYTE PTR [ecx+esi], al
	inc	ecx

; 307  :         (result->branch_y)?true:false;
; 308  :       if (result->branch_y)

	cmp	BYTE PTR [ebx+41], 0
	mov	esi, DWORD PTR _parent$[ebp]
	mov	DWORD PTR _num_vert_extra_stages$1$[ebp], ecx
	je	SHORT $LN19@create_chi

; 309  :         {
; 310  :           if (vert_high)

	cmp	BYTE PTR _vert_high$[ebp], 0
	je	SHORT $LN21@create_chi

; 311  :             result->resolution->can_flip = false;

	mov	eax, DWORD PTR [ebx+4]
	mov	BYTE PTR [eax+173], 0
$LN21@create_chi:

; 312  :           vert_high = true;

	mov	BYTE PTR _vert_high$[ebp], 1

; 313  :         }
; 314  :     }
; 315  :   else

	jmp	SHORT $LN19@create_chi
$LN18@create_chi:

; 316  :     {
; 317  :       result->branch_y = 2;

	mov	eax, DWORD PTR _num_vert_extra_stages$[ebp]
	mov	BYTE PTR [ebx+41], 2
	mov	DWORD PTR _num_vert_extra_stages$1$[ebp], eax
$LN19@create_chi:

; 318  :       assert(!(child_idx & 2));
; 319  :     }
; 320  : 
; 321  :   // Do the BIBO gain stuff here
; 322  :   if (inode != NULL)

	test	edi, edi
	je	$LN6@create_chi

; 323  :     {
; 324  :       assert(next_branch_mask != 0);
; 325  :       inode->num_hor_steps = (kdu_byte)

	test	dl, 1
	je	SHORT $LN28@create_chi
	mov	eax, DWORD PTR [ebx+4]
	mov	eax, DWORD PTR [eax+4]
	mov	eax, DWORD PTR [eax+76]
	jmp	SHORT $LN64@create_chi
$LN28@create_chi:
	xor	eax, eax
$LN64@create_chi:
	mov	DWORD PTR tv800[ebp], eax
	mov	BYTE PTR [edi+92], al

; 326  :         ((next_branch_mask & 1)?
; 327  :          (result->resolution->tile_comp->kernel_num_steps):0);
; 328  :       inode->num_vert_steps = (kdu_byte)

	test	dl, 2
	je	SHORT $LN30@create_chi
	mov	eax, DWORD PTR [ebx+4]
	mov	eax, DWORD PTR [eax+4]
	mov	ecx, DWORD PTR [eax+76]
	mov	eax, DWORD PTR tv800[ebp]
	jmp	SHORT $LN31@create_chi
$LN30@create_chi:
	xor	ecx, ecx
$LN31@create_chi:
	mov	BYTE PTR [edi+93], cl

; 329  :         ((next_branch_mask & 2)?
; 330  :          (result->resolution->tile_comp->kernel_num_steps):0);
; 331  :       inode->bibo_gains =

	mov	edx, 4
	movzx	ecx, cl
	movzx	eax, al
	add	eax, 2
	add	eax, ecx
	xor	ecx, ecx
	mul	edx
	seto	cl
	neg	ecx
	or	ecx, eax
	push	ecx
	call	??_U@YAPAXI@Z				; operator new[]
	mov	edx, eax
	add	esp, 4

; 332  :         new float[inode->num_hor_steps+inode->num_vert_steps+2];
; 333  :       float *hor_bibo_gains = inode->bibo_gains;
; 334  :       float *vert_bibo_gains = inode->bibo_gains + (1+inode->num_hor_steps);

	movzx	eax, BYTE PTR [edi+92]
	inc	eax
	mov	DWORD PTR [edi+100], edx

; 335  :       hor_bibo_gains[0] =

	movzx	ecx, BYTE PTR [esi+92]
	and	ecx, 254				; 000000feH
	mov	DWORD PTR _hor_bibo_gains$1$[ebp], edx
	lea	eax, DWORD PTR [edx+eax*4]
	mov	DWORD PTR _vert_bibo_gains$1$[ebp], eax
	mov	eax, DWORD PTR [esi+100]
	mov	eax, DWORD PTR [eax+ecx*4]
	mov	DWORD PTR [edx], eax

; 336  :         parent->bibo_gains[parent->num_hor_steps & 254];
; 337  :       vert_bibo_gains[0] =

	movzx	ecx, BYTE PTR [esi+93]
	movzx	eax, BYTE PTR [esi+92]
	and	ecx, 254				; 000000feH
	add	ecx, eax
	mov	eax, DWORD PTR [esi+100]
	mov	eax, DWORD PTR [eax+ecx*4+4]
	mov	ecx, DWORD PTR _vert_bibo_gains$1$[ebp]
	mov	DWORD PTR [ecx], eax

; 338  :         parent->bibo_gains[(1+parent->num_hor_steps) +
; 339  :                            (parent->num_vert_steps & 254)];
; 340  : 
; 341  :       double lval, hval, *gains;
; 342  :       kdu_byte primary_hor_depth = parent->resolution->hor_depth;
; 343  :       kdu_byte primary_vert_depth = parent->resolution->vert_depth;
; 344  :       if (inode->num_hor_steps > 0)

	cmp	BYTE PTR [edi+92], 0
	mov	eax, DWORD PTR [esi+4]
	mov	cl, BYTE PTR [eax+14]
	mov	al, BYTE PTR [eax+15]
	mov	BYTE PTR _primary_vert_depth$1$[ebp], al
	jbe	SHORT $LN3@create_chi

; 345  :         {
; 346  :           gains = kernels.get_bibo_gains(primary_hor_depth,

	lea	eax, DWORD PTR _hval$3[ebp]
	push	eax
	lea	eax, DWORD PTR _lval$2[ebp]
	push	eax
	push	DWORD PTR _hor_extra_stage_high$[ebp]
	movzx	eax, cl
	push	DWORD PTR _num_hor_extra_stages$1$[ebp]
	mov	ecx, DWORD PTR _kernels$[ebp]
	push	eax
	call	?get_bibo_gains@kdu_kernels@@QAEPANHHQA_NAAN1@Z ; kdu_kernels::get_bibo_gains

; 347  :                                          num_hor_extra_stages,
; 348  :                                          hor_extra_stage_high,lval,hval);
; 349  :           for (kdu_byte n=0; n < inode->num_hor_steps; n++)

	xor	dl, dl
	cmp	BYTE PTR [edi+92], dl
	jbe	SHORT $LN62@create_chi
	mov	ebx, DWORD PTR _hor_bibo_gains$1$[ebp]
	npad	4
$LL4@create_chi:

; 350  :             hor_bibo_gains[n+1] = (float) gains[n];

	movzx	ecx, dl
	inc	dl
	movsd	xmm0, QWORD PTR [eax+ecx*8]
	cvtpd2ps xmm0, xmm0
	movss	DWORD PTR [ebx+ecx*4+4], xmm0
	cmp	dl, BYTE PTR [edi+92]
	jb	SHORT $LL4@create_chi
	mov	ebx, DWORD PTR _result$1$[ebp]
$LN62@create_chi:
	mov	al, BYTE PTR _primary_vert_depth$1$[ebp]
$LN3@create_chi:

; 351  :         }
; 352  :       if (inode->num_vert_steps > 0)

	cmp	BYTE PTR [edi+93], 0
	jbe	SHORT $LN6@create_chi

; 353  :         {
; 354  :           gains = kernels.get_bibo_gains(primary_vert_depth,

	lea	ecx, DWORD PTR _hval$3[ebp]
	movzx	eax, al
	push	ecx
	lea	ecx, DWORD PTR _lval$2[ebp]
	push	ecx
	push	DWORD PTR _vert_extra_stage_high$[ebp]
	mov	ecx, DWORD PTR _kernels$[ebp]
	push	DWORD PTR _num_vert_extra_stages$1$[ebp]
	push	eax
	call	?get_bibo_gains@kdu_kernels@@QAEPANHHQA_NAAN1@Z ; kdu_kernels::get_bibo_gains

; 355  :                                          num_vert_extra_stages,
; 356  :                                          vert_extra_stage_high,lval,hval);
; 357  :           for (kdu_byte n=0; n < inode->num_vert_steps; n++)

	xor	dl, dl
	cmp	BYTE PTR [edi+93], dl
	jbe	SHORT $LN6@create_chi
	mov	esi, DWORD PTR _vert_bibo_gains$1$[ebp]
	npad	7
$LL7@create_chi:

; 358  :             vert_bibo_gains[n+1] = (float) gains[n];

	movzx	ecx, dl
	inc	dl
	movsd	xmm0, QWORD PTR [eax+ecx*8]
	cvtpd2ps xmm0, xmm0
	movss	DWORD PTR [esi+ecx*4+4], xmm0
	cmp	dl, BYTE PTR [edi+93]
	jb	SHORT $LL7@create_chi
	mov	esi, DWORD PTR _parent$[ebp]
$LN6@create_chi:

; 364  :   result->dims =

	movups	xmm1, XMMWORD PTR [esi+8]
	movzx	eax, BYTE PTR [ebx+41]
	mov	DWORD PTR _branch_y$1$[ebp], eax
	movzx	eax, BYTE PTR [ebx+40]

; 122  :   kdu_coords min = parent_dims.pos;

	movaps	xmm0, xmm1
	psrldq	xmm0, 4
	movd	ecx, xmm0
; File e:\study\jpeg2000\visually_lossless_jpeg2000\modifiedkakadu\coresys\common\kdu_compressed.h

; 223  :       { kdu_coords result; result.x=x+rhs.x; result.y=y+rhs.y; return result; }

	movaps	xmm0, xmm1
; File e:\study\jpeg2000\visually_lossless_jpeg2000\modifiedkakadu\coresys\compressed\compressed.cpp

; 364  :   result->dims =

	mov	DWORD PTR _branch_x$1$[ebp], eax
; File e:\study\jpeg2000\visually_lossless_jpeg2000\modifiedkakadu\coresys\common\kdu_compressed.h

; 223  :       { kdu_coords result; result.x=x+rhs.x; result.y=y+rhs.y; return result; }

	psrldq	xmm0, 12				; 0000000cH
	movd	eax, xmm0
; File e:\study\jpeg2000\visually_lossless_jpeg2000\modifiedkakadu\coresys\compressed\compressed.cpp

; 122  :   kdu_coords min = parent_dims.pos;

	movd	DWORD PTR _min$2$[ebp], xmm1
	mov	DWORD PTR _min$1$[ebp], ecx
; File e:\study\jpeg2000\visually_lossless_jpeg2000\modifiedkakadu\coresys\common\kdu_compressed.h

; 223  :       { kdu_coords result; result.x=x+rhs.x; result.y=y+rhs.y; return result; }

	add	ecx, eax
	psrldq	xmm1, 8
	movd	eax, xmm1
	add	eax, DWORD PTR _min$2$[ebp]
; File e:\study\jpeg2000\visually_lossless_jpeg2000\modifiedkakadu\coresys\compressed\compressed.cpp

; 125  :   if ((branch_x & ~1) == 0)

	test	DWORD PTR _branch_x$1$[ebp], -2		; fffffffeH
	jne	SHORT $LN33@create_chi

; 126  :     { // Parent node is split horizontally
; 127  :       min.x -= (branch_x)?high_support_max:low_support_max;
; 128  :       lim.x -= (branch_x)?high_support_min:low_support_min;
; 129  :       min.x = (min.x + 1 - branch_x) >> 1;

	mov	ebx, DWORD PTR _min$1$[ebp]
	sub	ebx, DWORD PTR _branch_x$1$[ebp]

; 130  :       lim.x = (lim.x + 1 - branch_x) >> 1;

	sub	ecx, DWORD PTR _branch_x$1$[ebp]
	inc	ebx
	sar	ebx, 1
	inc	ecx
	mov	DWORD PTR _min$1$[ebp], ebx
	sar	ecx, 1
$LN33@create_chi:

; 131  :     }
; 132  : 
; 133  :   if ((branch_y & ~1) == 0)

	test	DWORD PTR _branch_y$1$[ebp], -2		; fffffffeH
	jne	SHORT $LN34@create_chi

; 134  :     { // Parent node is split vertically
; 135  :       min.y -= (branch_y)?high_support_max:low_support_max;
; 136  :       lim.y -= (branch_y)?high_support_min:low_support_min;
; 137  :       min.y = (min.y + 1 - branch_y) >> 1;

	mov	esi, DWORD PTR _min$2$[ebp]
	sub	esi, DWORD PTR _branch_y$1$[ebp]

; 138  :       lim.y = (lim.y + 1 - branch_y) >> 1;

	sub	eax, DWORD PTR _branch_y$1$[ebp]
	inc	esi
	sar	esi, 1
	inc	eax
	mov	DWORD PTR _min$2$[ebp], esi
	mov	esi, DWORD PTR _parent$[ebp]
	sar	eax, 1
$LN34@create_chi:

; 142  :   result.pos = min;

	mov	ebx, DWORD PTR _min$2$[ebp]
; File e:\study\jpeg2000\visually_lossless_jpeg2000\modifiedkakadu\coresys\common\kdu_compressed.h

; 230  :       { kdu_coords result; result.x=x-rhs.x; result.y=y-rhs.y; return result; }

	sub	eax, ebx
; File e:\study\jpeg2000\visually_lossless_jpeg2000\modifiedkakadu\coresys\compressed\compressed.cpp

; 142  :   result.pos = min;

	mov	edx, DWORD PTR _min$1$[ebp]
; File e:\study\jpeg2000\visually_lossless_jpeg2000\modifiedkakadu\coresys\common\kdu_compressed.h

; 230  :       { kdu_coords result; result.x=x-rhs.x; result.y=y-rhs.y; return result; }

	sub	ecx, edx
; File e:\study\jpeg2000\visually_lossless_jpeg2000\modifiedkakadu\coresys\compressed\compressed.cpp

; 142  :   result.pos = min;

	mov	DWORD PTR $T1[ebp], ebx

; 364  :   result->dims =

	mov	ebx, DWORD PTR _result$1$[ebp]

; 142  :   result.pos = min;

	mov	DWORD PTR $T1[ebp+4], edx

; 365  :     get_child_dims(parent->dims,result->branch_x,result->branch_y);
; 366  : 
; 367  :   if (next_branch_mask == 0)

	mov	edx, DWORD PTR _next_branch_mask$1$[ebp]

; 143  :   result.size = lim-min;

	mov	DWORD PTR $T1[ebp+8], eax
	mov	DWORD PTR $T1[ebp+12], ecx

; 364  :   result->dims =

	movups	xmm0, XMMWORD PTR $T1[ebp]
	movups	XMMWORD PTR [ebx+8], xmm0

; 365  :     get_child_dims(parent->dims,result->branch_x,result->branch_y);
; 366  : 
; 367  :   if (next_branch_mask == 0)

	test	edx, edx
	jne	SHORT $LN25@create_chi

; 368  :     { // This is a leaf node; check the subband descriptor
; 369  :       assert(result->is_leaf);
; 370  :       kd_subband *band = (kd_subband *) result;
; 371  :       band->orientation = (kdu_byte) orientation;

	mov	cl, BYTE PTR _orientation$[ebp]

; 372  : #ifdef _DEBUG
; 373  :       kdu_int16 descriptor = band->descriptor;
; 374  :       int hor_count = descriptor & 3;
; 375  :       int vert_count = (descriptor >> 8) & 3;
; 376  :       kd_leaf_node *scan;
; 377  :       for (scan=result; scan != &(scan->resolution->node); scan=scan->parent)
; 378  :         {
; 379  :           if ((scan->branch_x > 1) == 0)
; 380  :             { // Branch is decomposed horizontally
; 381  :               hor_count -= (scan->branch_x & ~1)?0:1;
; 382  :               assert(((descriptor>>(2+hor_count))&1) == (int)scan->branch_x);
; 383  :             }
; 384  :           if ((scan->branch_y > 1) == 0)
; 385  :             { // Branch is decomposed vertically
; 386  :               vert_count -= (scan->branch_y & ~1)?0:1;
; 387  :               assert(((descriptor>>(10+vert_count))&1) == (int)scan->branch_y);
; 388  :             }
; 389  :         }
; 390  :       assert((hor_count == 0) && (vert_count == 0));
; 391  : #endif // _DEBUG
; 392  : 
; 393  :       parent->num_descendant_nodes++;
; 394  :       parent->num_descendant_leaves++;
; 395  :       return result; // No more children

	mov	eax, ebx
	mov	BYTE PTR [ebx+46], cl
	inc	WORD PTR [esi+94]
	inc	WORD PTR [esi+96]
	pop	edi
	pop	esi
	pop	ebx

; 417  : }

	mov	esp, ebp
	pop	ebp
	ret	0
$LN25@create_chi:
	mov	ebx, DWORD PTR _decomp_val$[ebp]

; 396  :     }
; 397  : 
; 398  :   int b;
; 399  :   for (b=0; b < 4; b++)

	lea	ecx, DWORD PTR [edi+76]
	xor	esi, esi
	mov	DWORD PTR tv778[ebp], ecx
	npad	1
$LL10@create_chi:

; 400  :     if (b == (b & next_branch_mask))

	mov	eax, esi
	and	eax, edx
	cmp	esi, eax
	jne	SHORT $LN8@create_chi

; 401  :       {
; 402  :         inode->children[b] =

	push	DWORD PTR _kernels$[ebp]
	mov	eax, DWORD PTR _sub_level$[ebp]
	push	DWORD PTR _vert_extra_stage_high$[ebp]
	inc	eax
	push	DWORD PTR _num_vert_extra_stages$1$[ebp]
	push	DWORD PTR _hor_extra_stage_high$[ebp]
	push	DWORD PTR _num_hor_extra_stages$1$[ebp]
	push	DWORD PTR _vert_high$[ebp]
	push	DWORD PTR _hor_high$[ebp]
	push	DWORD PTR _orientation$[ebp]
	push	eax
	mov	eax, ebx
	and	eax, 3
	push	eax
	push	DWORD PTR _next_band_idx$[ebp]
	push	DWORD PTR _subbands$[ebp]
	push	DWORD PTR _next_inode_idx$[ebp]
	push	DWORD PTR _intermediate_nodes$[ebp]
	push	edx
	push	esi
	push	edi
	call	?create_child_node@@YAPAUkd_leaf_node@@PAUkd_node@@HH0AAHPAUkd_subband@@1HHH_N3HQA_NH4AAVkdu_kernels@@@Z ; create_child_node
	mov	ecx, DWORD PTR tv778[ebp]
	add	esp, 68					; 00000044H
	mov	edx, DWORD PTR _next_branch_mask$1$[ebp]

; 403  :           create_child_node(inode,b,next_branch_mask,
; 404  :                             intermediate_nodes,next_inode_idx,
; 405  :                             subbands,next_band_idx,(decomp_val & 3),
; 406  :                             sub_level+1,orientation,hor_high,vert_high,
; 407  :                             num_hor_extra_stages,hor_extra_stage_high,
; 408  :                             num_vert_extra_stages,vert_extra_stage_high,
; 409  :                             kernels);
; 410  :         decomp_val >>= 2;

	sar	ebx, 2
	mov	DWORD PTR [ecx], eax
$LN8@create_chi:

; 396  :     }
; 397  : 
; 398  :   int b;
; 399  :   for (b=0; b < 4; b++)

	inc	esi
	add	ecx, 4
	mov	DWORD PTR tv778[ebp], ecx
	cmp	esi, 4
	jl	SHORT $LL10@create_chi

; 411  :       }
; 412  : 
; 413  :   parent->num_descendant_leaves += inode->num_descendant_leaves;

	mov	ecx, DWORD PTR _parent$[ebp]
	movzx	eax, WORD PTR [edi+96]
	add	WORD PTR [ecx+96], ax

; 414  :   parent->num_descendant_nodes += inode->num_descendant_nodes + 1;

	movzx	eax, WORD PTR [edi+94]
	pop	edi
	inc	ax
	add	WORD PTR [ecx+94], ax

; 415  : 
; 416  :   return result;

	mov	eax, DWORD PTR _result$1$[ebp]
	pop	esi
	pop	ebx

; 417  : }

	mov	esp, ebp
	pop	ebp
	ret	0
?create_child_node@@YAPAUkd_leaf_node@@PAUkd_node@@HH0AAHPAUkd_subband@@1HHH_N3HQA_NH4AAVkdu_kernels@@@Z ENDP ; create_child_node
_TEXT	ENDS
; Function compile flags: /Ogtp
; File e:\study\jpeg2000\visually_lossless_jpeg2000\modifiedkakadu\coresys\compressed\compressed.cpp
; File e:\study\jpeg2000\visually_lossless_jpeg2000\modifiedkakadu\coresys\common\kdu_messaging.h
; File e:\study\jpeg2000\visually_lossless_jpeg2000\modifiedkakadu\coresys\compressed\compressed.cpp
; File e:\study\jpeg2000\visually_lossless_jpeg2000\modifiedkakadu\coresys\common\kdu_messaging.h
; File e:\study\jpeg2000\visually_lossless_jpeg2000\modifiedkakadu\coresys\compressed\compressed.cpp
; File e:\study\jpeg2000\visually_lossless_jpeg2000\modifiedkakadu\coresys\common\kdu_messaging.h
; File e:\study\jpeg2000\visually_lossless_jpeg2000\modifiedkakadu\coresys\compressed\compressed.cpp
; File e:\study\jpeg2000\visually_lossless_jpeg2000\modifiedkakadu\coresys\common\kdu_messaging.h
; File e:\study\jpeg2000\visually_lossless_jpeg2000\modifiedkakadu\coresys\compressed\compressed.cpp
;	COMDAT ?check_coding_partition@@YAXUkdu_dims@@@Z
_TEXT	SEGMENT
_e$2 = -52						; size = 20
_e$3 = -32						; size = 20
__$EHRec$ = -12						; size = 12
_partition$ = 8						; size = 16
?check_coding_partition@@YAXUkdu_dims@@@Z PROC		; check_coding_partition, COMDAT

; 197  : {

	push	ebp
	mov	ebp, esp
	push	-1
	push	__ehhandler$?check_coding_partition@@YAXUkdu_dims@@@Z
	mov	eax, DWORD PTR fs:0
	push	eax
	sub	esp, 40					; 00000028H
	mov	eax, DWORD PTR ___security_cookie
	xor	eax, ebp
	push	eax
	lea	eax, DWORD PTR __$EHRec$[ebp]
	mov	DWORD PTR fs:0, eax

; 198  :   if ((partition.pos.x != (partition.pos.x & 1)) ||

	mov	eax, DWORD PTR _partition$[ebp+4]
	and	eax, 1
	cmp	DWORD PTR _partition$[ebp+4], eax
	jne	SHORT $LN3@check_codi
	mov	eax, DWORD PTR _partition$[ebp]
	and	eax, 1
	cmp	DWORD PTR _partition$[ebp], eax
	je	SHORT $LN2@check_codi
$LN3@check_codi:

; 200  :     { KDU_ERROR(e,0); e <<

	push	OFFSET ??_C@_0BE@KMIJLGEL@Kakadu?5Core?5Error?3?6?$AA@
	lea	ecx, DWORD PTR _e$3[ebp]
	call	??0kdu_error@@QAE@PBD@Z			; kdu_error::kdu_error
; File e:\study\jpeg2000\visually_lossless_jpeg2000\modifiedkakadu\coresys\common\kdu_messaging.h

; 257  :       { put_text(string); return *this; }

	mov	eax, DWORD PTR _e$3[ebp]
	lea	ecx, DWORD PTR _e$3[ebp]
	push	OFFSET ??_C@_0GL@JBAAPDCE@Coding?5partitions?5?$CIcode?9blocks?5a@
; File e:\study\jpeg2000\visually_lossless_jpeg2000\modifiedkakadu\coresys\compressed\compressed.cpp

; 200  :     { KDU_ERROR(e,0); e <<

	mov	DWORD PTR __$EHRec$[ebp+8], 0
; File e:\study\jpeg2000\visually_lossless_jpeg2000\modifiedkakadu\coresys\common\kdu_messaging.h

; 257  :       { put_text(string); return *this; }

	call	DWORD PTR [eax+8]
; File e:\study\jpeg2000\visually_lossless_jpeg2000\modifiedkakadu\coresys\compressed\compressed.cpp

; 203  :     }

	lea	ecx, DWORD PTR _e$3[ebp]
	mov	DWORD PTR __$EHRec$[ebp+8], -1
	call	??1kdu_error@@UAE@XZ			; kdu_error::~kdu_error
$LN2@check_codi:

; 204  :   if (!(is_power_2(partition.size.x) && is_power_2(partition.size.y)))

	push	DWORD PTR _partition$[ebp+12]
	call	?is_power_2@@YA_NH@Z			; is_power_2
	add	esp, 4
	test	al, al
	je	SHORT $LN5@check_codi
	push	DWORD PTR _partition$[ebp+8]
	call	?is_power_2@@YA_NH@Z			; is_power_2
	add	esp, 4
	test	al, al
	jne	SHORT $LN4@check_codi
$LN5@check_codi:

; 205  :     { KDU_ERROR(e,1); e <<

	push	OFFSET ??_C@_0BE@KMIJLGEL@Kakadu?5Core?5Error?3?6?$AA@
	lea	ecx, DWORD PTR _e$2[ebp]
	call	??0kdu_error@@QAE@PBD@Z			; kdu_error::kdu_error
; File e:\study\jpeg2000\visually_lossless_jpeg2000\modifiedkakadu\coresys\common\kdu_messaging.h

; 257  :       { put_text(string); return *this; }

	mov	eax, DWORD PTR _e$2[ebp]
	lea	ecx, DWORD PTR _e$2[ebp]
	push	OFFSET ??_C@_0GG@KMAHIAKO@Coding?5partitions?5?$CInamely?0?5code?9@
; File e:\study\jpeg2000\visually_lossless_jpeg2000\modifiedkakadu\coresys\compressed\compressed.cpp

; 205  :     { KDU_ERROR(e,1); e <<

	mov	DWORD PTR __$EHRec$[ebp+8], 1
; File e:\study\jpeg2000\visually_lossless_jpeg2000\modifiedkakadu\coresys\common\kdu_messaging.h

; 257  :       { put_text(string); return *this; }

	call	DWORD PTR [eax+8]
; File e:\study\jpeg2000\visually_lossless_jpeg2000\modifiedkakadu\coresys\compressed\compressed.cpp

; 208  :     }

	lea	ecx, DWORD PTR _e$2[ebp]
	call	??1kdu_error@@UAE@XZ			; kdu_error::~kdu_error
$LN4@check_codi:

; 209  : }

	mov	ecx, DWORD PTR __$EHRec$[ebp]
	mov	DWORD PTR fs:0, ecx
	pop	ecx
	mov	esp, ebp
	pop	ebp
	ret	0
_TEXT	ENDS
;	COMDAT text$x
text$x	SEGMENT
__unwindfunclet$?check_coding_partition@@YAXUkdu_dims@@@Z$0:
	lea	ecx, DWORD PTR _e$3[ebp]
	jmp	??1kdu_error@@UAE@XZ			; kdu_error::~kdu_error
__unwindfunclet$?check_coding_partition@@YAXUkdu_dims@@@Z$1:
	lea	ecx, DWORD PTR _e$2[ebp]
	jmp	??1kdu_error@@UAE@XZ			; kdu_error::~kdu_error
__ehhandler$?check_coding_partition@@YAXUkdu_dims@@@Z:
	mov	edx, DWORD PTR [esp+8]
	lea	eax, DWORD PTR [edx+12]
	mov	ecx, DWORD PTR [edx-44]
	xor	ecx, eax
	call	@__security_check_cookie@4
	mov	eax, OFFSET __ehfuncinfo$?check_coding_partition@@YAXUkdu_dims@@@Z
	jmp	___CxxFrameHandler3
text$x	ENDS
?check_coding_partition@@YAXUkdu_dims@@@Z ENDP		; check_coding_partition
; Function compile flags: /Ogtp
; File e:\study\jpeg2000\visually_lossless_jpeg2000\modifiedkakadu\coresys\compressed\compressed.cpp
;	COMDAT ?is_power_2@@YA_NH@Z
_TEXT	SEGMENT
_val$ = 8						; size = 4
?is_power_2@@YA_NH@Z PROC				; is_power_2, COMDAT

; 182  : {

	push	ebp
	mov	ebp, esp

; 183  :   for (; val > 1; val >>= 1)

	mov	eax, DWORD PTR _val$[ebp]
	cmp	eax, 1
	jle	SHORT $LN3@is_power_2
	npad	5
$LL4@is_power_2:

; 184  :     if (val & 1)

	test	al, 1
	jne	SHORT $LN8@is_power_2

; 183  :   for (; val > 1; val >>= 1)

	sar	eax, 1
	cmp	eax, 1
	jg	SHORT $LL4@is_power_2
$LN3@is_power_2:

; 186  :     return (val==1);

	xor	ecx, ecx
	cmp	eax, 1
	sete	al

; 187  : }

	pop	ebp
	ret	0
$LN8@is_power_2:

; 185  :       return false;

	xor	al, al

; 187  : }

	pop	ebp
	ret	0
?is_power_2@@YA_NH@Z ENDP				; is_power_2
_TEXT	ENDS
; Function compile flags: /Ogtp
; File e:\study\jpeg2000\visually_lossless_jpeg2000\modifiedkakadu\coresys\compressed\compressed.cpp
; File e:\study\jpeg2000\visually_lossless_jpeg2000\modifiedkakadu\coresys\common\kdu_compressed.h
; File e:\study\jpeg2000\visually_lossless_jpeg2000\modifiedkakadu\coresys\common\kdu_utils.h
; File e:\study\jpeg2000\visually_lossless_jpeg2000\modifiedkakadu\coresys\common\kdu_compressed.h
; File e:\study\jpeg2000\visually_lossless_jpeg2000\modifiedkakadu\coresys\common\kdu_utils.h
; File e:\study\jpeg2000\visually_lossless_jpeg2000\modifiedkakadu\coresys\common\kdu_compressed.h
; File e:\study\jpeg2000\visually_lossless_jpeg2000\modifiedkakadu\coresys\compressed\compressed.cpp
; File e:\study\jpeg2000\visually_lossless_jpeg2000\modifiedkakadu\coresys\common\kdu_compressed.h
; File e:\study\jpeg2000\visually_lossless_jpeg2000\modifiedkakadu\coresys\compressed\compressed.cpp
; File e:\study\jpeg2000\visually_lossless_jpeg2000\modifiedkakadu\coresys\common\kdu_compressed.h
; File e:\study\jpeg2000\visually_lossless_jpeg2000\modifiedkakadu\coresys\compressed\compressed.cpp
;	COMDAT ?get_partition_indices@@YA?AUkdu_dims@@U1@0@Z
_TEXT	SEGMENT
_lim$4$ = -8						; size = 4
_min$2$ = -4						; size = 4
___$ReturnUdt$ = 8					; size = 4
_partition$ = 12					; size = 16
_region$ = 28						; size = 16
?get_partition_indices@@YA?AUkdu_dims@@U1@0@Z PROC	; get_partition_indices, COMDAT

; 159  : {

	push	ebp
	mov	ebp, esp
	sub	esp, 8
; File e:\study\jpeg2000\visually_lossless_jpeg2000\modifiedkakadu\coresys\common\kdu_compressed.h

; 230  :       { kdu_coords result; result.x=x-rhs.x; result.y=y-rhs.y; return result; }

	mov	ecx, DWORD PTR _region$[ebp+4]
	sub	ecx, DWORD PTR _partition$[ebp+4]

; 223  :       { kdu_coords result; result.x=x+rhs.x; result.y=y+rhs.y; return result; }

	mov	eax, DWORD PTR _region$[ebp+8]
	push	ebx
	mov	ebx, DWORD PTR _region$[ebp+12]
	push	esi

; 230  :       { kdu_coords result; result.x=x-rhs.x; result.y=y-rhs.y; return result; }

	mov	esi, DWORD PTR _region$[ebp]

; 223  :       { kdu_coords result; result.x=x+rhs.x; result.y=y+rhs.y; return result; }

	add	ebx, ecx

; 230  :       { kdu_coords result; result.x=x-rhs.x; result.y=y-rhs.y; return result; }

	sub	esi, DWORD PTR _partition$[ebp]
	push	edi

; 223  :       { kdu_coords result; result.x=x+rhs.x; result.y=y+rhs.y; return result; }

	add	eax, esi
; File e:\study\jpeg2000\visually_lossless_jpeg2000\modifiedkakadu\coresys\common\kdu_utils.h

; 199  :   if (num < 0)

	or	edi, -1
; File e:\study\jpeg2000\visually_lossless_jpeg2000\modifiedkakadu\coresys\common\kdu_compressed.h

; 223  :       { kdu_coords result; result.x=x+rhs.x; result.y=y+rhs.y; return result; }

	mov	DWORD PTR _lim$4$[ebp], eax
; File e:\study\jpeg2000\visually_lossless_jpeg2000\modifiedkakadu\coresys\common\kdu_utils.h

; 199  :   if (num < 0)

	test	ecx, ecx
	jns	SHORT $LN14@get_partit

; 200  :     return -(1+((-num-1)/den));

	mov	eax, edi
	sub	eax, ecx
	mov	ecx, DWORD PTR _partition$[ebp+12]
	cdq
	idiv	ecx
	mov	edx, edi
	sub	edx, eax
	mov	DWORD PTR _min$2$[ebp], edx
	jmp	SHORT $LN15@get_partit
$LN14@get_partit:

; 201  :   else
; 202  :     return num/den;

	mov	eax, ecx
	mov	ecx, DWORD PTR _partition$[ebp+12]
	cdq
	idiv	ecx
	mov	DWORD PTR _min$2$[ebp], eax
$LN15@get_partit:

; 179  :   if (num <= 0)

	test	ebx, ebx
	jg	SHORT $LN18@get_partit

; 180  :     return -((-num)/den);

	mov	eax, ebx
	cdq
	idiv	ecx
	mov	ebx, eax
	jmp	SHORT $LN19@get_partit
$LN18@get_partit:

; 181  :   else
; 182  :     return 1+((num-1)/den);

	lea	eax, DWORD PTR [ebx-1]
	cdq
	idiv	ecx
	lea	ebx, DWORD PTR [eax+1]
$LN19@get_partit:

; 200  :     return -(1+((-num-1)/den));

	mov	ecx, DWORD PTR _partition$[ebp+8]
	test	esi, esi
	jns	SHORT $LN22@get_partit
	mov	eax, edi
	sub	eax, esi
	cdq
	idiv	ecx
	sub	edi, eax
	jmp	SHORT $LN23@get_partit
$LN22@get_partit:

; 201  :   else
; 202  :     return num/den;

	mov	eax, esi
	cdq
	idiv	ecx
	mov	edi, eax
$LN23@get_partit:

; 179  :   if (num <= 0)

	mov	eax, DWORD PTR _lim$4$[ebp]
	test	eax, eax
	jg	SHORT $LN26@get_partit

; 180  :     return -((-num)/den);

	cdq
	idiv	ecx
	mov	ecx, eax
	jmp	SHORT $LN27@get_partit
$LN26@get_partit:

; 181  :   else
; 182  :     return 1+((num-1)/den);

	dec	eax
	cdq
	idiv	ecx
	lea	ecx, DWORD PTR [eax+1]
$LN27@get_partit:
; File e:\study\jpeg2000\visually_lossless_jpeg2000\modifiedkakadu\coresys\common\kdu_compressed.h

; 209  :     kdu_coords() { x = y = 0; }

	mov	eax, DWORD PTR ___$ReturnUdt$[ebp]
; File e:\study\jpeg2000\visually_lossless_jpeg2000\modifiedkakadu\coresys\compressed\compressed.cpp

; 166  :   if (region.size.x == 0) lim.x = min.x;

	cmp	DWORD PTR _region$[ebp+12], 0
	mov	edx, DWORD PTR _min$2$[ebp]
	cmove	ebx, edx

; 167  :   if (region.size.y == 0) lim.y = min.y;

	cmp	DWORD PTR _region$[ebp+8], 0
; File e:\study\jpeg2000\visually_lossless_jpeg2000\modifiedkakadu\coresys\common\kdu_compressed.h

; 209  :     kdu_coords() { x = y = 0; }

	mov	DWORD PTR [eax], 0
	mov	DWORD PTR [eax+4], 0
; File e:\study\jpeg2000\visually_lossless_jpeg2000\modifiedkakadu\coresys\compressed\compressed.cpp

; 167  :   if (region.size.y == 0) lim.y = min.y;

	cmove	ecx, edi
; File e:\study\jpeg2000\visually_lossless_jpeg2000\modifiedkakadu\coresys\common\kdu_compressed.h

; 209  :     kdu_coords() { x = y = 0; }

	mov	DWORD PTR [eax+8], 0

; 230  :       { kdu_coords result; result.x=x-rhs.x; result.y=y-rhs.y; return result; }

	sub	ebx, edx

; 209  :     kdu_coords() { x = y = 0; }

	mov	DWORD PTR [eax+12], 0

; 230  :       { kdu_coords result; result.x=x-rhs.x; result.y=y-rhs.y; return result; }

	sub	ecx, edi
; File e:\study\jpeg2000\visually_lossless_jpeg2000\modifiedkakadu\coresys\compressed\compressed.cpp

; 170  :   indices.pos = min;

	mov	DWORD PTR [eax], edi
	pop	edi
	pop	esi

; 171  :   indices.size = lim-min;

	mov	DWORD PTR [eax+12], ebx
	mov	DWORD PTR [eax+4], edx
	mov	DWORD PTR [eax+8], ecx
	pop	ebx

; 172  : 
; 173  :   return indices;
; 174  : }

	mov	esp, ebp
	pop	ebp
	ret	0
?get_partition_indices@@YA?AUkdu_dims@@U1@0@Z ENDP	; get_partition_indices
_TEXT	ENDS
; Function compile flags: /Ogtp
; File e:\study\jpeg2000\visually_lossless_jpeg2000\modifiedkakadu\coresys\compressed\compressed.cpp
; File e:\study\jpeg2000\visually_lossless_jpeg2000\modifiedkakadu\coresys\common\kdu_compressed.h
; File e:\study\jpeg2000\visually_lossless_jpeg2000\modifiedkakadu\coresys\compressed\compressed.cpp
; File e:\study\jpeg2000\visually_lossless_jpeg2000\modifiedkakadu\coresys\common\kdu_compressed.h
; File e:\study\jpeg2000\visually_lossless_jpeg2000\modifiedkakadu\coresys\compressed\compressed.cpp
; File e:\study\jpeg2000\visually_lossless_jpeg2000\modifiedkakadu\coresys\common\kdu_compressed.h
; File e:\study\jpeg2000\visually_lossless_jpeg2000\modifiedkakadu\coresys\compressed\compressed.cpp
; File e:\study\jpeg2000\visually_lossless_jpeg2000\modifiedkakadu\coresys\common\kdu_compressed.h
; File e:\study\jpeg2000\visually_lossless_jpeg2000\modifiedkakadu\coresys\compressed\compressed.cpp
;	COMDAT ?get_child_dims@@YA?AUkdu_dims@@U1@HHHHHH@Z
_TEXT	SEGMENT
___$ReturnUdt$ = 8					; size = 4
_parent_dims$ = 12					; size = 16
_branch_x$ = 28						; size = 4
_branch_y$ = 32						; size = 4
_low_support_min$ = 36					; size = 4
_low_support_max$ = 40					; size = 4
_high_support_min$ = 44					; size = 4
_high_support_max$ = 48					; size = 4
?get_child_dims@@YA?AUkdu_dims@@U1@HHHHHH@Z PROC	; get_child_dims, COMDAT

; 121  : {

	push	ebp
	mov	ebp, esp
; File e:\study\jpeg2000\visually_lossless_jpeg2000\modifiedkakadu\coresys\common\kdu_compressed.h

; 223  :       { kdu_coords result; result.x=x+rhs.x; result.y=y+rhs.y; return result; }

	mov	ecx, DWORD PTR _parent_dims$[ebp+12]
	mov	edx, DWORD PTR _parent_dims$[ebp+8]
	push	ebx
; File e:\study\jpeg2000\visually_lossless_jpeg2000\modifiedkakadu\coresys\compressed\compressed.cpp

; 125  :   if ((branch_x & ~1) == 0)

	mov	ebx, DWORD PTR _branch_x$[ebp]
	push	esi
	mov	esi, DWORD PTR _parent_dims$[ebp]
; File e:\study\jpeg2000\visually_lossless_jpeg2000\modifiedkakadu\coresys\common\kdu_compressed.h

; 223  :       { kdu_coords result; result.x=x+rhs.x; result.y=y+rhs.y; return result; }

	add	edx, esi
	push	edi
; File e:\study\jpeg2000\visually_lossless_jpeg2000\modifiedkakadu\coresys\compressed\compressed.cpp

; 122  :   kdu_coords min = parent_dims.pos;

	mov	edi, DWORD PTR _parent_dims$[ebp+4]
; File e:\study\jpeg2000\visually_lossless_jpeg2000\modifiedkakadu\coresys\common\kdu_compressed.h

; 223  :       { kdu_coords result; result.x=x+rhs.x; result.y=y+rhs.y; return result; }

	add	ecx, edi
; File e:\study\jpeg2000\visually_lossless_jpeg2000\modifiedkakadu\coresys\compressed\compressed.cpp

; 125  :   if ((branch_x & ~1) == 0)

	test	ebx, -2					; fffffffeH
	jne	SHORT $LN2@get_child_

; 126  :     { // Parent node is split horizontally
; 127  :       min.x -= (branch_x)?high_support_max:low_support_max;

	mov	eax, DWORD PTR _low_support_max$[ebp]
	test	ebx, ebx
	cmovne	eax, DWORD PTR _high_support_max$[ebp]

; 128  :       lim.x -= (branch_x)?high_support_min:low_support_min;
; 129  :       min.x = (min.x + 1 - branch_x) >> 1;

	sub	edi, eax
	mov	eax, DWORD PTR _low_support_min$[ebp]
	sub	edi, ebx
	inc	edi
	sar	edi, 1
	test	ebx, ebx
	cmovne	eax, DWORD PTR _high_support_min$[ebp]

; 130  :       lim.x = (lim.x + 1 - branch_x) >> 1;

	sub	ecx, eax
	sub	ecx, ebx
	inc	ecx
	sar	ecx, 1
$LN2@get_child_:

; 131  :     }
; 132  : 
; 133  :   if ((branch_y & ~1) == 0)

	mov	eax, DWORD PTR _branch_y$[ebp]
	test	eax, -2					; fffffffeH
	jne	SHORT $LN3@get_child_

; 134  :     { // Parent node is split vertically
; 135  :       min.y -= (branch_y)?high_support_max:low_support_max;

	mov	ebx, DWORD PTR _low_support_max$[ebp]
	test	eax, eax
	cmovne	ebx, DWORD PTR _high_support_max$[ebp]

; 136  :       lim.y -= (branch_y)?high_support_min:low_support_min;
; 137  :       min.y = (min.y + 1 - branch_y) >> 1;

	sub	esi, ebx
	mov	ebx, DWORD PTR _low_support_min$[ebp]
	sub	esi, eax
	inc	esi
	sar	esi, 1
	test	eax, eax
	cmovne	ebx, DWORD PTR _high_support_min$[ebp]

; 138  :       lim.y = (lim.y + 1 - branch_y) >> 1;

	sub	edx, ebx
	sub	edx, eax
	inc	edx
	sar	edx, 1
$LN3@get_child_:
; File e:\study\jpeg2000\visually_lossless_jpeg2000\modifiedkakadu\coresys\common\kdu_compressed.h

; 209  :     kdu_coords() { x = y = 0; }

	mov	eax, DWORD PTR ___$ReturnUdt$[ebp]

; 224  :     kdu_coords plus(const kdu_coords &rhs)
; 225  :       { /* [SYNOPSIS] Same as `operator+', but more suitable for
; 226  :                       some language bindings. */
; 227  :            return (*this)+rhs;
; 228  :       }
; 229  :     kdu_coords operator-(const kdu_coords &rhs)
; 230  :       { kdu_coords result; result.x=x-rhs.x; result.y=y-rhs.y; return result; }

	sub	ecx, edi
	sub	edx, esi

; 209  :     kdu_coords() { x = y = 0; }

	mov	DWORD PTR [eax], 0
	mov	DWORD PTR [eax+4], 0
	mov	DWORD PTR [eax+8], 0
	mov	DWORD PTR [eax+12], 0
; File e:\study\jpeg2000\visually_lossless_jpeg2000\modifiedkakadu\coresys\compressed\compressed.cpp

; 142  :   result.pos = min;

	mov	DWORD PTR [eax+4], edi
	pop	edi
	mov	DWORD PTR [eax], esi
	pop	esi

; 143  :   result.size = lim-min;

	mov	DWORD PTR [eax+8], edx
	mov	DWORD PTR [eax+12], ecx
	pop	ebx

; 144  :   return result;
; 145  : }

	pop	ebp
	ret	0
?get_child_dims@@YA?AUkdu_dims@@U1@HHHHHH@Z ENDP	; get_child_dims
_TEXT	ENDS
; Function compile flags: /Ogtp
; File e:\study\jpeg2000\visually_lossless_jpeg2000\modifiedkakadu\coresys\compressed\compressed_local.h
;	COMDAT ?update_stats@kd_thread_env@@QAEXPAUkdu_block@@PAUkd_codestream@@@Z
_TEXT	SEGMENT
_blk$ = 8						; size = 4
_cs$ = 12						; size = 4
?update_stats@kd_thread_env@@QAEXPAUkdu_block@@PAUkd_codestream@@@Z PROC ; kd_thread_env::update_stats, COMDAT
; _this$ = ecx

; 4578 :       { /* Called during encoding after each code-block of data has been

	push	ebp
	mov	ebp, esp
	push	esi
	mov	esi, ecx
	push	edi

; 4579 :            generated, whenever coding statistics are being kept by the
; 4580 :            relevant codestream.  This function updates the internal coding
; 4581 :            statistics record managed by the `stats' member, which is
; 4582 :            reconciled against the underlying codestream only at appropriate
; 4583 :            intervals, so as to minimize thread blocking conditions. */
; 4584 :         if ((stats_codestream != cs) && (stats_codestream != NULL))

	mov	edi, DWORD PTR _cs$[ebp]
	mov	eax, DWORD PTR [esi+33128]
	cmp	eax, edi
	je	SHORT $LN2@update_sta
	test	eax, eax
	je	SHORT $LN2@update_sta

; 4585 :           {
; 4586 :             reconcile_stats();

	call	?reconcile_stats@kd_thread_env@@QAEXXZ	; kd_thread_env::reconcile_stats

; 4587 :             stats_codestream = cs;

	mov	DWORD PTR [esi+33128], edi
$LN2@update_sta:

; 4588 :           }
; 4589 :         stats.update_stats(blk);

	push	DWORD PTR _blk$[ebp]
	lea	ecx, DWORD PTR [esi+296]
	call	?update_stats@kd_compressed_stats@@QAE_NPAUkdu_block@@@Z ; kd_compressed_stats::update_stats
	pop	edi
	pop	esi

; 4590 :       }

	pop	ebp
	ret	8
?update_stats@kd_thread_env@@QAEXPAUkdu_block@@PAUkd_codestream@@@Z ENDP ; kd_thread_env::update_stats
_TEXT	ENDS
; Function compile flags: /Ogtp
; File e:\study\jpeg2000\visually_lossless_jpeg2000\modifiedkakadu\coresys\compressed\compressed_local.h
;	COMDAT ?get_block_state@kd_thread_env@@QAEPAUkd_thread_block_state@@PAUkd_codestream@@PAUkd_precinct@@PAVkd_block@@@Z
_TEXT	SEGMENT
_cs$ = 8						; size = 4
_precinct$ = 12						; size = 4
_block$ = 16						; size = 4
?get_block_state@kd_thread_env@@QAEPAUkd_thread_block_state@@PAUkd_codestream@@PAUkd_precinct@@PAVkd_block@@@Z PROC ; kd_thread_env::get_block_state, COMDAT
; _this$ = ecx

; 4563 :       {

	push	ebp
	mov	ebp, esp
	push	esi
	mov	esi, ecx

; 4564 :         if (num_outstanding_blocks == KD_THREAD_MAX_OUTSTANDING_BLOCKS)

	cmp	DWORD PTR [esi+33168], 8
	jne	SHORT $LN5@get_block_

; 4565 :           flush(true);

	push	1
	call	?flush@kd_thread_env@@QAEX_N@Z		; kd_thread_env::flush
$LN5@get_block_:

; 4566 :         kd_thread_block_state *scan=outstanding_blocks;

	lea	eax, DWORD PTR [esi+33172]

; 4567 :         for (int n=0; n < KD_THREAD_MAX_OUTSTANDING_BLOCKS; n++, scan++)

	xor	ecx, ecx
	npad	2
$LL4@get_block_:

; 4568 :           if (scan->target_precinct == NULL)

	cmp	DWORD PTR [eax+24], 0
	je	SHORT $LN9@get_block_

; 4567 :         for (int n=0; n < KD_THREAD_MAX_OUTSTANDING_BLOCKS; n++, scan++)

	inc	ecx
	add	eax, 32					; 00000020H
	cmp	ecx, 8
	jl	SHORT $LL4@get_block_

; 4573 :               return scan;
; 4574 :             }
; 4575 :         return NULL; // Should not be possible!!

	xor	eax, eax
	pop	esi

; 4576 :       }

	pop	ebp
	ret	12					; 0000000cH
$LN9@get_block_:

; 4569 :             {
; 4570 :               num_outstanding_blocks++;

	inc	DWORD PTR [esi+33168]

; 4571 :               scan->target_precinct=precinct;  scan->target_block=block;

	mov	ecx, DWORD PTR _precinct$[ebp]
	mov	DWORD PTR [eax+24], ecx
	mov	ecx, DWORD PTR _block$[ebp]
	mov	DWORD PTR [eax+28], ecx

; 4572 :               owner->have_outstanding_blocks = true;

	mov	ecx, DWORD PTR [esi+128]
	pop	esi
	mov	BYTE PTR [ecx+44], 1

; 4576 :       }

	pop	ebp
	ret	12					; 0000000cH
?get_block_state@kd_thread_env@@QAEPAUkd_thread_block_state@@PAUkd_codestream@@PAUkd_precinct@@PAVkd_block@@@Z ENDP ; kd_thread_env::get_block_state
_TEXT	ENDS
; Function compile flags: /Ogtp
; File e:\study\jpeg2000\visually_lossless_jpeg2000\modifiedkakadu\coresys\compressed\compressed.cpp
; File e:\study\jpeg2000\visually_lossless_jpeg2000\modifiedkakadu\coresys\compressed\compressed_local.h
; File e:\study\jpeg2000\visually_lossless_jpeg2000\modifiedkakadu\coresys\compressed\compressed.cpp
; File e:\study\jpeg2000\visually_lossless_jpeg2000\modifiedkakadu\coresys\compressed\compressed_local.h
; File e:\study\jpeg2000\visually_lossless_jpeg2000\modifiedkakadu\coresys\compressed\compressed.cpp
; File e:\study\jpeg2000\visually_lossless_jpeg2000\modifiedkakadu\coresys\compressed\compressed_local.h
; File e:\study\jpeg2000\visually_lossless_jpeg2000\modifiedkakadu\coresys\compressed\compressed.cpp
;	COMDAT ?get@kd_precinct_server@@QAEPAUkd_precinct@@HH@Z
_TEXT	SEGMENT
_this$1$ = -8						; size = 4
_scan$1$ = -4						; size = 4
_max_blocks$ = 8					; size = 4
$T1 = 12						; size = 4
_num_subbands$ = 12					; size = 4
?get@kd_precinct_server@@QAEPAUkd_precinct@@HH@Z PROC	; kd_precinct_server::get, COMDAT
; _this$ = ecx

; 6441 : {

	push	ebp
	mov	ebp, esp
	sub	esp, 8
	push	ebx
	mov	ebx, ecx
	push	esi
	push	edi

; 6442 :   kd_precinct_size_class *scan;
; 6443 :   for (scan=size_classes; scan != NULL; scan=scan->next)

	mov	edi, DWORD PTR _num_subbands$[ebp]
	mov	esi, DWORD PTR [ebx]
	mov	DWORD PTR _this$1$[ebp], ebx
	mov	DWORD PTR _scan$1$[ebp], esi
	test	esi, esi
	je	SHORT $LN34@get
	mov	eax, DWORD PTR _max_blocks$[ebp]
	npad	3
$LL4@get:

; 6444 :     if ((scan->max_blocks == max_blocks) &&

	cmp	DWORD PTR [esi+8], eax
	jne	SHORT $LN2@get
	cmp	DWORD PTR [esi+12], edi
	je	$LN26@get
$LN2@get:

; 6442 :   kd_precinct_size_class *scan;
; 6443 :   for (scan=size_classes; scan != NULL; scan=scan->next)

	mov	esi, DWORD PTR [esi+36]
	mov	DWORD PTR _scan$1$[ebp], esi
	test	esi, esi
	jne	SHORT $LL4@get
$LN34@get:

; 6449 :       scan =

	push	40					; 00000028H
	call	??2@YAPAXI@Z				; operator new
	mov	esi, eax
	mov	DWORD PTR _scan$1$[ebp], eax
	add	esp, 4
	mov	DWORD PTR $T1[ebp], esi
	test	esi, esi
	je	SHORT $LN10@get
	mov	eax, DWORD PTR [ebx+24]
; File e:\study\jpeg2000\visually_lossless_jpeg2000\modifiedkakadu\coresys\compressed\compressed_local.h

; 4411 :         this->max_blocks = max_blocks;

	mov	ecx, DWORD PTR _max_blocks$[ebp]

; 4412 :         this->num_subbands = num_subbands;
; 4413 :         this->server = server;  this->buf_server = buf_server;

	mov	DWORD PTR [esi+4], eax

; 4414 :         total_precincts = 0; free_list = NULL; next = NULL;
; 4415 :         alloc_bytes = (int) sizeof(kd_precinct);
; 4416 :         alloc_bytes += (-alloc_bytes) & 7; // Round up to 8-byte boundary
; 4417 :         alloc_bytes += num_subbands * (int) sizeof(kd_precinct_band);

	lea	eax, DWORD PTR [edi+edi*2]
	mov	DWORD PTR [esi+8], ecx
	lea	ecx, DWORD PTR [eax*8+56]

; 4418 :         alloc_bytes += (-alloc_bytes) & 7; // Round up to 8-byte boundary
; 4419 :         alloc_bytes += 4 + max_blocks * (int) sizeof(kd_block);

	mov	eax, DWORD PTR _max_blocks$[ebp]
	mov	edx, ecx
	neg	edx
	mov	DWORD PTR [esi+12], edi
	and	edx, 7
	mov	DWORD PTR [esi], ebx
	add	edx, ecx
	mov	DWORD PTR [esi+24], 0
	lea	eax, DWORD PTR [eax+eax*2]
	mov	DWORD PTR [esi+28], 0
	lea	eax, DWORD PTR [eax*8+4]
	mov	DWORD PTR [esi+32], 0
	add	eax, edx
	mov	DWORD PTR [esi+36], 0
	mov	DWORD PTR [esi+16], eax
; File e:\study\jpeg2000\visually_lossless_jpeg2000\modifiedkakadu\coresys\compressed\compressed.cpp

; 6449 :       scan =

	jmp	SHORT $LN11@get
$LN10@get:
	xor	esi, esi
	mov	DWORD PTR _scan$1$[ebp], esi
$LN11@get:

; 6450 :         new kd_precinct_size_class(max_blocks,num_subbands,this,buf_server);
; 6451 :       scan->next = size_classes; size_classes = scan;

	mov	eax, DWORD PTR [ebx]
	mov	DWORD PTR [esi+36], eax
	mov	DWORD PTR [ebx], esi
$LN26@get:

; 6452 :     }
; 6453 : 
; 6454 :   kd_precinct *tmp;
; 6455 :   while (((tmp = inactive_head) != NULL) &&

	mov	ebx, DWORD PTR [ebx+16]
	test	ebx, ebx
	je	SHORT $LN17@get
	mov	esi, DWORD PTR _this$1$[ebp]
	npad	8
$LL5@get:
	mov	edi, DWORD PTR [esi+24]
; File e:\study\jpeg2000\visually_lossless_jpeg2000\modifiedkakadu\coresys\compressed\compressed_local.h

; 289  :       { return (cache_threshold_bytes <

	push	0
	push	232					; 000000e8H
	push	DWORD PTR [edi+20]
	push	DWORD PTR [edi+16]
	call	__allmul
	add	eax, DWORD PTR [edi+32]
	adc	edx, DWORD PTR [edi+36]
	cmp	DWORD PTR [edi+52], edx
	jg	SHORT $LN40@get
	jl	SHORT $LN36@get
	cmp	DWORD PTR [edi+48], eax
	jae	SHORT $LN40@get
$LN36@get:
; File e:\study\jpeg2000\visually_lossless_jpeg2000\modifiedkakadu\coresys\compressed\compressed.cpp

; 6460 :       tmp->ref->close();

	mov	ecx, DWORD PTR [ebx+4]
	call	?close@kd_precinct_ref@@QAEXXZ		; kd_precinct_ref::close
	mov	ebx, DWORD PTR [esi+16]
	test	ebx, ebx
	jne	SHORT $LL5@get
$LN40@get:
	mov	esi, DWORD PTR _scan$1$[ebp]
$LN17@get:
; File e:\study\jpeg2000\visually_lossless_jpeg2000\modifiedkakadu\coresys\compressed\compressed_local.h

; 4429 :         if (free_list == NULL)

	cmp	DWORD PTR [esi+32], 0
	jne	SHORT $LN20@get

; 4430 :           augment_free_list();

	mov	ecx, esi
	call	?augment_free_list@kd_precinct_size_class@@AAEXXZ ; kd_precinct_size_class::augment_free_list
$LN20@get:

; 4431 :         kd_precinct *result = free_list; free_list = free_list->next;

	mov	edi, DWORD PTR [esi+32]
	mov	ecx, DWORD PTR [edi+44]
	mov	DWORD PTR [esi+32], ecx

; 4432 :         result->next = result->prev = NULL;

	mov	DWORD PTR [edi+48], 0
	mov	DWORD PTR [edi+44], 0

; 4433 :         buf_server->augment_structure_bytes(alloc_bytes);

	mov	ecx, DWORD PTR [esi+4]
	mov	eax, DWORD PTR [esi+16]
	cdq

; 280  :         structure_bytes += increment; assert(structure_bytes >= 0);

	add	DWORD PTR [ecx+32], eax

; 281  :         if (structure_bytes > peak_structure_bytes)

	mov	eax, DWORD PTR [ecx+32]
	adc	DWORD PTR [ecx+36], edx
	mov	edx, DWORD PTR [ecx+36]
	cmp	edx, DWORD PTR [ecx+44]
	jl	SHORT $LN39@get
	jg	SHORT $LN37@get
	cmp	eax, DWORD PTR [ecx+40]
	jbe	SHORT $LN39@get
$LN37@get:

; 282  :           peak_structure_bytes = structure_bytes;

	mov	DWORD PTR [ecx+40], eax
	mov	DWORD PTR [ecx+44], edx
$LN39@get:
; File e:\study\jpeg2000\visually_lossless_jpeg2000\modifiedkakadu\coresys\compressed\compressed.cpp

; 6462 :   return scan->get();

	mov	eax, edi
	pop	edi
	pop	esi
	pop	ebx

; 6463 : }

	mov	esp, ebp
	pop	ebp
	ret	8
?get@kd_precinct_server@@QAEPAUkd_precinct@@HH@Z ENDP	; kd_precinct_server::get
_TEXT	ENDS
; Function compile flags: /Ogtp
; File e:\study\jpeg2000\visually_lossless_jpeg2000\modifiedkakadu\coresys\compressed\compressed.cpp
; File e:\study\jpeg2000\visually_lossless_jpeg2000\modifiedkakadu\coresys\common\kdu_messaging.h
; File e:\study\jpeg2000\visually_lossless_jpeg2000\modifiedkakadu\coresys\compressed\compressed.cpp
; File e:\study\jpeg2000\visually_lossless_jpeg2000\modifiedkakadu\coresys\common\kdu_messaging.h
; File e:\study\jpeg2000\visually_lossless_jpeg2000\modifiedkakadu\coresys\compressed\compressed.cpp
;	COMDAT ?augment_free_list@kd_precinct_size_class@@AAEXXZ
_TEXT	SEGMENT
_e$2 = -32						; size = 20
__$EHRec$ = -12						; size = 12
?augment_free_list@kd_precinct_size_class@@AAEXXZ PROC	; kd_precinct_size_class::augment_free_list, COMDAT
; _this$ = ecx

; 6372 : {

	push	ebp
	mov	ebp, esp
	push	-1
	push	__ehhandler$?augment_free_list@kd_precinct_size_class@@AAEXXZ
	mov	eax, DWORD PTR fs:0
	push	eax
	sub	esp, 20					; 00000014H
	push	esi
	push	edi
	mov	eax, DWORD PTR ___security_cookie
	xor	eax, ebp
	push	eax
	lea	eax, DWORD PTR __$EHRec$[ebp]
	mov	DWORD PTR fs:0, eax
	mov	esi, ecx

; 6373 :   kd_precinct *elt = (kd_precinct *) malloc((size_t) alloc_bytes);

	push	DWORD PTR [esi+16]
	call	DWORD PTR __imp__malloc
	mov	edi, eax
	add	esp, 4

; 6374 :   if (elt == NULL)

	test	edi, edi
	jne	SHORT $LN2@augment_fr

; 6375 :     { KDU_ERROR(e,39); e <<

	push	OFFSET ??_C@_0BE@KMIJLGEL@Kakadu?5Core?5Error?3?6?$AA@
	lea	ecx, DWORD PTR _e$2[ebp]
	call	??0kdu_error@@QAE@PBD@Z			; kdu_error::kdu_error
; File e:\study\jpeg2000\visually_lossless_jpeg2000\modifiedkakadu\coresys\common\kdu_messaging.h

; 257  :       { put_text(string); return *this; }

	mov	eax, DWORD PTR _e$2[ebp]
	lea	ecx, DWORD PTR _e$2[ebp]
	push	OFFSET ??_C@_0FI@JEJCBJLM@Heap?5exhausted?4?5?5Unable?5to?5alloc@
; File e:\study\jpeg2000\visually_lossless_jpeg2000\modifiedkakadu\coresys\compressed\compressed.cpp

; 6375 :     { KDU_ERROR(e,39); e <<

	mov	DWORD PTR __$EHRec$[ebp+8], edi
; File e:\study\jpeg2000\visually_lossless_jpeg2000\modifiedkakadu\coresys\common\kdu_messaging.h

; 257  :       { put_text(string); return *this; }

	call	DWORD PTR [eax+8]
; File e:\study\jpeg2000\visually_lossless_jpeg2000\modifiedkakadu\coresys\compressed\compressed.cpp

; 6378 :     }

	lea	ecx, DWORD PTR _e$2[ebp]
	call	??1kdu_error@@UAE@XZ			; kdu_error::~kdu_error
$LN2@augment_fr:

; 6379 :   elt->size_class = this;

	mov	DWORD PTR [edi+52], esi

; 6380 :   elt->next = free_list;

	mov	eax, DWORD PTR [esi+32]
	mov	DWORD PTR [edi+44], eax

; 6381 :   free_list = elt;
; 6382 :   this->total_precincts++;

	add	DWORD PTR [esi+24], 1

; 6383 :   server->total_allocated_bytes += (kdu_long) alloc_bytes;

	mov	ecx, DWORD PTR [esi]
	mov	eax, DWORD PTR [esi+16]
	adc	DWORD PTR [esi+28], 0
	cdq
	mov	DWORD PTR [esi+32], edi
	add	DWORD PTR [ecx+8], eax
	adc	DWORD PTR [ecx+12], edx

; 6384 : }

	mov	ecx, DWORD PTR __$EHRec$[ebp]
	mov	DWORD PTR fs:0, ecx
	pop	ecx
	pop	edi
	pop	esi
	mov	esp, ebp
	pop	ebp
	ret	0
_TEXT	ENDS
;	COMDAT text$x
text$x	SEGMENT
__unwindfunclet$?augment_free_list@kd_precinct_size_class@@AAEXXZ$0:
	lea	ecx, DWORD PTR _e$2[ebp]
	jmp	??1kdu_error@@UAE@XZ			; kdu_error::~kdu_error
__ehhandler$?augment_free_list@kd_precinct_size_class@@AAEXXZ:
	mov	edx, DWORD PTR [esp+8]
	lea	eax, DWORD PTR [edx+12]
	mov	ecx, DWORD PTR [edx-32]
	xor	ecx, eax
	call	@__security_check_cookie@4
	mov	eax, OFFSET __ehfuncinfo$?augment_free_list@kd_precinct_size_class@@AAEXXZ
	jmp	___CxxFrameHandler3
text$x	ENDS
?augment_free_list@kd_precinct_size_class@@AAEXXZ ENDP	; kd_precinct_size_class::augment_free_list
; Function compile flags: /Ogtp
; File e:\study\jpeg2000\visually_lossless_jpeg2000\modifiedkakadu\coresys\compressed\compressed.cpp
;	COMDAT ?withdraw_from_inactive_list@kd_precinct_size_class@@QAEXPAUkd_precinct@@@Z
_TEXT	SEGMENT
_precinct$ = 8						; size = 4
?withdraw_from_inactive_list@kd_precinct_size_class@@QAEXPAUkd_precinct@@@Z PROC ; kd_precinct_size_class::withdraw_from_inactive_list, COMDAT
; _this$ = ecx

; 6409 : {

	push	ebp
	mov	ebp, esp
	push	esi

; 6410 :   assert(precinct->flags & KD_PFLAG_INACTIVE);
; 6411 :   if (precinct->prev == NULL)

	mov	esi, DWORD PTR _precinct$[ebp]
	push	edi
	mov	edi, ecx
	mov	edx, DWORD PTR [esi+48]

; 6412 :     {
; 6413 :       assert(precinct == server->inactive_head);
; 6414 :       server->inactive_head = precinct->next;

	mov	eax, DWORD PTR [esi+44]
	test	edx, edx
	jne	SHORT $LN2@withdraw_f
	mov	edx, DWORD PTR [edi]
	mov	DWORD PTR [edx+16], eax

; 6415 :     }
; 6416 :   else

	jmp	SHORT $LN3@withdraw_f
$LN2@withdraw_f:

; 6417 :     precinct->prev->next = precinct->next;

	mov	DWORD PTR [edx+44], eax
$LN3@withdraw_f:

; 6418 :   if (precinct->next == NULL)

	mov	ecx, DWORD PTR [esi+44]

; 6419 :     {
; 6420 :       assert(precinct == server->inactive_tail);
; 6421 :       server->inactive_tail = precinct->prev;

	mov	eax, DWORD PTR [esi+48]
	test	ecx, ecx
	jne	SHORT $LN4@withdraw_f
	mov	ecx, DWORD PTR [edi]
	mov	DWORD PTR [ecx+20], eax

; 6422 :     }
; 6423 :   else

	jmp	SHORT $LN5@withdraw_f
$LN4@withdraw_f:

; 6424 :     precinct->next->prev = precinct->prev;

	mov	DWORD PTR [ecx+48], eax
$LN5@withdraw_f:

; 6425 :   precinct->flags &= ~KD_PFLAG_INACTIVE;

	and	DWORD PTR [esi+8], -33			; ffffffdfH
	pop	edi

; 6426 :     // precinct->inactive = false;
; 6427 :   precinct->prev = precinct->next = NULL;

	mov	DWORD PTR [esi+44], 0
	mov	DWORD PTR [esi+48], 0
	pop	esi

; 6428 : }

	pop	ebp
	ret	4
?withdraw_from_inactive_list@kd_precinct_size_class@@QAEXPAUkd_precinct@@@Z ENDP ; kd_precinct_size_class::withdraw_from_inactive_list
_TEXT	ENDS
; Function compile flags: /Ogtp
; File e:\study\jpeg2000\visually_lossless_jpeg2000\modifiedkakadu\coresys\compressed\compressed.cpp
;	COMDAT ?move_to_inactive_list@kd_precinct_size_class@@QAEXPAUkd_precinct@@@Z
_TEXT	SEGMENT
_precinct$ = 8						; size = 4
?move_to_inactive_list@kd_precinct_size_class@@QAEXPAUkd_precinct@@@Z PROC ; kd_precinct_size_class::move_to_inactive_list, COMDAT
; _this$ = ecx

; 6392 : {

	push	ebp
	mov	ebp, esp

; 6393 :   assert((precinct->prev == NULL) && (precinct->next == NULL) &&
; 6394 :          !(precinct->flags & KD_PFLAG_INACTIVE));
; 6395 :   precinct->flags |= KD_PFLAG_INACTIVE;

	mov	edx, DWORD PTR _precinct$[ebp]
	or	DWORD PTR [edx+8], 32			; 00000020H

; 6396 :     // precinct->inactive = true;
; 6397 :   if ((precinct->prev = server->inactive_tail) == NULL)

	mov	eax, DWORD PTR [ecx]
	mov	eax, DWORD PTR [eax+20]
	test	eax, eax
	mov	DWORD PTR [edx+48], eax

; 6398 :     server->inactive_head = server->inactive_tail = precinct;

	mov	eax, DWORD PTR [ecx]
	jne	SHORT $LN2@move_to_in
	mov	DWORD PTR [eax+20], edx
	mov	eax, DWORD PTR [ecx]
	mov	DWORD PTR [eax+16], edx

; 6401 : }

	pop	ebp
	ret	4
$LN2@move_to_in:

; 6399 :   else
; 6400 :     server->inactive_tail = server->inactive_tail->next = precinct;

	mov	eax, DWORD PTR [eax+20]
	mov	DWORD PTR [eax+44], edx
	mov	eax, DWORD PTR [ecx]
	mov	DWORD PTR [eax+20], edx

; 6401 : }

	pop	ebp
	ret	4
?move_to_inactive_list@kd_precinct_size_class@@QAEXPAUkd_precinct@@@Z ENDP ; kd_precinct_size_class::move_to_inactive_list
_TEXT	ENDS
; Function compile flags: /Ogtp
; File e:\study\jpeg2000\visually_lossless_jpeg2000\modifiedkakadu\coresys\compressed\compressed_local.h
;	COMDAT ?release@kd_precinct_size_class@@QAEXPAUkd_precinct@@@Z
_TEXT	SEGMENT
_precinct$ = 8						; size = 4
?release@kd_precinct_size_class@@QAEXPAUkd_precinct@@@Z PROC ; kd_precinct_size_class::release, COMDAT
; _this$ = ecx

; 4437 :       {

	push	ebp
	mov	ebp, esp
	push	esi

; 4438 :         if (precinct->flags & KD_PFLAG_INACTIVE)

	mov	esi, DWORD PTR _precinct$[ebp]
	push	edi
	mov	edi, ecx
	test	BYTE PTR [esi+8], 32			; 00000020H
	je	SHORT $LN2@release

; 4439 :           withdraw_from_inactive_list(precinct);

	push	esi
	call	?withdraw_from_inactive_list@kd_precinct_size_class@@QAEXPAUkd_precinct@@@Z ; kd_precinct_size_class::withdraw_from_inactive_list
$LN2@release:

; 4440 :         precinct->next = free_list;

	mov	eax, DWORD PTR [edi+32]
	mov	DWORD PTR [esi+44], eax

; 4441 :         free_list = precinct;
; 4442 :         buf_server->augment_structure_bytes(-alloc_bytes);

	mov	ecx, DWORD PTR [edi+4]
	mov	eax, DWORD PTR [edi+16]
	mov	DWORD PTR [edi+32], esi
	neg	eax
	cdq

; 280  :         structure_bytes += increment; assert(structure_bytes >= 0);

	add	DWORD PTR [ecx+32], eax

; 281  :         if (structure_bytes > peak_structure_bytes)

	mov	eax, DWORD PTR [ecx+32]
	adc	DWORD PTR [ecx+36], edx
	mov	edx, DWORD PTR [ecx+36]
	pop	edi
	pop	esi
	cmp	edx, DWORD PTR [ecx+44]
	jl	SHORT $LN5@release
	jg	SHORT $LN7@release
	cmp	eax, DWORD PTR [ecx+40]
	jbe	SHORT $LN5@release
$LN7@release:

; 282  :           peak_structure_bytes = structure_bytes;

	mov	DWORD PTR [ecx+40], eax
	mov	DWORD PTR [ecx+44], edx
$LN5@release:

; 4443 :       }

	pop	ebp
	ret	4
?release@kd_precinct_size_class@@QAEXPAUkd_precinct@@@Z ENDP ; kd_precinct_size_class::release
_TEXT	ENDS
; Function compile flags: /Ogtp
; File e:\study\jpeg2000\visually_lossless_jpeg2000\modifiedkakadu\coresys\compressed\compressed_local.h
;	COMDAT ?get@kd_precinct_size_class@@QAEPAUkd_precinct@@XZ
_TEXT	SEGMENT
?get@kd_precinct_size_class@@QAEPAUkd_precinct@@XZ PROC	; kd_precinct_size_class::get, COMDAT
; _this$ = ecx

; 4428 :       {

	push	esi
	mov	esi, ecx
	push	edi

; 4429 :         if (free_list == NULL)

	cmp	DWORD PTR [esi+32], 0
	jne	SHORT $LN2@get

; 4430 :           augment_free_list();

	call	?augment_free_list@kd_precinct_size_class@@AAEXXZ ; kd_precinct_size_class::augment_free_list
$LN2@get:

; 4431 :         kd_precinct *result = free_list; free_list = free_list->next;

	mov	edi, DWORD PTR [esi+32]
	mov	eax, DWORD PTR [edi+44]
	mov	DWORD PTR [esi+32], eax

; 4432 :         result->next = result->prev = NULL;

	mov	DWORD PTR [edi+48], 0
	mov	DWORD PTR [edi+44], 0

; 4433 :         buf_server->augment_structure_bytes(alloc_bytes);

	mov	ecx, DWORD PTR [esi+4]
	mov	eax, DWORD PTR [esi+16]
	cdq

; 280  :         structure_bytes += increment; assert(structure_bytes >= 0);

	add	DWORD PTR [ecx+32], eax

; 281  :         if (structure_bytes > peak_structure_bytes)

	mov	eax, DWORD PTR [ecx+32]
	adc	DWORD PTR [ecx+36], edx
	mov	edx, DWORD PTR [ecx+36]
	cmp	edx, DWORD PTR [ecx+44]
	jl	SHORT $LN9@get
	jg	SHORT $LN7@get
	cmp	eax, DWORD PTR [ecx+40]
	jbe	SHORT $LN9@get
$LN7@get:

; 282  :           peak_structure_bytes = structure_bytes;

	mov	DWORD PTR [ecx+40], eax
	mov	DWORD PTR [ecx+44], edx
$LN9@get:

; 4434 :         return result;

	mov	eax, edi
	pop	edi
	pop	esi

; 4435 :       }

	ret	0
?get@kd_precinct_size_class@@QAEPAUkd_precinct@@XZ ENDP	; kd_precinct_size_class::get
_TEXT	ENDS
; Function compile flags: /Ogtp
; File e:\study\jpeg2000\visually_lossless_jpeg2000\modifiedkakadu\coresys\compressed\compressed_local.h
;	COMDAT ??0kd_precinct_size_class@@QAE@HHPAVkd_precinct_server@@PAVkd_buf_server@@@Z
_TEXT	SEGMENT
_max_blocks$ = 8					; size = 4
_num_subbands$ = 12					; size = 4
_server$ = 16						; size = 4
_buf_server$ = 20					; size = 4
??0kd_precinct_size_class@@QAE@HHPAVkd_precinct_server@@PAVkd_buf_server@@@Z PROC ; kd_precinct_size_class::kd_precinct_size_class, COMDAT
; _this$ = ecx

; 4407 :     kd_precinct_size_class(int max_blocks, int num_subbands,

	push	ebp
	mov	ebp, esp

; 4408 :                            kd_precinct_server *server,
; 4409 :                            kd_buf_server *buf_server)
; 4410 :       {
; 4411 :         this->max_blocks = max_blocks;
; 4412 :         this->num_subbands = num_subbands;

	mov	edx, DWORD PTR _num_subbands$[ebp]

; 4413 :         this->server = server;  this->buf_server = buf_server;

	mov	eax, DWORD PTR _server$[ebp]
	push	esi
	mov	esi, DWORD PTR _max_blocks$[ebp]
	push	edi
	mov	edi, ecx
	mov	DWORD PTR [edi], eax
	mov	eax, DWORD PTR _buf_server$[ebp]
	mov	DWORD PTR [edi+4], eax

; 4414 :         total_precincts = 0; free_list = NULL; next = NULL;
; 4415 :         alloc_bytes = (int) sizeof(kd_precinct);
; 4416 :         alloc_bytes += (-alloc_bytes) & 7; // Round up to 8-byte boundary
; 4417 :         alloc_bytes += num_subbands * (int) sizeof(kd_precinct_band);

	lea	eax, DWORD PTR [edx+edx*2]
	lea	ecx, DWORD PTR [eax*8+56]
	mov	DWORD PTR [edi+12], edx

; 4418 :         alloc_bytes += (-alloc_bytes) & 7; // Round up to 8-byte boundary

	mov	edx, ecx
	mov	DWORD PTR [edi+8], esi
	neg	edx
	mov	DWORD PTR [edi+24], 0
	and	edx, 7
	mov	DWORD PTR [edi+28], 0

; 4419 :         alloc_bytes += 4 + max_blocks * (int) sizeof(kd_block);

	lea	eax, DWORD PTR [esi+esi*2]
	mov	DWORD PTR [edi+32], 0
	lea	eax, DWORD PTR [eax*8+4]
	mov	DWORD PTR [edi+36], 0
	add	edx, ecx
	add	eax, edx
	mov	DWORD PTR [edi+16], eax

; 4420 :       }

	mov	eax, edi
	pop	edi
	pop	esi
	pop	ebp
	ret	16					; 00000010H
??0kd_precinct_size_class@@QAE@HHPAVkd_precinct_server@@PAVkd_buf_server@@@Z ENDP ; kd_precinct_size_class::kd_precinct_size_class
_TEXT	ENDS
; Function compile flags: /Ogtp
; File e:\study\jpeg2000\visually_lossless_jpeg2000\modifiedkakadu\coresys\compressed\compressed.cpp
; File e:\study\jpeg2000\visually_lossless_jpeg2000\modifiedkakadu\coresys\common\kdu_messaging.h
; File e:\study\jpeg2000\visually_lossless_jpeg2000\modifiedkakadu\coresys\compressed\compressed.cpp
; File e:\study\jpeg2000\visually_lossless_jpeg2000\modifiedkakadu\coresys\common\kdu_messaging.h
; File e:\study\jpeg2000\visually_lossless_jpeg2000\modifiedkakadu\coresys\compressed\compressed.cpp
; File e:\study\jpeg2000\visually_lossless_jpeg2000\modifiedkakadu\coresys\compressed\compressed_local.h
; File e:\study\jpeg2000\visually_lossless_jpeg2000\modifiedkakadu\coresys\compressed\compressed.cpp
; File e:\study\jpeg2000\visually_lossless_jpeg2000\modifiedkakadu\coresys\compressed\compressed_local.h
; File e:\study\jpeg2000\visually_lossless_jpeg2000\modifiedkakadu\coresys\compressed\compressed.cpp
;	COMDAT ?handle_corrupt_packet@kd_precinct@@AAE_NXZ
_TEXT	SEGMENT
_e$2 = -36						; size = 20
_this$1$ = -16						; size = 4
__$EHRec$ = -12						; size = 12
?handle_corrupt_packet@kd_precinct@@AAE_NXZ PROC	; kd_precinct::handle_corrupt_packet, COMDAT
; _this$ = ecx

; 5756 : {

	push	ebp
	mov	ebp, esp
	push	-1
	push	__ehhandler$?handle_corrupt_packet@kd_precinct@@AAE_NXZ
	mov	eax, DWORD PTR fs:0
	push	eax
	sub	esp, 24					; 00000018H
	push	ebx
	push	esi
	push	edi
	mov	eax, DWORD PTR ___security_cookie
	xor	eax, ebp
	push	eax
	lea	eax, DWORD PTR __$EHRec$[ebp]
	mov	DWORD PTR fs:0, eax
	mov	DWORD PTR _this$1$[ebp], ecx

; 5757 :   if (flags & KD_PFLAG_ADDRESSABLE)

	test	BYTE PTR [ecx+8], 8
	je	SHORT $LN8@handle_cor

; 5758 :     { KDU_ERROR(e,36); e <<

	push	OFFSET ??_C@_0BE@KMIJLGEL@Kakadu?5Core?5Error?3?6?$AA@
	lea	ecx, DWORD PTR _e$2[ebp]
	call	??0kdu_error@@QAE@PBD@Z			; kdu_error::kdu_error
; File e:\study\jpeg2000\visually_lossless_jpeg2000\modifiedkakadu\coresys\common\kdu_messaging.h

; 257  :       { put_text(string); return *this; }

	mov	eax, DWORD PTR _e$2[ebp]
	lea	ecx, DWORD PTR _e$2[ebp]
	push	OFFSET ??_C@_0BEO@PKHFIGLM@Encountered?5a?5corrupted?5packet?5w@
; File e:\study\jpeg2000\visually_lossless_jpeg2000\modifiedkakadu\coresys\compressed\compressed.cpp

; 5758 :     { KDU_ERROR(e,36); e <<

	mov	DWORD PTR __$EHRec$[ebp+8], 0
; File e:\study\jpeg2000\visually_lossless_jpeg2000\modifiedkakadu\coresys\common\kdu_messaging.h

; 257  :       { put_text(string); return *this; }

	call	DWORD PTR [eax+8]
; File e:\study\jpeg2000\visually_lossless_jpeg2000\modifiedkakadu\coresys\compressed\compressed.cpp

; 5765 :     }

	lea	ecx, DWORD PTR _e$2[ebp]
	mov	DWORD PTR __$EHRec$[ebp+8], -1
	call	??1kdu_error@@UAE@XZ			; kdu_error::~kdu_error
	mov	ecx, DWORD PTR _this$1$[ebp]
$LN8@handle_cor:

; 5766 : 
; 5767 :   kd_tile *tile = resolution->tile_comp->tile;

	mov	eax, DWORD PTR [ecx]
	mov	eax, DWORD PTR [eax+4]
	mov	esi, DWORD PTR [eax+4]

; 5768 :   kd_codestream *codestream = tile->codestream;

	mov	edi, DWORD PTR [esi]

; 5769 :   bool expect_large_gap = !codestream->expect_ubiquitous_sops;

	cmp	BYTE PTR [edi+333], 0
	sete	bh

; 5774 : 
; 5775 :   flags |= KD_PFLAG_CORRUPTED;

	or	DWORD PTR [ecx+8], 2
$LN74@handle_cor:

; 5770 :       // It is reasonable to expect large (unbounded) gaps between valid
; 5771 :       // SOP marker sequence numbers if SOP markers are not known to be
; 5772 :       // in front of every packet.
; 5773 :   bool confirm_large_gap = expect_large_gap;

	mov	bl, bh
	npad	1
$LL4@handle_cor:

; 5776 :     // corrupted = true;
; 5777 :   do { // Read up to next valid SOP marker, if this has not already been done.
; 5778 :       if (!tile->skipping_to_sop)

	cmp	BYTE PTR [esi+256], 0
	jne	SHORT $LN9@handle_cor
	npad	7
$LL7@handle_cor:

; 5779 :         { // Need to read next SOP marker.
; 5780 :           do {
; 5781 :               if (!codestream->marker->read(true,true))

	mov	ecx, DWORD PTR [edi+16]
	push	1
	push	1
	call	?read@kd_marker@@QAE_N_N0@Z		; kd_marker::read
	test	al, al
	je	$LN58@handle_cor

; 5786 :                 }
; 5787 :               if (codestream->marker->get_code() == KDU_SOT)

	mov	eax, DWORD PTR [edi+16]
	mov	ecx, 65424				; 0000ff90H
	movzx	eax, WORD PTR [eax+8]
	cmp	ax, cx
	je	$LN60@handle_cor

; 5792 :                 }
; 5793 :             } while (codestream->marker->get_code() != KDU_SOP);

	mov	ecx, 65425				; 0000ff91H
	cmp	ax, cx
	jne	SHORT $LL7@handle_cor

; 5794 :           tile->next_sop_sequence_num = codestream->marker->get_bytes()[0];

	mov	eax, DWORD PTR [edi+16]
	mov	eax, DWORD PTR [eax+20]
	movzx	ecx, BYTE PTR [eax]

; 5795 :           tile->next_sop_sequence_num<<=8;

	shl	ecx, 8
	mov	DWORD PTR [esi+260], ecx

; 5796 :           tile->next_sop_sequence_num += codestream->marker->get_bytes()[1];

	mov	eax, DWORD PTR [edi+16]
	mov	eax, DWORD PTR [eax+20]
	movzx	eax, BYTE PTR [eax+1]
	add	eax, ecx

; 5797 :           tile->skipping_to_sop = true;

	mov	BYTE PTR [esi+256], 1
	mov	DWORD PTR [esi+260], eax
$LN9@handle_cor:

; 438  :   int diff = sop_num - packet_num;

	mov	ecx, DWORD PTR [esi+260]
	mov	eax, ecx
	sub	eax, DWORD PTR [esi+252]

; 439  : 
; 440  :   if ((diff & 0x0000FFFF) == 0)

	movzx	edx, ax
	test	edx, edx
	je	$LN66@handle_cor

; 441  :     return 0;
; 442  :   if ((diff > 0) || ((diff & 0x0000FFFF) <= (1<<15)))

	test	eax, eax
	jg	SHORT $LN42@handle_cor
	cmp	edx, 32768				; 00008000H

; 444  :   else
; 445  :     return diff-(1<<16); // `sop_num' deemed to be less than `packet_num'.

	lea	edx, DWORD PTR [eax-65536]
	jg	SHORT $LN41@handle_cor
$LN42@handle_cor:

; 443  :     return diff; // `sop_num' deemed to be greater than `packet_num'.

	mov	edx, eax
$LN41@handle_cor:

; 5798 :         }
; 5799 :       assert(tile->skipping_to_sop);
; 5800 :       if (compare_sop_num(tile->next_sop_sequence_num,
; 5801 :                           tile->next_input_packet_num) <= 0)

	test	edx, edx
	jle	$LN66@handle_cor

; 439  : 
; 440  :   if ((diff & 0x0000FFFF) == 0)

	movzx	edx, ax
	test	edx, edx
	je	SHORT $LN14@handle_cor

; 441  :     return 0;
; 442  :   if ((diff > 0) || ((diff & 0x0000FFFF) <= (1<<15)))

	test	eax, eax
	jg	SHORT $LN47@handle_cor
	cmp	edx, 32768				; 00008000H
	jle	SHORT $LN47@handle_cor

; 444  :   else
; 445  :     return diff-(1<<16); // `sop_num' deemed to be less than `packet_num'.

	add	eax, -65536				; ffff0000H
$LN47@handle_cor:

; 5807 :                                 tile->next_input_packet_num) > 3) &&

	cmp	eax, 3
	jle	SHORT $LN14@handle_cor
	test	bl, bl
	jne	SHORT $LN14@handle_cor

; 5808 :                !confirm_large_gap)
; 5809 :         { // Unwilling to skip so many packets without confirmation that
; 5810 :           // the SOP sequence number itself has not been corrupted.
; 5811 :           tile->skipping_to_sop = false; // Skip another one to make sure.

	mov	BYTE PTR [esi+256], bl

; 5812 :           confirm_large_gap = true;

	mov	bl, 1

; 5813 :         }
; 5814 :       else if (compare_sop_num(tile->next_sop_sequence_num,

	jmp	$LL4@handle_cor
$LN14@handle_cor:

; 5815 :                                (int)(tile->total_precincts*tile->num_layers))
; 5816 :                                >= 0)

	mov	eax, DWORD PTR [esi+144]
	imul	eax, DWORD PTR [esi+132]

; 438  :   int diff = sop_num - packet_num;

	sub	ecx, eax

; 439  : 
; 440  :   if ((diff & 0x0000FFFF) == 0)

	movzx	eax, cx
	test	eax, eax
	je	SHORT $LN66@handle_cor

; 441  :     return 0;
; 442  :   if ((diff > 0) || ((diff & 0x0000FFFF) <= (1<<15)))

	test	ecx, ecx
	jg	SHORT $LN72@handle_cor
	cmp	eax, 32768				; 00008000H
	jle	SHORT $LN53@handle_cor

; 444  :   else
; 445  :     return diff-(1<<16); // `sop_num' deemed to be less than `packet_num'.

	add	ecx, -65536				; ffff0000H
$LN53@handle_cor:

; 5815 :                                (int)(tile->total_precincts*tile->num_layers))
; 5816 :                                >= 0)

	test	ecx, ecx
$LN72@handle_cor:
	jns	SHORT $LN66@handle_cor

; 5817 :         { // Assume that the SOP marker itself has a corrupt sequence number
; 5818 :           tile->skipping_to_sop = false; // Force hunt for another SOP marker.
; 5819 :           confirm_large_gap = expect_large_gap;
; 5820 :         }
; 5821 :     } while (!tile->skipping_to_sop);

	cmp	BYTE PTR [esi+256], 0
	je	$LL7@handle_cor

; 5822 : 
; 5823 :   // Update state to indicate a transferred packet.
; 5824 :   assert(num_packets_read < tile->num_layers);
; 5825 :   num_packets_read++;

	mov	eax, DWORD PTR _this$1$[ebp]
	inc	DWORD PTR [eax+20]

; 5826 :   return true;

	mov	al, 1

; 5827 : }

	mov	ecx, DWORD PTR __$EHRec$[ebp]
	mov	DWORD PTR fs:0, ecx
	pop	ecx
	pop	edi
	pop	esi
	pop	ebx
	mov	esp, ebp
	pop	ebp
	ret	0
$LN66@handle_cor:

; 5802 :         { // If equal, the SOP marker must be for a previously corrupt precinct
; 5803 :           tile->skipping_to_sop = false; // Force hunt for another SOP marker.

	mov	BYTE PTR [esi+256], 0

; 5804 :           confirm_large_gap = expect_large_gap;
; 5805 :         }
; 5806 :       else if ((compare_sop_num(tile->next_sop_sequence_num,

	jmp	$LN74@handle_cor
$LN60@handle_cor:

; 5788 :                 { // We have encountered the end of the current tile-part.
; 5789 :                   codestream->active_tile = NULL;

	mov	DWORD PTR [edi+364], 0
; File e:\study\jpeg2000\visually_lossless_jpeg2000\modifiedkakadu\coresys\compressed\compressed_local.h

; 2743 :         if ((!codestream->persistent) ||

	mov	eax, DWORD PTR [esi]
	cmp	BYTE PTR [eax+337], 0
	je	SHORT $LN29@handle_cor
	cmp	DWORD PTR [eax+36], 0
	jne	SHORT $LN24@handle_cor
	cmp	BYTE PTR [eax+338], 0
	je	SHORT $LN29@handle_cor
$LN24@handle_cor:

; 2744 :             ((codestream->tpart_ptr_server==NULL) && !codestream->cached))
; 2745 :           { assert(!is_unloadable); return; }
; 2746 :         if (is_open || (this==codestream->active_tile))

	cmp	BYTE PTR [esi+229], 0
	jne	SHORT $LN28@handle_cor
	cmp	esi, DWORD PTR [eax+364]
	je	SHORT $LN28@handle_cor

; 2750 :           }
; 2751 :         else
; 2752 :           { // Should be on the unloadable list
; 2753 :             if (!is_unloadable)

	cmp	BYTE PTR [esi+230], 0
	jne	SHORT $LN29@handle_cor

; 2754 :               add_to_unloadable_list();

	mov	ecx, esi
	call	?add_to_unloadable_list@kd_tile@@AAEXXZ	; kd_tile::add_to_unloadable_list
; File e:\study\jpeg2000\visually_lossless_jpeg2000\modifiedkakadu\coresys\compressed\compressed.cpp

; 5791 :                   return false;

	xor	al, al

; 5827 : }

	mov	ecx, DWORD PTR __$EHRec$[ebp]
	mov	DWORD PTR fs:0, ecx
	pop	ecx
	pop	edi
	pop	esi
	pop	ebx
	mov	esp, ebp
	pop	ebp
	ret	0
$LN28@handle_cor:
; File e:\study\jpeg2000\visually_lossless_jpeg2000\modifiedkakadu\coresys\compressed\compressed_local.h

; 2748 :             if (is_unloadable)

	cmp	BYTE PTR [esi+230], 0
	je	SHORT $LN29@handle_cor

; 2749 :               withdraw_from_unloadable_list();

	mov	ecx, esi
	call	?withdraw_from_unloadable_list@kd_tile@@AAEXXZ ; kd_tile::withdraw_from_unloadable_list
$LN29@handle_cor:
; File e:\study\jpeg2000\visually_lossless_jpeg2000\modifiedkakadu\coresys\compressed\compressed.cpp

; 5791 :                   return false;

	xor	al, al

; 5827 : }

	mov	ecx, DWORD PTR __$EHRec$[ebp]
	mov	DWORD PTR fs:0, ecx
	pop	ecx
	pop	edi
	pop	esi
	pop	ebx
	mov	esp, ebp
	pop	ebp
	ret	0
$LN58@handle_cor:

; 5782 :                 { // Must have exhausted the code-stream.
; 5783 :                   assert(codestream->in->failed());
; 5784 :                   tile->finished_reading();

	mov	ecx, esi
	call	?finished_reading@kd_tile@@QAE_NXZ	; kd_tile::finished_reading

; 5785 :                   return false;

	xor	al, al

; 5827 : }

	mov	ecx, DWORD PTR __$EHRec$[ebp]
	mov	DWORD PTR fs:0, ecx
	pop	ecx
	pop	edi
	pop	esi
	pop	ebx
	mov	esp, ebp
	pop	ebp
	ret	0
_TEXT	ENDS
;	COMDAT text$x
text$x	SEGMENT
__unwindfunclet$?handle_corrupt_packet@kd_precinct@@AAE_NXZ$0:
	lea	ecx, DWORD PTR _e$2[ebp]
	jmp	??1kdu_error@@UAE@XZ			; kdu_error::~kdu_error
__ehhandler$?handle_corrupt_packet@kd_precinct@@AAE_NXZ:
	mov	edx, DWORD PTR [esp+8]
	lea	eax, DWORD PTR [edx+12]
	mov	ecx, DWORD PTR [edx-40]
	xor	ecx, eax
	call	@__security_check_cookie@4
	mov	eax, OFFSET __ehfuncinfo$?handle_corrupt_packet@kd_precinct@@AAE_NXZ
	jmp	___CxxFrameHandler3
text$x	ENDS
?handle_corrupt_packet@kd_precinct@@AAE_NXZ ENDP	; kd_precinct::handle_corrupt_packet
; Function compile flags: /Ogtp
; File e:\study\jpeg2000\visually_lossless_jpeg2000\modifiedkakadu\coresys\compressed\compressed.cpp
; File e:\study\jpeg2000\visually_lossless_jpeg2000\modifiedkakadu\coresys\compressed\compressed_local.h
; File e:\study\jpeg2000\visually_lossless_jpeg2000\modifiedkakadu\coresys\compressed\compressed.cpp
; File e:\study\jpeg2000\visually_lossless_jpeg2000\modifiedkakadu\coresys\compressed\compressed_local.h
; File e:\study\jpeg2000\visually_lossless_jpeg2000\modifiedkakadu\coresys\compressed\compressed.cpp
; File e:\study\jpeg2000\visually_lossless_jpeg2000\modifiedkakadu\coresys\compressed\compressed_local.h
; File e:\study\jpeg2000\visually_lossless_jpeg2000\modifiedkakadu\coresys\compressed\compressed.cpp
; File e:\study\jpeg2000\visually_lossless_jpeg2000\modifiedkakadu\coresys\common\kdu_messaging.h
; File e:\study\jpeg2000\visually_lossless_jpeg2000\modifiedkakadu\coresys\compressed\compressed.cpp
; File e:\study\jpeg2000\visually_lossless_jpeg2000\modifiedkakadu\coresys\common\kdu_messaging.h
; File e:\study\jpeg2000\visually_lossless_jpeg2000\modifiedkakadu\coresys\compressed\compressed.cpp
; File e:\study\jpeg2000\visually_lossless_jpeg2000\modifiedkakadu\coresys\common\kdu_messaging.h
; File e:\study\jpeg2000\visually_lossless_jpeg2000\modifiedkakadu\coresys\compressed\compressed.cpp
; File e:\study\jpeg2000\visually_lossless_jpeg2000\modifiedkakadu\coresys\common\kdu_messaging.h
; File e:\study\jpeg2000\visually_lossless_jpeg2000\modifiedkakadu\coresys\compressed\compressed.cpp
; File e:\study\jpeg2000\visually_lossless_jpeg2000\modifiedkakadu\coresys\common\kdu_messaging.h
; File e:\study\jpeg2000\visually_lossless_jpeg2000\modifiedkakadu\coresys\compressed\compressed.cpp
; File e:\study\jpeg2000\visually_lossless_jpeg2000\modifiedkakadu\coresys\common\kdu_messaging.h
; File e:\study\jpeg2000\visually_lossless_jpeg2000\modifiedkakadu\coresys\compressed\compressed.cpp
; File e:\study\jpeg2000\visually_lossless_jpeg2000\modifiedkakadu\coresys\compressed\compressed_local.h
; File e:\study\jpeg2000\visually_lossless_jpeg2000\modifiedkakadu\coresys\common\kdu_messaging.h
; File e:\study\jpeg2000\visually_lossless_jpeg2000\modifiedkakadu\coresys\compressed\compressed_local.h
; File e:\study\jpeg2000\visually_lossless_jpeg2000\modifiedkakadu\coresys\common\kdu_messaging.h
; File e:\study\jpeg2000\visually_lossless_jpeg2000\modifiedkakadu\coresys\compressed\compressed.cpp
; File e:\study\jpeg2000\visually_lossless_jpeg2000\modifiedkakadu\coresys\compressed\compressed_local.h
; File e:\study\jpeg2000\visually_lossless_jpeg2000\modifiedkakadu\coresys\compressed\compressed.cpp
; File e:\study\jpeg2000\visually_lossless_jpeg2000\modifiedkakadu\coresys\compressed\compressed_local.h
; File e:\study\jpeg2000\visually_lossless_jpeg2000\modifiedkakadu\coresys\compressed\compressed.cpp
; File e:\study\jpeg2000\visually_lossless_jpeg2000\modifiedkakadu\coresys\compressed\compressed_local.h
; File e:\study\jpeg2000\visually_lossless_jpeg2000\modifiedkakadu\coresys\compressed\compressed.cpp
; File e:\study\jpeg2000\visually_lossless_jpeg2000\modifiedkakadu\coresys\common\kdu_messaging.h
; File e:\study\jpeg2000\visually_lossless_jpeg2000\modifiedkakadu\coresys\compressed\compressed.cpp
; File e:\study\jpeg2000\visually_lossless_jpeg2000\modifiedkakadu\coresys\common\kdu_messaging.h
; File e:\study\jpeg2000\visually_lossless_jpeg2000\modifiedkakadu\coresys\compressed\compressed.cpp
; File e:\study\jpeg2000\visually_lossless_jpeg2000\modifiedkakadu\coresys\common\kdu_messaging.h
; File e:\study\jpeg2000\visually_lossless_jpeg2000\modifiedkakadu\coresys\compressed\compressed.cpp
; File e:\study\jpeg2000\visually_lossless_jpeg2000\modifiedkakadu\coresys\common\kdu_messaging.h
; File e:\study\jpeg2000\visually_lossless_jpeg2000\modifiedkakadu\coresys\compressed\compressed.cpp
; File e:\study\jpeg2000\visually_lossless_jpeg2000\modifiedkakadu\coresys\common\kdu_messaging.h
; File e:\study\jpeg2000\visually_lossless_jpeg2000\modifiedkakadu\coresys\compressed\compressed.cpp
; File e:\study\jpeg2000\visually_lossless_jpeg2000\modifiedkakadu\coresys\common\kdu_messaging.h
; File e:\study\jpeg2000\visually_lossless_jpeg2000\modifiedkakadu\coresys\compressed\compressed.cpp
; File e:\study\jpeg2000\visually_lossless_jpeg2000\modifiedkakadu\coresys\common\kdu_messaging.h
; File e:\study\jpeg2000\visually_lossless_jpeg2000\modifiedkakadu\coresys\compressed\compressed.cpp
; File e:\study\jpeg2000\visually_lossless_jpeg2000\modifiedkakadu\coresys\common\kdu_messaging.h
; File e:\study\jpeg2000\visually_lossless_jpeg2000\modifiedkakadu\coresys\compressed\compressed.cpp
; File e:\study\jpeg2000\visually_lossless_jpeg2000\modifiedkakadu\coresys\compressed\compressed_local.h
; File e:\study\jpeg2000\visually_lossless_jpeg2000\modifiedkakadu\coresys\compressed\compressed.cpp
; File e:\study\jpeg2000\visually_lossless_jpeg2000\modifiedkakadu\coresys\common\kdu_messaging.h
; File e:\study\jpeg2000\visually_lossless_jpeg2000\modifiedkakadu\coresys\compressed\compressed.cpp
; File e:\study\jpeg2000\visually_lossless_jpeg2000\modifiedkakadu\coresys\common\kdu_messaging.h
; File e:\study\jpeg2000\visually_lossless_jpeg2000\modifiedkakadu\coresys\compressed\compressed.cpp
; File e:\study\jpeg2000\visually_lossless_jpeg2000\modifiedkakadu\coresys\common\kdu_messaging.h
; File e:\study\jpeg2000\visually_lossless_jpeg2000\modifiedkakadu\coresys\compressed\compressed.cpp
; File e:\study\jpeg2000\visually_lossless_jpeg2000\modifiedkakadu\coresys\common\kdu_messaging.h
; File e:\study\jpeg2000\visually_lossless_jpeg2000\modifiedkakadu\coresys\compressed\compressed.cpp
; File e:\study\jpeg2000\visually_lossless_jpeg2000\modifiedkakadu\coresys\common\kdu_messaging.h
; File e:\study\jpeg2000\visually_lossless_jpeg2000\modifiedkakadu\coresys\compressed\compressed.cpp
; File e:\study\jpeg2000\visually_lossless_jpeg2000\modifiedkakadu\coresys\common\kdu_messaging.h
; File e:\study\jpeg2000\visually_lossless_jpeg2000\modifiedkakadu\coresys\compressed\compressed.cpp
; File e:\study\jpeg2000\visually_lossless_jpeg2000\modifiedkakadu\coresys\compressed\compressed_local.h
; File e:\study\jpeg2000\visually_lossless_jpeg2000\modifiedkakadu\coresys\compressed\compressed.cpp
; File e:\study\jpeg2000\visually_lossless_jpeg2000\modifiedkakadu\coresys\compressed\compressed_local.h
; File e:\study\jpeg2000\visually_lossless_jpeg2000\modifiedkakadu\coresys\compressed\compressed.cpp
; File e:\study\jpeg2000\visually_lossless_jpeg2000\modifiedkakadu\coresys\compressed\compressed_local.h
; File e:\study\jpeg2000\visually_lossless_jpeg2000\modifiedkakadu\coresys\compressed\compressed.cpp
; File e:\study\jpeg2000\visually_lossless_jpeg2000\modifiedkakadu\coresys\compressed\compressed_local.h
; File e:\study\jpeg2000\visually_lossless_jpeg2000\modifiedkakadu\coresys\compressed\compressed.cpp
; File e:\study\jpeg2000\visually_lossless_jpeg2000\modifiedkakadu\coresys\compressed\compressed_local.h
; File e:\study\jpeg2000\visually_lossless_jpeg2000\modifiedkakadu\coresys\compressed\compressed.cpp
; File e:\study\jpeg2000\visually_lossless_jpeg2000\modifiedkakadu\coresys\compressed\compressed_local.h
; File e:\study\jpeg2000\visually_lossless_jpeg2000\modifiedkakadu\coresys\compressed\compressed.cpp
; File e:\study\jpeg2000\visually_lossless_jpeg2000\modifiedkakadu\coresys\common\kdu_messaging.h
; File e:\study\jpeg2000\visually_lossless_jpeg2000\modifiedkakadu\coresys\compressed\compressed.cpp
; File e:\study\jpeg2000\visually_lossless_jpeg2000\modifiedkakadu\coresys\common\kdu_messaging.h
; File e:\study\jpeg2000\visually_lossless_jpeg2000\modifiedkakadu\coresys\compressed\compressed.cpp
; File e:\study\jpeg2000\visually_lossless_jpeg2000\modifiedkakadu\coresys\common\kdu_messaging.h
; File e:\study\jpeg2000\visually_lossless_jpeg2000\modifiedkakadu\coresys\compressed\compressed.cpp
; File e:\study\jpeg2000\visually_lossless_jpeg2000\modifiedkakadu\coresys\common\kdu_messaging.h
; File e:\study\jpeg2000\visually_lossless_jpeg2000\modifiedkakadu\coresys\compressed\compressed.cpp
; File e:\study\jpeg2000\visually_lossless_jpeg2000\modifiedkakadu\coresys\compressed\compressed_local.h
; File e:\study\jpeg2000\visually_lossless_jpeg2000\modifiedkakadu\coresys\compressed\compressed.cpp
; File e:\study\jpeg2000\visually_lossless_jpeg2000\modifiedkakadu\coresys\compressed\compressed_local.h
; File e:\study\jpeg2000\visually_lossless_jpeg2000\modifiedkakadu\coresys\compressed\compressed.cpp
; File e:\study\jpeg2000\visually_lossless_jpeg2000\modifiedkakadu\coresys\common\kdu_messaging.h
; File e:\study\jpeg2000\visually_lossless_jpeg2000\modifiedkakadu\coresys\compressed\compressed.cpp
; File e:\study\jpeg2000\visually_lossless_jpeg2000\modifiedkakadu\coresys\common\kdu_messaging.h
; File e:\study\jpeg2000\visually_lossless_jpeg2000\modifiedkakadu\coresys\compressed\compressed.cpp
;	COMDAT ?read_packet@kd_precinct@@AAE_NXZ
_TEXT	SEGMENT
_e$2 = -136						; size = 20
_e$3 = -116						; size = 20
_e$4 = -116						; size = 20
_e$5 = -116						; size = 20
_e$6 = -116						; size = 20
_e$7 = -116						; size = 20
_e$8 = -116						; size = 20
_e$9 = -116						; size = 20
_e$10 = -116						; size = 20
_e$11 = -116						; size = 20
_e$12 = -116						; size = 20
_header$ = -96						; size = 16
_body_bytes$ = -80					; size = 8
_code$13 = -72						; size = 2
_code$14 = -68						; size = 2
_pband$1$ = -64						; size = 4
tv1373 = -64						; size = 4
_addr$1$ = -60						; size = 4
_b$1$ = -56						; size = 4
_pband$1$ = -56						; size = 4
tv1238 = -56						; size = 4
_buf_server$1$ = -52					; size = 4
_b$1$ = -52						; size = 4
_m$1$ = -48						; size = 4
_m$1$ = -48						; size = 4
_comp$ = -44						; size = 4
_codestream$ = -40					; size = 4
_n$1$ = -36						; size = 4
_seek_marker$ = -36					; size = 1
_header_source$ = -36					; size = 4
_header_bytes$ = -32					; size = 4
_this$ = -28						; size = 4
_tile$ = -24						; size = 4
_use_sop$1$ = -19					; size = 1
$T15 = -19						; size = 1
$T16 = -19						; size = 1
_byte$17 = -18						; size = 1
_use_eph$ = -18						; size = 1
_tpart_ends$1$ = -17					; size = 1
_suspend$ = -17						; size = 1
__$EHRec$ = -16						; size = 16
?read_packet@kd_precinct@@AAE_NXZ PROC			; kd_precinct::read_packet, COMDAT
; _this$ = ecx

; 5435 : {

	push	ebp
	mov	ebp, esp
	push	-1
	push	__ehhandler$?read_packet@kd_precinct@@AAE_NXZ
	mov	eax, DWORD PTR fs:0
	push	eax
	sub	esp, 124				; 0000007cH
	push	ebx
	push	esi
	push	edi
	mov	eax, DWORD PTR ___security_cookie
	xor	eax, ebp
	push	eax
	lea	eax, DWORD PTR __$EHRec$[ebp+4]
	mov	DWORD PTR fs:0, eax
	mov	DWORD PTR __$EHRec$[ebp], esp
	mov	esi, ecx
	mov	DWORD PTR _this$[ebp], esi

; 5436 :   if (num_packets_read < 0)

	cmp	DWORD PTR [esi+20], 0
	jl	$LN38@read_packe

; 5437 :     {
; 5438 :       assert(flags & KD_PFLAG_ADDRESSABLE);
; 5439 :       return false; // Saves excessive processing for addressable precincts
; 5440 :                     // with missing packets
; 5441 :     }
; 5442 : 
; 5443 :   kd_codestream *codestream = resolution->codestream;

	mov	eax, DWORD PTR [esi]

; 5444 :   kd_tile_comp *comp = resolution->tile_comp;
; 5445 :   kd_tile *tile = comp->tile;
; 5446 :   assert(num_packets_read < tile->num_layers);
; 5447 :   assert((flags & KD_PFLAG_ADDRESSABLE) || (tile == codestream->active_tile));
; 5448 : 
; 5449 :   bool use_sop = resolution->tile_comp->tile->use_sop;
; 5450 :   bool use_eph = resolution->tile_comp->tile->use_eph;
; 5451 :   bool tpart_ends = false;

	xor	dh, dh
	mov	BYTE PTR _tpart_ends$1$[ebp], dh
	mov	ebx, DWORD PTR [eax]
	mov	eax, DWORD PTR [eax+4]
	mov	DWORD PTR _comp$[ebp], eax
	mov	DWORD PTR _codestream$[ebp], ebx
	mov	edi, DWORD PTR [eax+4]
	mov	eax, edi
	mov	DWORD PTR _tile$[ebp], edi
	mov	cl, BYTE PTR [eax+224]
	mov	al, BYTE PTR [eax+225]
	mov	BYTE PTR _use_sop$1$[ebp], cl
	mov	BYTE PTR _use_eph$[ebp], al

; 5452 :   bool seek_marker =
; 5453 :     use_sop && codestream->expect_ubiquitous_sops && codestream->resilient;

	test	cl, cl
	je	SHORT $LN86@read_packe
	cmp	BYTE PTR [ebx+333], dh
	je	SHORT $LN86@read_packe
	mov	BYTE PTR _seek_marker$[ebp], 1
	cmp	BYTE PTR [ebx+332], dh
	jne	SHORT $LN87@read_packe
$LN86@read_packe:
	mov	BYTE PTR _seek_marker$[ebp], 0
$LN87@read_packe:

; 5454 :   int header_bytes = 0;
; 5455 :   
; 5456 :   if ((flags & KD_PFLAG_CORRUPTED) ||

	test	BYTE PTR [esi+8], 2
	mov	DWORD PTR _header_bytes$[ebp], 0
	jne	$LN24@read_packe
	mov	dl, BYTE PTR [edi+256]
	test	dl, dl
	je	SHORT $LN210@read_packe

; 438  :   int diff = sop_num - packet_num;

	mov	eax, DWORD PTR [edi+260]
	sub	eax, DWORD PTR [edi+252]

; 439  : 
; 440  :   if ((diff & 0x0000FFFF) == 0)

	movzx	ecx, ax
	test	ecx, ecx
	je	SHORT $LN23@read_packe

; 441  :     return 0;
; 442  :   if ((diff > 0) || ((diff & 0x0000FFFF) <= (1<<15)))

	test	eax, eax
	jg	$LN24@read_packe
	cmp	ecx, 32768				; 00008000H
	jle	SHORT $LN120@read_packe

; 443  :     return diff; // `sop_num' deemed to be greater than `packet_num'.
; 444  :   else
; 445  :     return diff-(1<<16); // `sop_num' deemed to be less than `packet_num'.

	add	eax, -65536				; ffff0000H
$LN120@read_packe:

; 5454 :   int header_bytes = 0;
; 5455 :   
; 5456 :   if ((flags & KD_PFLAG_CORRUPTED) ||

	test	eax, eax
	jne	$LN24@read_packe
$LN23@read_packe:

; 5461 :   if (tile->skipping_to_sop)

	test	dl, dl
	je	SHORT $LN210@read_packe

; 5462 :     { // We have already read the SOP marker for this packet.
; 5463 :       assert(compare_sop_num(tile->next_sop_sequence_num,
; 5464 :                              tile->next_input_packet_num) == 0);
; 5465 :       tile->skipping_to_sop = false;

	mov	BYTE PTR [edi+256], 0

; 5466 :       header_bytes += 6; // Count the SOP marker

	mov	DWORD PTR _header_bytes$[ebp], 6

; 5467 :     }
; 5468 :   else

	jmp	SHORT $LN3@read_packe
$LN210@read_packe:

; 5469 :     while (codestream->marker->read(true,seek_marker))

	mov	edi, DWORD PTR _seek_marker$[ebp]
	mov	ecx, DWORD PTR [ebx+16]
	push	edi
	push	1
	call	?read@kd_marker@@QAE_N_N0@Z		; kd_marker::read
	test	al, al
	je	SHORT $LN241@read_packe
	mov	DWORD PTR tv1238[ebp], 65424		; 0000ff90H
	npad	6
$LL2@read_packe:
; File e:\study\jpeg2000\visually_lossless_jpeg2000\modifiedkakadu\coresys\compressed\compressed_local.h

; 882  :     kdu_uint16 get_code() { return code; }

	mov	edx, DWORD PTR [ebx+16]
	movzx	ecx, WORD PTR [edx+8]
	mov	eax, ecx
; File e:\study\jpeg2000\visually_lossless_jpeg2000\modifiedkakadu\coresys\compressed\compressed.cpp

; 5471 :         if (codestream->marker->get_code() == KDU_SOT)

	cmp	ax, WORD PTR tv1238[ebp]
	je	$LN217@read_packe

; 5473 :         else if (use_sop &&

	cmp	BYTE PTR _use_sop$1$[ebp], 0
	je	SHORT $LN29@read_packe
	mov	ecx, 65425				; 0000ff91H
	cmp	ax, cx
	je	SHORT $LN218@read_packe
$LN29@read_packe:

; 5502 :                         return handle_corrupt_packet();
; 5503 :                       }
; 5504 :                   }
; 5505 :               }
; 5506 :             break;
; 5507 :           }
; 5508 :         else if (!seek_marker) // If `seek_marker' is true we will loop back

	cmp	BYTE PTR _seek_marker$[ebp], 0
	je	$LN219@read_packe

; 5469 :     while (codestream->marker->read(true,seek_marker))

	push	edi
	push	1
	mov	ecx, edx
	call	?read@kd_marker@@QAE_N_N0@Z		; kd_marker::read
	test	al, al
	jne	SHORT $LL2@read_packe
$LN241@read_packe:
	mov	edi, DWORD PTR _tile$[ebp]
$LN246@read_packe:
	mov	dh, BYTE PTR _tpart_ends$1$[ebp]
$LN3@read_packe:
; File e:\study\jpeg2000\visually_lossless_jpeg2000\modifiedkakadu\coresys\compressed\compressed_local.h

; 528  :         return exhausted;

	mov	ecx, DWORD PTR [ebx+4]
	mov	al, BYTE PTR [ecx+533]
; File e:\study\jpeg2000\visually_lossless_jpeg2000\modifiedkakadu\coresys\compressed\compressed.cpp

; 5523 :   if (codestream->in->failed())

	test	al, al
	je	$LN37@read_packe

; 5524 :     {
; 5525 :       tile->finished_reading();

	mov	ecx, edi
	call	?finished_reading@kd_tile@@QAE_NXZ	; kd_tile::finished_reading

; 5526 :       if ((num_packets_read == 0) && (flags & KD_PFLAG_ADDRESSABLE))

	cmp	DWORD PTR [esi+20], 0
	jne	SHORT $LN38@read_packe
	test	BYTE PTR [esi+8], 8
	je	SHORT $LN38@read_packe

; 5527 :         num_packets_read = -1; // Saves coming back here time and time again

	mov	DWORD PTR [esi+20], -1
$LN38@read_packe:

; 5528 :                    // for addressable precincts with all packets missing
; 5529 :       return false;

	xor	al, al

; 5748 : }

	mov	ecx, DWORD PTR __$EHRec$[ebp+4]
	mov	DWORD PTR fs:0, ecx
	pop	ecx
	pop	edi
	pop	esi
	pop	ebx
	mov	esp, ebp
	pop	ebp
	ret	0
$LN218@read_packe:

; 5474 :                  (codestream->marker->get_code() == KDU_SOP))
; 5475 :           { // Found the required SOP segment
; 5476 :             if (!(flags & KD_PFLAG_ADDRESSABLE))

	test	BYTE PTR [esi+8], 8
	jne	SHORT $LN241@read_packe
; File e:\study\jpeg2000\visually_lossless_jpeg2000\modifiedkakadu\coresys\compressed\compressed_local.h

; 888  :     kdu_byte *get_bytes() { return buf; }

	mov	eax, DWORD PTR [edx+20]
; File e:\study\jpeg2000\visually_lossless_jpeg2000\modifiedkakadu\coresys\compressed\compressed.cpp

; 5483 :                                     tile->next_input_packet_num) != 0)

	mov	edx, DWORD PTR _tile$[ebp]
	mov	DWORD PTR _header_bytes$[ebp], 6
	movzx	edi, BYTE PTR [eax+1]
	movzx	eax, BYTE PTR [eax]
	push	DWORD PTR [edx+252]
	shl	eax, 8
	add	edi, eax
	push	edi
	call	?compare_sop_num@@YAHHH@Z		; compare_sop_num
	add	esp, 8
	test	eax, eax
	je	$LN240@read_packe

; 5484 :                   {
; 5485 :                     if (!codestream->resilient)

	cmp	BYTE PTR [ebx+332], 0
	jne	$LN33@read_packe

; 5486 :                       { KDU_ERROR(e,25);

	push	OFFSET ??_C@_0BE@KMIJLGEL@Kakadu?5Core?5Error?3?6?$AA@
	lea	ecx, DWORD PTR _e$12[ebp]
	call	??0kdu_error@@QAE@PBD@Z			; kdu_error::kdu_error
; File e:\study\jpeg2000\visually_lossless_jpeg2000\modifiedkakadu\coresys\common\kdu_messaging.h

; 257  :       { put_text(string); return *this; }

	mov	eax, DWORD PTR _e$12[ebp]
	lea	ecx, DWORD PTR _e$12[ebp]
	push	OFFSET ??_C@_0FK@HALGFJID@Out?9of?9sequence?5SOP?5marker?5found@
; File e:\study\jpeg2000\visually_lossless_jpeg2000\modifiedkakadu\coresys\compressed\compressed.cpp

; 5486 :                       { KDU_ERROR(e,25);

	mov	DWORD PTR __$EHRec$[ebp+12], 0
; File e:\study\jpeg2000\visually_lossless_jpeg2000\modifiedkakadu\coresys\common\kdu_messaging.h

; 257  :       { put_text(string); return *this; }

	call	DWORD PTR [eax+8]
	mov	eax, DWORD PTR _e$12[ebp]
	lea	ecx, DWORD PTR _e$12[ebp]
	push	OFFSET ??_C@_0BI@NMKGFPMC@?7Found?5sequence?5number?5?$AA@
	call	DWORD PTR [eax+8]
; File e:\study\jpeg2000\visually_lossless_jpeg2000\modifiedkakadu\coresys\compressed\compressed.cpp

; 5494 :                           << ".\n";

	push	edi
	lea	ecx, DWORD PTR _e$12[ebp]
	call	??6kdu_message@@QAEAAV0@H@Z		; kdu_message::operator<<
	mov	esi, eax
; File e:\study\jpeg2000\visually_lossless_jpeg2000\modifiedkakadu\coresys\common\kdu_messaging.h

; 257  :       { put_text(string); return *this; }

	push	OFFSET ??_C@_0BA@BNNPLEHB@?0?5but?5expected?5?$AA@
	mov	ecx, esi
	mov	eax, DWORD PTR [esi]
	call	DWORD PTR [eax+8]
; File e:\study\jpeg2000\visually_lossless_jpeg2000\modifiedkakadu\coresys\compressed\compressed.cpp

; 5494 :                           << ".\n";

	mov	edi, DWORD PTR _tile$[ebp]
	mov	ecx, esi
	movzx	eax, WORD PTR [edi+252]
	push	eax
	call	??6kdu_message@@QAEAAV0@H@Z		; kdu_message::operator<<
; File e:\study\jpeg2000\visually_lossless_jpeg2000\modifiedkakadu\coresys\common\kdu_messaging.h

; 257  :       { put_text(string); return *this; }

	push	OFFSET ??_C@_02MIICKFIN@?4?6?$AA@
	mov	ecx, eax
	mov	edx, DWORD PTR [eax]
	call	DWORD PTR [edx+8]
	mov	eax, DWORD PTR _e$12[ebp]
	lea	ecx, DWORD PTR _e$12[ebp]
	push	OFFSET ??_C@_0EO@IEHAKBJH@Use?5the?5resilient?5option?5if?5you?5@
	call	DWORD PTR [eax+8]
; File e:\study\jpeg2000\visually_lossless_jpeg2000\modifiedkakadu\coresys\compressed\compressed.cpp

; 5497 :                       }

	lea	ecx, DWORD PTR _e$12[ebp]
	mov	DWORD PTR __$EHRec$[ebp+12], -1
	call	??1kdu_error@@UAE@XZ			; kdu_error::~kdu_error

; 5498 :                     else

	mov	esi, DWORD PTR _this$[ebp]
	jmp	$LN246@read_packe
$LN33@read_packe:

; 5499 :                       {
; 5500 :                         tile->skipping_to_sop = true;

	mov	BYTE PTR [edx+256], 1

; 5501 :                         tile->next_sop_sequence_num = sequence_num;

	mov	DWORD PTR [edx+260], edi
$LN24@read_packe:

; 5457 :       (tile->skipping_to_sop &&
; 5458 :        (compare_sop_num(tile->next_sop_sequence_num,
; 5459 :                         tile->next_input_packet_num) != 0)))
; 5460 :     return handle_corrupt_packet();

	mov	ecx, esi
$LN253@read_packe:
	call	?handle_corrupt_packet@kd_precinct@@AAE_NXZ ; kd_precinct::handle_corrupt_packet

; 5748 : }

	mov	ecx, DWORD PTR __$EHRec$[ebp+4]
	mov	DWORD PTR fs:0, ecx
	pop	ecx
	pop	edi
	pop	esi
	pop	ebx
	mov	esp, ebp
	pop	ebp
	ret	0
$LN219@read_packe:

; 5509 :           { 
; 5510 :             if (!codestream->resilient)

	cmp	BYTE PTR [ebx+332], 0
	jne	SHORT $LN24@read_packe

; 5511 :               { KDU_ERROR(e,26);

	push	OFFSET ??_C@_0BE@KMIJLGEL@Kakadu?5Core?5Error?3?6?$AA@
	lea	ecx, DWORD PTR _e$11[ebp]
	call	??0kdu_error@@QAE@PBD@Z			; kdu_error::kdu_error
; File e:\study\jpeg2000\visually_lossless_jpeg2000\modifiedkakadu\coresys\common\kdu_messaging.h

; 257  :       { put_text(string); return *this; }

	mov	eax, DWORD PTR _e$11[ebp]
	lea	ecx, DWORD PTR _e$11[ebp]
	push	OFFSET ??_C@_0FD@LOABHKKD@Illegal?5marker?5code?5found?5while?5@
; File e:\study\jpeg2000\visually_lossless_jpeg2000\modifiedkakadu\coresys\compressed\compressed.cpp

; 5511 :               { KDU_ERROR(e,26);

	mov	DWORD PTR __$EHRec$[ebp+12], 1
; File e:\study\jpeg2000\visually_lossless_jpeg2000\modifiedkakadu\coresys\common\kdu_messaging.h

; 257  :       { put_text(string); return *this; }

	call	DWORD PTR [eax+8]
	mov	eax, DWORD PTR _e$11[ebp]
	lea	ecx, DWORD PTR _e$11[ebp]
	push	OFFSET ??_C@_0BJ@HMCGKOMP@?7Illegal?5marker?5code?5is?5?$AA@
	call	DWORD PTR [eax+8]
; File e:\study\jpeg2000\visually_lossless_jpeg2000\modifiedkakadu\coresys\compressed\compressed.cpp

; 5515 :                 codestream->marker->print_current_code(e); e << ".\n";

	mov	eax, DWORD PTR [ebx+16]
; File e:\study\jpeg2000\visually_lossless_jpeg2000\modifiedkakadu\coresys\compressed\compressed_local.h

; 851  :         print_marker_code(this->code,out);

	lea	ecx, DWORD PTR _e$11[ebp]
	push	ecx
	movzx	eax, WORD PTR [eax+8]
	push	eax
	call	?print_marker_code@@YAXGAAVkdu_message@@@Z ; print_marker_code
; File e:\study\jpeg2000\visually_lossless_jpeg2000\modifiedkakadu\coresys\common\kdu_messaging.h

; 257  :       { put_text(string); return *this; }

	mov	eax, DWORD PTR _e$11[ebp]
	lea	ecx, DWORD PTR _e$11[ebp]
; File e:\study\jpeg2000\visually_lossless_jpeg2000\modifiedkakadu\coresys\compressed\compressed_local.h

; 851  :         print_marker_code(this->code,out);

	add	esp, 8
; File e:\study\jpeg2000\visually_lossless_jpeg2000\modifiedkakadu\coresys\common\kdu_messaging.h

; 257  :       { put_text(string); return *this; }

	push	OFFSET ??_C@_02MIICKFIN@?4?6?$AA@
	call	DWORD PTR [eax+8]
	mov	eax, DWORD PTR _e$11[ebp]
	lea	ecx, DWORD PTR _e$11[ebp]
	push	OFFSET ??_C@_0EO@IEHAKBJH@Use?5the?5resilient?5option?5if?5you?5@
	call	DWORD PTR [eax+8]
; File e:\study\jpeg2000\visually_lossless_jpeg2000\modifiedkakadu\coresys\compressed\compressed.cpp

; 5518 :               }

	lea	ecx, DWORD PTR _e$11[ebp]
	mov	DWORD PTR __$EHRec$[ebp+12], -1
	call	??1kdu_error@@UAE@XZ			; kdu_error::~kdu_error

; 5519 :             return handle_corrupt_packet();

	jmp	$LN24@read_packe
$LN217@read_packe:
	mov	edi, DWORD PTR _tile$[ebp]

; 5472 :           { tpart_ends = true; break; }

	mov	dh, 1
	jmp	$LN3@read_packe
$LN240@read_packe:
	mov	dh, BYTE PTR _tpart_ends$1$[ebp]
	mov	edi, DWORD PTR _tile$[ebp]
	jmp	$LN3@read_packe
$LN37@read_packe:

; 5530 :     }
; 5531 : 
; 5532 :   if (tpart_ends)

	test	dh, dh
	je	SHORT $LN39@read_packe

; 5533 :     {
; 5534 :       codestream->active_tile = NULL;
; 5535 :       tile->adjust_unloadability();

	mov	ecx, edi
	mov	DWORD PTR [ebx+364], 0
	call	?adjust_unloadability@kd_tile@@QAEXXZ	; kd_tile::adjust_unloadability

; 5536 :       return false;

	xor	al, al

; 5748 : }

	mov	ecx, DWORD PTR __$EHRec$[ebp+4]
	mov	DWORD PTR fs:0, ecx
	pop	ecx
	pop	edi
	pop	esi
	pop	ebx
	mov	esp, ebp
	pop	ebp
	ret	0
$LN39@read_packe:

; 5537 :     }
; 5538 : 
; 5539 :   // Now read the packet header.
; 5540 :   bool suspend = codestream->simulate_parsing_while_counting_bytes &&

	cmp	BYTE PTR [ebx+336], 0
	je	SHORT $LN89@read_packe
	mov	eax, DWORD PTR [esi+20]
	cmp	eax, DWORD PTR [esi+12]
	jge	SHORT $LN88@read_packe
	test	BYTE PTR [esi+8], 64			; 00000040H
	jne	SHORT $LN89@read_packe
$LN88@read_packe:

; 5541 :     ((num_packets_read >= required_layers) || !(flags & KD_PFLAG_RELEVANT));
; 5542 :   if (suspend)
; 5543 :     codestream->in->set_suspend(true);

	push	1
	mov	BYTE PTR _suspend$[ebp], 1
	call	?set_suspend@kd_compressed_input@@QAEX_N@Z ; kd_compressed_input::set_suspend
	jmp	SHORT $LN40@read_packe
$LN89@read_packe:

; 5537 :     }
; 5538 : 
; 5539 :   // Now read the packet header.
; 5540 :   bool suspend = codestream->simulate_parsing_while_counting_bytes &&

	mov	BYTE PTR _suspend$[ebp], 0
$LN40@read_packe:

; 5544 : 
; 5545 :   kd_input *header_source = tile->packed_headers;

	mov	edi, DWORD PTR [edi+48]
	mov	DWORD PTR _header_source$[ebp], edi

; 5546 :   if (header_source == NULL)

	test	edi, edi
	jne	SHORT $LN41@read_packe

; 5547 :     header_source = codestream->in;

	mov	edi, DWORD PTR [ebx+4]
	mov	DWORD PTR _header_source$[ebp], edi
$LN41@read_packe:
; File e:\study\jpeg2000\visually_lossless_jpeg2000\modifiedkakadu\coresys\compressed\compressed_local.h

; 3498 :       { this->source = source; bits_left=0; byte=0; header_bytes=0; }

	mov	DWORD PTR _header$[ebp], edi
	xorps	xmm0, xmm0
	mov	DWORD PTR _header$[ebp+8], 0
	mov	BYTE PTR _header$[ebp+4], 0
	mov	DWORD PTR _header$[ebp+12], 0
; File e:\study\jpeg2000\visually_lossless_jpeg2000\modifiedkakadu\coresys\compressed\compressed.cpp

; 5550 :   if (codestream->resilient)

	cmp	BYTE PTR [ebx+332], 0
	movlpd	QWORD PTR _body_bytes$[ebp], xmm0
	je	SHORT $LN42@read_packe
; File e:\study\jpeg2000\visually_lossless_jpeg2000\modifiedkakadu\coresys\compressed\compressed_local.h

; 505  :         this->reject_all = reject_all; throw_markers = true; have_FF = false;

	mov	WORD PTR [edi+535], 0

; 506  :       }

	jmp	SHORT $LN248@read_packe
$LN42@read_packe:
; File e:\study\jpeg2000\visually_lossless_jpeg2000\modifiedkakadu\coresys\compressed\compressed.cpp

; 5552 :   else if (codestream->fussy)

	cmp	BYTE PTR [ebx+334], 0
	je	SHORT $LN44@read_packe
; File e:\study\jpeg2000\visually_lossless_jpeg2000\modifiedkakadu\coresys\compressed\compressed_local.h

; 505  :         this->reject_all = reject_all; throw_markers = true; have_FF = false;

	mov	WORD PTR [edi+535], 256			; 00000100H
$LN248@read_packe:
	mov	BYTE PTR [edi+534], 1
$LN44@read_packe:
; File e:\study\jpeg2000\visually_lossless_jpeg2000\modifiedkakadu\coresys\compressed\compressed.cpp

; 5555 :       if (header.get_bit() != 0)

	lea	ecx, DWORD PTR _header$[ebp]
	mov	DWORD PTR __$EHRec$[ebp+12], 2
	call	?get_bit@kd_header_in@@QAEHXZ		; kd_header_in::get_bit
	test	eax, eax
	je	SHORT $LN5@read_packe

; 5556 :         for (int b=0; b < resolution->num_subbands; b++)

	mov	edx, DWORD PTR _this$[ebp]
	xor	esi, esi
$LN250@read_packe:
	mov	eax, DWORD PTR [edx]
	mov	DWORD PTR _b$1$[ebp], esi
	movzx	eax, BYTE PTR [eax+174]
	cmp	esi, eax
	jge	SHORT $LN242@read_packe

; 5557 :           {
; 5558 :             kd_precinct_band *pband = subbands + b;

	mov	eax, DWORD PTR [edx+40]
	lea	ecx, DWORD PTR [esi+esi*2]

; 5559 :             kd_block *block = pband->blocks;

	mov	edi, DWORD PTR [eax+ecx*8+20]
	lea	ecx, DWORD PTR [eax+ecx*8]

; 5560 :             for (int m=pband->block_indices.size.y; m > 0; m--)

	mov	eax, DWORD PTR [ecx+12]
	mov	DWORD PTR _pband$1$[ebp], ecx
$LN249@read_packe:
	mov	DWORD PTR _m$1$[ebp], eax
	test	eax, eax
	jle	SHORT $LN4@read_packe

; 5561 :               for (int n=pband->block_indices.size.x; n > 0; n--, block++)

	mov	esi, DWORD PTR [ecx+16]
$LL12@read_packe:
	test	esi, esi
	jle	SHORT $LN7@read_packe

; 5562 :                 body_bytes +=

	push	DWORD PTR [edx+20]
	lea	eax, DWORD PTR _header$[ebp]
	mov	ecx, edi
	push	DWORD PTR [ebx+24]
	push	eax
	call	?parse_packet_header@kd_block@@QAEHAAVkd_header_in@@PAVkd_buf_server@@H@Z ; kd_block::parse_packet_header
	cdq
	add	DWORD PTR _body_bytes$[ebp], eax
	adc	DWORD PTR _body_bytes$[ebp+4], edx
	dec	esi
	mov	edx, DWORD PTR _this$[ebp]
	add	edi, 24					; 00000018H
	jmp	SHORT $LL12@read_packe
$LN7@read_packe:

; 5560 :             for (int m=pband->block_indices.size.y; m > 0; m--)

	mov	eax, DWORD PTR _m$1$[ebp]
	mov	ecx, DWORD PTR _pband$1$[ebp]
	dec	eax
	jmp	SHORT $LN249@read_packe
$LN4@read_packe:

; 5556 :         for (int b=0; b < resolution->num_subbands; b++)

	mov	esi, DWORD PTR _b$1$[ebp]
	inc	esi
	jmp	SHORT $LN250@read_packe
$LN242@read_packe:
	mov	edi, DWORD PTR _header_source$[ebp]
$LN5@read_packe:

; 5563 :                   block->parse_packet_header(header,codestream->buf_server,
; 5564 :                                              num_packets_read);
; 5565 :           }
; 5566 :       header_bytes += header.finish(); // Clears any terminal FF

	lea	ecx, DWORD PTR _header$[ebp]
	call	?finish@kd_header_in@@QAEHXZ		; kd_header_in::finish
	add	DWORD PTR _header_bytes$[ebp], eax
	jmp	$LN251@read_packe
__catch$?read_packet@kd_precinct@@AAE_NXZ$0:

; 5567 :     }
; 5568 :   catch (kd_header_in *)
; 5569 :     { // Insufficient header bytes in source.
; 5570 :       if (header_source == tile->packed_headers)

	mov	esi, DWORD PTR _tile$[ebp]
	mov	eax, DWORD PTR _header_source$[ebp]
	cmp	eax, DWORD PTR [esi+48]
	jne	SHORT $LN47@read_packe

; 5573 :           KDU_ERROR(e,27); e <<

	push	OFFSET ??_C@_0BE@KMIJLGEL@Kakadu?5Core?5Error?3?6?$AA@
	lea	ecx, DWORD PTR _e$10[ebp]
	call	??0kdu_error@@QAE@PBD@Z			; kdu_error::kdu_error
; File e:\study\jpeg2000\visually_lossless_jpeg2000\modifiedkakadu\coresys\common\kdu_messaging.h

; 257  :       { put_text(string); return *this; }

	mov	eax, DWORD PTR _e$10[ebp]
	lea	ecx, DWORD PTR _e$10[ebp]
	push	OFFSET ??_C@_0FB@NMDJGOOL@Exhausted?5PPM?1PPT?5marker?5segment@
; File e:\study\jpeg2000\visually_lossless_jpeg2000\modifiedkakadu\coresys\compressed\compressed.cpp

; 5573 :           KDU_ERROR(e,27); e <<

	mov	BYTE PTR __$EHRec$[ebp+12], 4
; File e:\study\jpeg2000\visually_lossless_jpeg2000\modifiedkakadu\coresys\common\kdu_messaging.h

; 257  :       { put_text(string); return *this; }

	call	DWORD PTR [eax+8]
; File e:\study\jpeg2000\visually_lossless_jpeg2000\modifiedkakadu\coresys\compressed\compressed.cpp

; 5576 :         }

	lea	ecx, DWORD PTR _e$10[ebp]
	mov	BYTE PTR __$EHRec$[ebp+12], 3
	call	??1kdu_error@@UAE@XZ			; kdu_error::~kdu_error
$LN47@read_packe:

; 5577 :       assert(codestream->in->failed());
; 5578 :       tile->finished_reading();

	mov	ecx, esi
	call	?finished_reading@kd_tile@@QAE_NXZ	; kd_tile::finished_reading

; 5579 :       if ((num_packets_read == 0) && (flags & KD_PFLAG_ADDRESSABLE))

	mov	eax, DWORD PTR _this$[ebp]
	cmp	DWORD PTR [eax+20], 0
	jne	SHORT $LN48@read_packe
	test	BYTE PTR [eax+8], 8
	je	SHORT $LN48@read_packe

; 5580 :         num_packets_read = -1; // Saves coming back here again for addressable

	mov	DWORD PTR [eax+20], -1
$LN48@read_packe:

; 5581 :                                // precincts with all packets missing
; 5582 :       if (suspend)

	cmp	BYTE PTR _suspend$[ebp], 0
	je	SHORT $LN49@read_packe

; 5583 :         codestream->in->set_suspend(false);

	mov	ecx, DWORD PTR _codestream$[ebp]
	push	0
	mov	ecx, DWORD PTR [ecx+4]
	call	?set_suspend@kd_compressed_input@@QAEX_N@Z ; kd_compressed_input::set_suspend
$LN49@read_packe:

; 5584 :       return false;

	mov	eax, $LN38@read_packe
	ret	0
__catch$?read_packet@kd_precinct@@AAE_NXZ$1:

; 5585 :     }
; 5586 :   catch (kdu_uint16 code)
; 5587 :     {
; 5588 :       if (codestream->resilient && (header_source == codestream->in))

	mov	eax, DWORD PTR _codestream$[ebp]
	cmp	BYTE PTR [eax+332], 0
	je	SHORT $LN50@read_packe
	mov	ecx, DWORD PTR [eax+4]
	cmp	DWORD PTR _header_source$[ebp], ecx
	jne	SHORT $LN50@read_packe

; 5589 :         { // Assume that all exceptions arise as a result of corruption.
; 5590 :           if (suspend)

	cmp	BYTE PTR _suspend$[ebp], 0
	je	SHORT $LN52@read_packe

; 5591 :             codestream->in->set_suspend(false);

	push	0
	call	?set_suspend@kd_compressed_input@@QAEX_N@Z ; kd_compressed_input::set_suspend
$LN52@read_packe:

; 5592 :           return handle_corrupt_packet();

	mov	ecx, DWORD PTR _this$[ebp]
	call	?handle_corrupt_packet@kd_precinct@@AAE_NXZ ; kd_precinct::handle_corrupt_packet
	mov	BYTE PTR $T16[ebp], al
	mov	eax, $LN110@read_packe
	ret	0
$LN110@read_packe:
	mov	al, BYTE PTR $T16[ebp]

; 5748 : }

	mov	ecx, DWORD PTR __$EHRec$[ebp+4]
	mov	DWORD PTR fs:0, ecx
	pop	ecx
	pop	edi
	pop	esi
	pop	ebx
	mov	esp, ebp
	pop	ebp
	ret	0
$LN50@read_packe:

; 5593 :         }
; 5594 :       else if (code == KDU_EXCEPTION_PRECISION)

	mov	esi, DWORD PTR _code$14[ebp]

; 5595 :         { KDU_ERROR(e,28); e <<

	lea	ecx, DWORD PTR _e$9[ebp]
	push	OFFSET ??_C@_0BE@KMIJLGEL@Kakadu?5Core?5Error?3?6?$AA@
	call	??0kdu_error@@QAE@PBD@Z			; kdu_error::kdu_error
	cmp	si, 13					; 0000000dH
	jne	SHORT $LN53@read_packe
	mov	BYTE PTR __$EHRec$[ebp+12], 5
; File e:\study\jpeg2000\visually_lossless_jpeg2000\modifiedkakadu\coresys\common\kdu_messaging.h

; 257  :       { put_text(string); return *this; }

	push	OFFSET ??_C@_0BDO@LLBNLAKJ@Packet?5header?5contains?5a?5represe@
; File e:\study\jpeg2000\visually_lossless_jpeg2000\modifiedkakadu\coresys\compressed\compressed.cpp

; 5602 :         }

	jmp	SHORT $LN252@read_packe
$LN53@read_packe:

; 5603 :       else if (code == KDU_EXCEPTION_ILLEGAL_LAYER)

	cmp	si, 21					; 00000015H
	jne	SHORT $LN55@read_packe

; 5604 :         { KDU_ERROR(e,29); e <<

	mov	BYTE PTR __$EHRec$[ebp+12], 6
; File e:\study\jpeg2000\visually_lossless_jpeg2000\modifiedkakadu\coresys\common\kdu_messaging.h

; 257  :       { put_text(string); return *this; }

	push	OFFSET ??_C@_0CBL@LGBHIIBA@Illegal?5inclusion?5tag?5tree?5encou@
; File e:\study\jpeg2000\visually_lossless_jpeg2000\modifiedkakadu\coresys\compressed\compressed.cpp

; 5615 :         }

	jmp	SHORT $LN252@read_packe
$LN55@read_packe:

; 5616 :       else if (code == KDU_EXCEPTION_ILLEGAL_MISSING_MSBS)

	cmp	si, 74					; 0000004aH
	jne	SHORT $LN57@read_packe

; 5617 :         { KDU_ERROR(e,30); e <<

	mov	BYTE PTR __$EHRec$[ebp+12], 7
; File e:\study\jpeg2000\visually_lossless_jpeg2000\modifiedkakadu\coresys\common\kdu_messaging.h

; 257  :       { put_text(string); return *this; }

	push	OFFSET ??_C@_0BAA@PKDCKLHJ@Illegal?5number?5of?5missing?5MSB?8s?5@
; File e:\study\jpeg2000\visually_lossless_jpeg2000\modifiedkakadu\coresys\compressed\compressed.cpp

; 5624 :       else

	jmp	SHORT $LN252@read_packe
$LN57@read_packe:
; File e:\study\jpeg2000\visually_lossless_jpeg2000\modifiedkakadu\coresys\common\kdu_messaging.h

; 257  :       { put_text(string); return *this; }

	mov	eax, DWORD PTR _e$6[ebp]
	lea	ecx, DWORD PTR _e$6[ebp]
	push	OFFSET ??_C@_0BG@OOKLLMMG@Illegal?5marker?5code?0?5?$AA@
; File e:\study\jpeg2000\visually_lossless_jpeg2000\modifiedkakadu\coresys\compressed\compressed.cpp

; 5625 :         { KDU_ERROR(e,31); e << KDU_TXT("Illegal marker code, ");

	mov	BYTE PTR __$EHRec$[ebp+12], 8
; File e:\study\jpeg2000\visually_lossless_jpeg2000\modifiedkakadu\coresys\common\kdu_messaging.h

; 257  :       { put_text(string); return *this; }

	call	DWORD PTR [eax+8]
; File e:\study\jpeg2000\visually_lossless_jpeg2000\modifiedkakadu\coresys\compressed\compressed.cpp

; 5626 :           print_marker_code(code,e); e <<

	lea	eax, DWORD PTR _e$6[ebp]
	push	eax
	push	esi
	call	?print_marker_code@@YAXGAAVkdu_message@@@Z ; print_marker_code
	add	esp, 8
; File e:\study\jpeg2000\visually_lossless_jpeg2000\modifiedkakadu\coresys\common\kdu_messaging.h

; 257  :       { put_text(string); return *this; }

	push	OFFSET ??_C@_0GA@NALIOIEH@?0?5found?5while?5reading?5packet?5hea@
$LN252@read_packe:
	mov	eax, DWORD PTR _e$6[ebp]
	lea	ecx, DWORD PTR _e$6[ebp]
	call	DWORD PTR [eax+8]
; File e:\study\jpeg2000\visually_lossless_jpeg2000\modifiedkakadu\coresys\compressed\compressed.cpp

; 5629 :         }

	lea	ecx, DWORD PTR _e$6[ebp]
	call	??1kdu_error@@UAE@XZ			; kdu_error::~kdu_error

; 5630 :     }

	mov	eax, $LN112@read_packe
	ret	0
$LN112@read_packe:
; File e:\study\jpeg2000\visually_lossless_jpeg2000\modifiedkakadu\coresys\common\kdu_messaging.h
	mov	ebx, DWORD PTR _codestream$[ebp]
	mov	edi, DWORD PTR _header_source$[ebp]
$LN251@read_packe:
; File e:\study\jpeg2000\visually_lossless_jpeg2000\modifiedkakadu\coresys\compressed\compressed.cpp

; 5631 :   if (!header_source->disable_marker_throwing())

	mov	ecx, edi
; File e:\study\jpeg2000\visually_lossless_jpeg2000\modifiedkakadu\coresys\common\kdu_messaging.h
	mov	DWORD PTR __$EHRec$[ebp+12], -1
	call	?disable_marker_throwing@kd_input@@QAE_NXZ ; kd_input::disable_marker_throwing
	cmp	BYTE PTR _use_eph$[ebp], 0
	je	$LN60@read_packe
; File e:\study\jpeg2000\visually_lossless_jpeg2000\modifiedkakadu\coresys\compressed\compressed.cpp

; 5632 :     {
; 5633 :       assert(0); // If this happens, `header.finish()' did not execute properly
; 5634 :     }
; 5635 : 
; 5636 :   // Next, read any required EPH marker.
; 5637 : 
; 5638 :   if (use_eph)
; 5639 :     {
; 5640 :       kdu_byte byte;
; 5641 :       kdu_uint16 code;
; 5642 : 
; 5643 :       code = 0;
; 5644 :       if (header_source->get(byte))

	lea	eax, DWORD PTR _byte$17[ebp]
	mov	ecx, edi
	push	eax
	xor	esi, esi
	call	?get@kd_input@@QAE_NAAE@Z		; kd_input::get
	test	al, al
	je	SHORT $LN61@read_packe

; 5645 :         code = byte;

	movzx	esi, BYTE PTR _byte$17[ebp]
$LN61@read_packe:

; 5646 :       if (header_source->get(byte))

	lea	eax, DWORD PTR _byte$17[ebp]
	mov	ecx, edi
	push	eax
	call	?get@kd_input@@QAE_NAAE@Z		; kd_input::get
	test	al, al
	je	SHORT $LN62@read_packe

; 5647 :         code = (code<<8) + byte;

	movzx	eax, BYTE PTR _byte$17[ebp]
	shl	esi, 8
	add	si, ax
	movzx	esi, si
$LN62@read_packe:
; File e:\study\jpeg2000\visually_lossless_jpeg2000\modifiedkakadu\coresys\compressed\compressed_local.h

; 528  :         return exhausted;

	mov	al, BYTE PTR [edi+533]
; File e:\study\jpeg2000\visually_lossless_jpeg2000\modifiedkakadu\coresys\compressed\compressed.cpp

; 5648 :       if (header_source->failed())

	test	al, al
	je	SHORT $LN63@read_packe

; 5649 :         {
; 5650 :           if (header_source == tile->packed_headers)

	mov	esi, DWORD PTR _tile$[ebp]
	cmp	edi, DWORD PTR [esi+48]
	jne	SHORT $LN64@read_packe

; 5653 :               KDU_ERROR(e,32); e <<

	push	OFFSET ??_C@_0BE@KMIJLGEL@Kakadu?5Core?5Error?3?6?$AA@
	lea	ecx, DWORD PTR _e$5[ebp]
	call	??0kdu_error@@QAE@PBD@Z			; kdu_error::kdu_error
; File e:\study\jpeg2000\visually_lossless_jpeg2000\modifiedkakadu\coresys\common\kdu_messaging.h

; 257  :       { put_text(string); return *this; }

	mov	eax, DWORD PTR _e$5[ebp]
	lea	ecx, DWORD PTR _e$5[ebp]
	push	OFFSET ??_C@_0FB@NMDJGOOL@Exhausted?5PPM?1PPT?5marker?5segment@
; File e:\study\jpeg2000\visually_lossless_jpeg2000\modifiedkakadu\coresys\compressed\compressed.cpp

; 5653 :               KDU_ERROR(e,32); e <<

	mov	DWORD PTR __$EHRec$[ebp+12], 9
; File e:\study\jpeg2000\visually_lossless_jpeg2000\modifiedkakadu\coresys\common\kdu_messaging.h

; 257  :       { put_text(string); return *this; }

	call	DWORD PTR [eax+8]
; File e:\study\jpeg2000\visually_lossless_jpeg2000\modifiedkakadu\coresys\compressed\compressed.cpp

; 5656 :             }

	lea	ecx, DWORD PTR _e$5[ebp]
	mov	DWORD PTR __$EHRec$[ebp+12], -1
	call	??1kdu_error@@UAE@XZ			; kdu_error::~kdu_error
$LN64@read_packe:

; 5657 :           assert(codestream->in->failed());
; 5658 :           tile->finished_reading();

	mov	ecx, esi
	call	?finished_reading@kd_tile@@QAE_NXZ	; kd_tile::finished_reading

; 5659 :           if ((num_packets_read == 0) && (flags & KD_PFLAG_ADDRESSABLE))

	mov	ecx, DWORD PTR _this$[ebp]
	cmp	DWORD PTR [ecx+20], 0
	jne	SHORT $LN65@read_packe
	test	BYTE PTR [ecx+8], 8
	je	SHORT $LN65@read_packe

; 5660 :             num_packets_read = -1; // Saves coming back here again for

	mov	DWORD PTR [ecx+20], -1
$LN65@read_packe:

; 5661 :                       // addressable precincts with all packets missing
; 5662 :           if (suspend)

	cmp	BYTE PTR _suspend$[ebp], 0
	je	$LN38@read_packe

; 5663 :             codestream->in->set_suspend(false);

	mov	ecx, DWORD PTR [ebx+4]
	push	0
	call	?set_suspend@kd_compressed_input@@QAEX_N@Z ; kd_compressed_input::set_suspend

; 5664 :           return false;

	xor	al, al

; 5748 : }

	mov	ecx, DWORD PTR __$EHRec$[ebp+4]
	mov	DWORD PTR fs:0, ecx
	pop	ecx
	pop	edi
	pop	esi
	pop	ebx
	mov	esp, ebp
	pop	ebp
	ret	0
$LN63@read_packe:

; 5665 :         }
; 5666 :       if (code != KDU_EPH)

	mov	eax, 65426				; 0000ff92H
	cmp	si, ax
	je	SHORT $LN69@read_packe

; 5667 :         {
; 5668 :           if (codestream->resilient && (header_source == codestream->in))

	cmp	BYTE PTR [ebx+332], 0
	je	SHORT $LN68@read_packe
	mov	ecx, DWORD PTR [ebx+4]
	cmp	edi, ecx
	jne	SHORT $LN68@read_packe

; 5669 :             { // Missing EPH is a clear indicator of corruption.
; 5670 :               if (suspend)

	cmp	BYTE PTR _suspend$[ebp], 0
	je	SHORT $LN70@read_packe

; 5671 :                 codestream->in->set_suspend(false);

	push	0
	call	?set_suspend@kd_compressed_input@@QAEX_N@Z ; kd_compressed_input::set_suspend
$LN70@read_packe:

; 5672 :               return handle_corrupt_packet();

	mov	ecx, DWORD PTR _this$[ebp]
	jmp	$LN253@read_packe
$LN68@read_packe:

; 5675 :             { KDU_ERROR(e,33); e <<

	push	OFFSET ??_C@_0BE@KMIJLGEL@Kakadu?5Core?5Error?3?6?$AA@
	lea	ecx, DWORD PTR _e$4[ebp]
	call	??0kdu_error@@QAE@PBD@Z			; kdu_error::kdu_error
; File e:\study\jpeg2000\visually_lossless_jpeg2000\modifiedkakadu\coresys\common\kdu_messaging.h

; 257  :       { put_text(string); return *this; }

	mov	eax, DWORD PTR _e$4[ebp]
	lea	ecx, DWORD PTR _e$4[ebp]
	push	OFFSET ??_C@_0DN@IEKEFHF@Expected?5to?5find?5EPH?5marker?5foll@
; File e:\study\jpeg2000\visually_lossless_jpeg2000\modifiedkakadu\coresys\compressed\compressed.cpp

; 5675 :             { KDU_ERROR(e,33); e <<

	mov	DWORD PTR __$EHRec$[ebp+12], 10		; 0000000aH
; File e:\study\jpeg2000\visually_lossless_jpeg2000\modifiedkakadu\coresys\common\kdu_messaging.h

; 257  :       { put_text(string); return *this; }

	call	DWORD PTR [eax+8]
; File e:\study\jpeg2000\visually_lossless_jpeg2000\modifiedkakadu\coresys\compressed\compressed.cpp

; 5678 :               print_marker_code(code,e);

	lea	eax, DWORD PTR _e$4[ebp]
	push	eax
	push	esi
	call	?print_marker_code@@YAXGAAVkdu_message@@@Z ; print_marker_code
; File e:\study\jpeg2000\visually_lossless_jpeg2000\modifiedkakadu\coresys\common\kdu_messaging.h

; 257  :       { put_text(string); return *this; }

	mov	eax, DWORD PTR _e$4[ebp]
	lea	ecx, DWORD PTR _e$4[ebp]
; File e:\study\jpeg2000\visually_lossless_jpeg2000\modifiedkakadu\coresys\compressed\compressed.cpp

; 5678 :               print_marker_code(code,e);

	add	esp, 8
; File e:\study\jpeg2000\visually_lossless_jpeg2000\modifiedkakadu\coresys\common\kdu_messaging.h

; 257  :       { put_text(string); return *this; }

	push	OFFSET ??_C@_09LNCLJGMF@?5instead?4?$AA@
	call	DWORD PTR [eax+8]
; File e:\study\jpeg2000\visually_lossless_jpeg2000\modifiedkakadu\coresys\compressed\compressed.cpp

; 5680 :             }

	lea	ecx, DWORD PTR _e$4[ebp]
	mov	DWORD PTR __$EHRec$[ebp+12], -1
	call	??1kdu_error@@UAE@XZ			; kdu_error::~kdu_error
$LN69@read_packe:

; 5681 :         }
; 5682 :       header_bytes += 2; // Count the EPH marker

	add	DWORD PTR _header_bytes$[ebp], 2
$LN60@read_packe:

; 5683 :     }
; 5684 : 
; 5685 :   // Finally, read the body bytes.
; 5686 : 
; 5687 :   if (body_bytes > 0)

	mov	esi, DWORD PTR _body_bytes$[ebp+4]
	test	esi, esi
	jl	$LN238@read_packe
	jg	SHORT $LN236@read_packe
	mov	edi, DWORD PTR _body_bytes$[ebp]
	test	edi, edi
	je	$LN115@read_packe
$LN236@read_packe:

; 5688 :     {
; 5689 :       if (codestream->resilient)

	cmp	BYTE PTR [ebx+332], 0
	je	SHORT $LN72@read_packe

; 5690 :         codestream->in->enable_marker_throwing();

	mov	eax, DWORD PTR [ebx+4]
; File e:\study\jpeg2000\visually_lossless_jpeg2000\modifiedkakadu\coresys\compressed\compressed_local.h

; 505  :         this->reject_all = reject_all; throw_markers = true; have_FF = false;

	mov	WORD PTR [eax+535], 0

; 506  :       }

	jmp	SHORT $LN254@read_packe
$LN72@read_packe:
; File e:\study\jpeg2000\visually_lossless_jpeg2000\modifiedkakadu\coresys\compressed\compressed.cpp

; 5691 :       else if (codestream->fussy)

	cmp	BYTE PTR [ebx+334], 0
	je	SHORT $LN74@read_packe

; 5692 :         codestream->in->enable_marker_throwing(true);

	mov	eax, DWORD PTR [ebx+4]
; File e:\study\jpeg2000\visually_lossless_jpeg2000\modifiedkakadu\coresys\compressed\compressed_local.h

; 505  :         this->reject_all = reject_all; throw_markers = true; have_FF = false;

	mov	WORD PTR [eax+535], 256			; 00000100H
$LN254@read_packe:
	mov	BYTE PTR [eax+534], 1
$LN74@read_packe:
; File e:\study\jpeg2000\visually_lossless_jpeg2000\modifiedkakadu\coresys\compressed\compressed.cpp

; 5693 :       try {

	mov	DWORD PTR __$EHRec$[ebp+12], 11		; 0000000bH

; 5694 :           for (int b=0; b < resolution->num_subbands; b++)

	xor	edi, edi
$LN257@read_packe:
	mov	edx, DWORD PTR _this$[ebp]
	mov	DWORD PTR _b$1$[ebp], edi
	mov	eax, DWORD PTR [edx]
	movzx	eax, BYTE PTR [eax+174]
	cmp	edi, eax
	jge	$LN14@read_packe

; 5695 :             {
; 5696 :               kd_precinct_band *pband = subbands + b;

	mov	eax, DWORD PTR [edx+40]
	lea	ecx, DWORD PTR [edi+edi*2]

; 5697 :               kd_block *block = pband->blocks;

	mov	esi, DWORD PTR [eax+ecx*8+20]
	lea	ecx, DWORD PTR [eax+ecx*8]

; 5698 :               for (int m=pband->block_indices.size.y; m > 0; m--)

	mov	eax, DWORD PTR [ecx+12]
	mov	DWORD PTR _pband$1$[ebp], ecx
$LN256@read_packe:
	mov	DWORD PTR _m$1$[ebp], eax
	test	eax, eax
	jle	$LN13@read_packe

; 5699 :                 for (int n=pband->block_indices.size.x; n > 0; n--, block++)

	mov	edi, DWORD PTR [ecx+16]
$LN255@read_packe:
	mov	DWORD PTR _n$1$[ebp], edi
	test	edi, edi
	jle	$LN16@read_packe

; 5700 :                   block->read_body_bytes(codestream->in,

	mov	eax, DWORD PTR [ebx+24]
	mov	dl, BYTE PTR [ebx+339]
	mov	ecx, DWORD PTR [ebx+4]
	mov	DWORD PTR _buf_server$1$[ebp], eax
; File e:\study\jpeg2000\visually_lossless_jpeg2000\modifiedkakadu\coresys\compressed\compressed_local.h

; 3644 :         if (this->temp_length > 0)

	movzx	eax, WORD PTR [esi+18]
	test	ax, ax
	je	$LN19@read_packe

; 3645 :           {
; 3646 :             if (num_passes == 255)

	cmp	BYTE PTR [esi+10], 255			; 000000ffH
	jne	SHORT $LN185@read_packe

; 3647 :               { // Read and discard the code-bytes.
; 3648 :                 assert(first_buf == NULL);  source->ignore(this->temp_length);

	mov	edi, DWORD PTR [ecx]
	cdq
	push	edx
	push	eax
	call	DWORD PTR [edi+4]
	mov	edi, DWORD PTR _n$1$[ebp]

; 3659 :             this->temp_length = 0;

	xor	eax, eax
	mov	WORD PTR [esi+18], ax
; File e:\study\jpeg2000\visually_lossless_jpeg2000\modifiedkakadu\coresys\compressed\compressed.cpp

; 5699 :                 for (int n=pband->block_indices.size.x; n > 0; n--, block++)

	dec	edi
	add	esi, 24					; 00000018H
	jmp	SHORT $LN255@read_packe
$LN185@read_packe:
; File e:\study\jpeg2000\visually_lossless_jpeg2000\modifiedkakadu\coresys\compressed\compressed_local.h

; 3650 :             else if (in_memory_source)

	test	dl, dl
	je	$LN187@read_packe

; 579  :         if (throw_markers)

	cmp	BYTE PTR [ecx+534], 0

; 3651 :               {
; 3652 :                 kdu_byte *addr;
; 3653 :                 this->num_bytes += source->pseudo_read(addr,this->temp_length);

	mov	edx, eax

; 555  :           }
; 556  :       }
; 557  :     void putback(kdu_uint16 code)
; 558  :       { /* This function is designed to improve the readability of code
; 559  :            which puts marker codes back to the input object from which they
; 560  :            were read. */
; 561  :         assert(!exhausted);
; 562  :         assert(!throw_markers);
; 563  :         first_unread-=2;
; 564  :         if (!fully_buffered)
; 565  :           {
; 566  :             assert(first_unread >= buffer);
; 567  :             first_unread[0] = (kdu_byte)(code>>8);
; 568  :             first_unread[1] = (kdu_byte) code;
; 569  :           }
; 570  :       }
; 571  :     int pseudo_read(kdu_byte * &addr, int count)
; 572  :       { /* This function should be called only for `fully_buffered' sources.
; 573  :            It behaves like `read', except that it does not actually read
; 574  :            any bytes.  Instead, it puts the address of the block of data
; 575  :            that would have been read into the variable referenced by the
; 576  :            `addr' argument. */
; 577  :         assert(fully_buffered);
; 578  :         addr = first_unread;

	mov	edi, DWORD PTR [ecx+524]
	mov	DWORD PTR _addr$1$[ebp], edi

; 579  :         if (throw_markers)

	je	SHORT $LN191@read_packe

; 580  :           return read(addr,count); // Slower path, looks for markers

	push	edx
	push	edi
	call	?read@kd_input@@QAEHPAEH@Z		; kd_input::read
	mov	edx, eax
	jmp	SHORT $LN190@read_packe
$LN191@read_packe:

; 581  :         first_unread += count;
; 582  :         if (first_unread > first_unwritten)

	mov	eax, DWORD PTR [ecx+528]
	add	edi, edx
	mov	DWORD PTR [ecx+524], edi
	cmp	edi, eax
	jbe	SHORT $LN192@read_packe

; 583  :           {
; 584  :             count -= (int)(first_unread - first_unwritten);

	sub	eax, edi

; 585  :             first_unread = first_unwritten; exhausted = true;

	mov	BYTE PTR [ecx+533], 1
	add	edx, eax
	mov	eax, DWORD PTR [ecx+528]
	mov	DWORD PTR [ecx+524], eax
$LN192@read_packe:
	mov	edi, DWORD PTR _addr$1$[ebp]
$LN190@read_packe:

; 3660 :           }
; 3661 :       }
; 3662 :     void retrieve_data(kdu_block *block, int max_layers, int discard_passes,
; 3663 :                        bool in_memory_source);
; 3664 :       /* Retrieves compressed code-bytes, number of coding passes and codeword
; 3665 :          segment lengths from the current code-block and stores them in the
; 3666 :          `block' object.  All fields which are common for compression and
; 3667 :          decompression have already been filled out by the caller.  The
; 3668 :          byte buffer is allocated so as to be large enough to allow a
; 3669 :          2 byte marker code to be appended to the compressed data,
; 3670 :          if desired -- see declaration of "kdu_subband::open_block".
; 3671 :             The `max_layers' argument identifies the maximum number of
; 3672 :          quality layers for which code-block contributions are to be
; 3673 :          retrieved.
; 3674 :             The `discard_passes' argument indicates the number of additional
; 3675 :          coding passes to be removed, if any.
; 3676 :             If `in_memory_source' is true, the layer code bytes are not
; 3677 :          stored in the `kd_code_buffer' list embedded inside `block'.  Instead,
; 3678 :          the `kd_code_buffer' list stores only the header information for
; 3679 :          each layer, along with the address of the code bytes, which reside
; 3680 :          in the memory block managed by an in-memory compressed data source
; 3681 :          (one which offers the `KDU_SOURCE_CAP_IN_MEMORY') capability.  In
; 3682 :          this case, we retrieve the address and then perform a simple memory
; 3683 :          block copy operation to efficiently retrieve the code bytes for
; 3684 :          each layer. */
; 3685 :     void store_data(kdu_block *block, kd_buf_server *buf_server);
; 3686 :       /* Stores compressed code-bytes, pass length and pass slope information
; 3687 :          from the `block' object into the current code-block.  This function
; 3688 :          is invoked by "kdu_subband::close_block" when the containing
; 3689 :          codestream object was not constructed for input.  Also reflects
; 3690 :          the `msbs_w' value into higher nodes in the tag tree. */
; 3691 :     void store_data(kdu_block *block, kd_thread_buf_server *thread_buf_server);
; 3692 :       /* Same as the above function, but uses `kd_thread_buf_server::get'
; 3693 :          rather than `kd_buf_server::get' to get new code buffers.  This
; 3694 :          version is used to save code-block state in multi-threaded
; 3695 :          environments so as to minimize cache coherency bottlenecks and the
; 3696 :          need to lock shared resources. */
; 3697 :     void transfer_data(kd_block &src)
; 3698 :       { /* Like `store_data', but gets results from another block.  Exploits
; 3699 :            the layout of the object to copy only whole pointers or whole
; 3700 :            32-bit words, even where these represent multiple fields. */
; 3701 :         current_buf = first_buf = src.first_buf;
; 3702 :         *((kdu_int32 *) &buf_pos) = *((kdu_int32 *) &src.buf_pos);
; 3703 :         src.current_buf = src.first_buf = NULL;
; 3704 :       }
; 3705 :     bool trim_data(kdu_uint16 slope_threshold, kd_buf_server *buf_server);
; 3706 :       /* This function serves two purposes: it helps reduce the amount of
; 3707 :          compressed data which must be buffered in memory while compressing
; 3708 :          an image; and it allows individual block contributions to be
; 3709 :          discarded during packet construction in order to tightly fit the
; 3710 :          generated bit-rate to the target compressed bit-rate.
; 3711 :             The function sets all coding pass slopes which are less than or
; 3712 :          equal to the supplied slope threshold to 0 and then discards all
; 3713 :          code bytes which could not possibly be included in the final
; 3714 :          code-stream, as a result of this modification.
; 3715 :             If anything was discarded, the function returns true.  Otherwise,
; 3716 :          it returns false. */
; 3717 :     int start_packet(int layer_idx, kdu_uint16 slope_threshold);
; 3718 :       /* Call this function only during rate allocation or packet generation.
; 3719 :          Before the first call to this function, you must reset the tag tree
; 3720 :          (see the "reset_output_tree" member function).  If you are calling
; 3721 :          the function multiple times with the same layer for rate allocation
; 3722 :          purposes, you must use "save_output_tree" and "restore_output_tree"
; 3723 :          as described below.
; 3724 :             The function leaves behind information about the number of new
; 3725 :          coding passes and the number of new code bytes which would be
; 3726 :          contributed by this code-block if the supplied threshold were actually
; 3727 :          used.  The final contributing coding pass must have a non-zero
; 3728 :          distortion-length slope which is strictly greater than the slope
; 3729 :          threshold.  It also updates the tag tree structure to reflect any
; 3730 :          new knowledge about the first layer to which this code-block would
; 3731 :          contribute.  This information is picked up by "write_packet_header".
; 3732 :             The function's return value is the total number of new code-bytes
; 3733 :          contributed by the block.  This allows the PCRD-opt algorithm to
; 3734 :          determine roughly the right slope threshold before committing to the
; 3735 :          work of simulating packet header generation. */
; 3736 :     void write_packet_header(kd_header_out &head, int layer_idx,
; 3737 :                              bool simulate);
; 3738 :       /* Call this function only after a `start_packet' call.  It writes
; 3739 :          (or simulates the writing of) packet header information corresponding
; 3740 :          to the code-block inclusion information set up by `start_packet'.
; 3741 :          If `simulate' is true, some internal state adjustments are delayed
; 3742 :          until the next call to "save_output_tree", so multiple calls to
; 3743 :          "start_packet" and "write_packet_header" may be issued with the same
; 3744 :          layer index to determine an optimal slope threshold.  Otherwise,
; 3745 :          if `simulate' is false, the internal state information is fully
; 3746 :          updated and the "save_output_tree" and "restore_output_tree" functions
; 3747 :          need not and should not be called. */
; 3748 :     void write_body_bytes(kdu_output *dest);
; 3749 :       /* This function should be called after a non-simulated
; 3750 :          "write_packet_header" call to output the newly included body bytes.
; 3751 :          The actual number of bytes to be written was left behind by
; 3752 :          the preceding "start_packet" call in the `temp_length' field. */
; 3753 :   // --------------------------------------------------------------------------
; 3754 :   public: // Static functions used to operate on tag-trees built from kd_block
; 3755 :     static kd_block *build_tree(kdu_coords size, kdu_byte * &mem_block);
; 3756 :       /* Builds a full tag tree returning a pointer to the upper left hand
; 3757 :          corner leaf node.  Apart from the `up_down' navigation pointers,
; 3758 :          all fields are initialized to 0.  This is appropriate for tag tree
; 3759 :          decoding, but encoders will need to call "reset_output_tree" and
; 3760 :          use "start_packet" to install appropriate node values.
; 3761 :             The tag tree is not allocated from the heap.  Instead, it is
; 3762 :          allocated from an existing memory block, identified by the `mem_block'
; 3763 :          argument.  This memory block is assumed to be large enough to hold
; 3764 :          the array of `kd_block' structures.  Upon return, the `mem_block'
; 3765 :          value is advanced by an amount equal to the size of the tag tree
; 3766 :          array. */
; 3767 :     static void reset_output_tree(kd_block *tree, kdu_coords size);
; 3768 :       /* Call this function immediately before simulating or actually
; 3769 :          generating any packet data for the relevant code-blocks.  Once
; 3770 :          the PCRD-opt algorithm has completed, you should call this function
; 3771 :          a second time to prepare for actual packet output.  The function
; 3772 :          initializes the threshold state variables, `layer_w_bar' and
; 3773 :          `msbs_w_bar' to 0, and the value state variables, `layer_w' and
; 3774 :          `msbs_w' to their maximum representable values.  The succession of
; 3775 :          "start_packet" calls will update the value variables `layer_w'
; 3776 :          and `msbs_w' in such a way that the tag tree coding process runs
; 3777 :          correctly in each subsequent call to "write_packet_header". */
; 3778 :     static void save_output_tree(kd_block *tree, kdu_coords size);
; 3779 :       /* Call this only during rate allocation, before moving on to a new
; 3780 :          layer.  The function saves the current state (`msbs_wbar' and
; 3781 :          `layer_wbar') of each node in the tag tree.  For leaf nodes, it also
; 3782 :          commits the number of new coding passes found in the last call to
; 3783 :          "start_packet". */
; 3784 :     static void restore_output_tree(kd_block *tree, kdu_coords size);
; 3785 :       /* Call this during rate allocation before supplying a new slope
; 3786 :          threshold for the same layer index, in a new "start_packet" call.
; 3787 :          The function restores the `msbs_w_bar' and `layer_w_bar' values
; 3788 :          previously saved by "save_output_tree". */
; 3789 :   // --------------------------------------------------------------------------
; 3790 :   public: // State identification functions
; 3791 :     void set_discard()
; 3792 :       { /* Use this function only with input-oriented operations.  It informs
; 3793 :            the object that none of the code-blocks associated with this
; 3794 :            block will ever be accessed, so that it is free to skip over them
; 3795 :            when reading a packet.  This can save a lot of memory if you have
; 3796 :            a defined region of interest for decompression. */
; 3797 :         num_passes = 255;
; 3798 :       }
; 3799 :     bool empty()
; 3800 :       { // Returns true if the block has no code-bytes yet.
; 3801 :         return first_buf == NULL;
; 3802 :       }
; 3803 :     void set_modes(int modes)
; 3804 :       {
; 3805 :         assert(modes == (modes & 0xFF));
; 3806 :         this->modes = (kdu_byte) modes;
; 3807 :       }
; 3808 :   // --------------------------------------------------------------------------
; 3809 :   private: // Convenience functions for transferring data to/from code buffers.
; 3810 :     void start_buffering(kd_buf_server *buf_server) // Call before `put_byte'
; 3811 :       { assert(first_buf == NULL);
; 3812 :         first_buf = current_buf = buf_server->get(); buf_pos = 0; }
; 3813 :     void start_buffering(kd_thread_buf_server *buf_server)
; 3814 :       { assert(first_buf == NULL);
; 3815 :         first_buf = current_buf = buf_server->get(); buf_pos = 0; }
; 3816 :     void put_byte(kdu_byte val, kd_buf_server *buf_server)
; 3817 :       {
; 3818 :         assert(current_buf != NULL);
; 3819 :         if (buf_pos==KD_CODE_BUFFER_LEN)
; 3820 :           { buf_pos=0; current_buf=current_buf->next=buf_server->get(); }
; 3821 :         current_buf->buf[buf_pos++] = val;
; 3822 :       }
; 3823 :     void put_word(int val, kd_buf_server *buf_server)
; 3824 :       {
; 3825 :         buf_pos += (buf_pos & 1); // Align the buffer pointer
; 3826 :         if (buf_pos > (KD_CODE_BUFFER_LEN-2))
; 3827 :           { buf_pos=0; current_buf=current_buf->next=buf_server->get(); }
; 3828 :         ((kdu_uint16 *)(current_buf->buf+buf_pos))[0] = (kdu_uint16) val;
; 3829 :         buf_pos += 2;
; 3830 :       }
; 3831 :     void put_address(kdu_byte *addr, kd_buf_server *buf_server)
; 3832 :       {
; 3833 :         buf_pos += (-buf_pos)&(KDU_POINTER_BYTES-1); // Align the buf pointer

	mov	al, BYTE PTR [esi+8]

; 3651 :               {
; 3652 :                 kdu_byte *addr;
; 3653 :                 this->num_bytes += source->pseudo_read(addr,this->temp_length);

	add	WORD PTR [esi+14], dx

; 3660 :           }
; 3661 :       }
; 3662 :     void retrieve_data(kdu_block *block, int max_layers, int discard_passes,
; 3663 :                        bool in_memory_source);
; 3664 :       /* Retrieves compressed code-bytes, number of coding passes and codeword
; 3665 :          segment lengths from the current code-block and stores them in the
; 3666 :          `block' object.  All fields which are common for compression and
; 3667 :          decompression have already been filled out by the caller.  The
; 3668 :          byte buffer is allocated so as to be large enough to allow a
; 3669 :          2 byte marker code to be appended to the compressed data,
; 3670 :          if desired -- see declaration of "kdu_subband::open_block".
; 3671 :             The `max_layers' argument identifies the maximum number of
; 3672 :          quality layers for which code-block contributions are to be
; 3673 :          retrieved.
; 3674 :             The `discard_passes' argument indicates the number of additional
; 3675 :          coding passes to be removed, if any.
; 3676 :             If `in_memory_source' is true, the layer code bytes are not
; 3677 :          stored in the `kd_code_buffer' list embedded inside `block'.  Instead,
; 3678 :          the `kd_code_buffer' list stores only the header information for
; 3679 :          each layer, along with the address of the code bytes, which reside
; 3680 :          in the memory block managed by an in-memory compressed data source
; 3681 :          (one which offers the `KDU_SOURCE_CAP_IN_MEMORY') capability.  In
; 3682 :          this case, we retrieve the address and then perform a simple memory
; 3683 :          block copy operation to efficiently retrieve the code bytes for
; 3684 :          each layer. */
; 3685 :     void store_data(kdu_block *block, kd_buf_server *buf_server);
; 3686 :       /* Stores compressed code-bytes, pass length and pass slope information
; 3687 :          from the `block' object into the current code-block.  This function
; 3688 :          is invoked by "kdu_subband::close_block" when the containing
; 3689 :          codestream object was not constructed for input.  Also reflects
; 3690 :          the `msbs_w' value into higher nodes in the tag tree. */
; 3691 :     void store_data(kdu_block *block, kd_thread_buf_server *thread_buf_server);
; 3692 :       /* Same as the above function, but uses `kd_thread_buf_server::get'
; 3693 :          rather than `kd_buf_server::get' to get new code buffers.  This
; 3694 :          version is used to save code-block state in multi-threaded
; 3695 :          environments so as to minimize cache coherency bottlenecks and the
; 3696 :          need to lock shared resources. */
; 3697 :     void transfer_data(kd_block &src)
; 3698 :       { /* Like `store_data', but gets results from another block.  Exploits
; 3699 :            the layout of the object to copy only whole pointers or whole
; 3700 :            32-bit words, even where these represent multiple fields. */
; 3701 :         current_buf = first_buf = src.first_buf;
; 3702 :         *((kdu_int32 *) &buf_pos) = *((kdu_int32 *) &src.buf_pos);
; 3703 :         src.current_buf = src.first_buf = NULL;
; 3704 :       }
; 3705 :     bool trim_data(kdu_uint16 slope_threshold, kd_buf_server *buf_server);
; 3706 :       /* This function serves two purposes: it helps reduce the amount of
; 3707 :          compressed data which must be buffered in memory while compressing
; 3708 :          an image; and it allows individual block contributions to be
; 3709 :          discarded during packet construction in order to tightly fit the
; 3710 :          generated bit-rate to the target compressed bit-rate.
; 3711 :             The function sets all coding pass slopes which are less than or
; 3712 :          equal to the supplied slope threshold to 0 and then discards all
; 3713 :          code bytes which could not possibly be included in the final
; 3714 :          code-stream, as a result of this modification.
; 3715 :             If anything was discarded, the function returns true.  Otherwise,
; 3716 :          it returns false. */
; 3717 :     int start_packet(int layer_idx, kdu_uint16 slope_threshold);
; 3718 :       /* Call this function only during rate allocation or packet generation.
; 3719 :          Before the first call to this function, you must reset the tag tree
; 3720 :          (see the "reset_output_tree" member function).  If you are calling
; 3721 :          the function multiple times with the same layer for rate allocation
; 3722 :          purposes, you must use "save_output_tree" and "restore_output_tree"
; 3723 :          as described below.
; 3724 :             The function leaves behind information about the number of new
; 3725 :          coding passes and the number of new code bytes which would be
; 3726 :          contributed by this code-block if the supplied threshold were actually
; 3727 :          used.  The final contributing coding pass must have a non-zero
; 3728 :          distortion-length slope which is strictly greater than the slope
; 3729 :          threshold.  It also updates the tag tree structure to reflect any
; 3730 :          new knowledge about the first layer to which this code-block would
; 3731 :          contribute.  This information is picked up by "write_packet_header".
; 3732 :             The function's return value is the total number of new code-bytes
; 3733 :          contributed by the block.  This allows the PCRD-opt algorithm to
; 3734 :          determine roughly the right slope threshold before committing to the
; 3735 :          work of simulating packet header generation. */
; 3736 :     void write_packet_header(kd_header_out &head, int layer_idx,
; 3737 :                              bool simulate);
; 3738 :       /* Call this function only after a `start_packet' call.  It writes
; 3739 :          (or simulates the writing of) packet header information corresponding
; 3740 :          to the code-block inclusion information set up by `start_packet'.
; 3741 :          If `simulate' is true, some internal state adjustments are delayed
; 3742 :          until the next call to "save_output_tree", so multiple calls to
; 3743 :          "start_packet" and "write_packet_header" may be issued with the same
; 3744 :          layer index to determine an optimal slope threshold.  Otherwise,
; 3745 :          if `simulate' is false, the internal state information is fully
; 3746 :          updated and the "save_output_tree" and "restore_output_tree" functions
; 3747 :          need not and should not be called. */
; 3748 :     void write_body_bytes(kdu_output *dest);
; 3749 :       /* This function should be called after a non-simulated
; 3750 :          "write_packet_header" call to output the newly included body bytes.
; 3751 :          The actual number of bytes to be written was left behind by
; 3752 :          the preceding "start_packet" call in the `temp_length' field. */
; 3753 :   // --------------------------------------------------------------------------
; 3754 :   public: // Static functions used to operate on tag-trees built from kd_block
; 3755 :     static kd_block *build_tree(kdu_coords size, kdu_byte * &mem_block);
; 3756 :       /* Builds a full tag tree returning a pointer to the upper left hand
; 3757 :          corner leaf node.  Apart from the `up_down' navigation pointers,
; 3758 :          all fields are initialized to 0.  This is appropriate for tag tree
; 3759 :          decoding, but encoders will need to call "reset_output_tree" and
; 3760 :          use "start_packet" to install appropriate node values.
; 3761 :             The tag tree is not allocated from the heap.  Instead, it is
; 3762 :          allocated from an existing memory block, identified by the `mem_block'
; 3763 :          argument.  This memory block is assumed to be large enough to hold
; 3764 :          the array of `kd_block' structures.  Upon return, the `mem_block'
; 3765 :          value is advanced by an amount equal to the size of the tag tree
; 3766 :          array. */
; 3767 :     static void reset_output_tree(kd_block *tree, kdu_coords size);
; 3768 :       /* Call this function immediately before simulating or actually
; 3769 :          generating any packet data for the relevant code-blocks.  Once
; 3770 :          the PCRD-opt algorithm has completed, you should call this function
; 3771 :          a second time to prepare for actual packet output.  The function
; 3772 :          initializes the threshold state variables, `layer_w_bar' and
; 3773 :          `msbs_w_bar' to 0, and the value state variables, `layer_w' and
; 3774 :          `msbs_w' to their maximum representable values.  The succession of
; 3775 :          "start_packet" calls will update the value variables `layer_w'
; 3776 :          and `msbs_w' in such a way that the tag tree coding process runs
; 3777 :          correctly in each subsequent call to "write_packet_header". */
; 3778 :     static void save_output_tree(kd_block *tree, kdu_coords size);
; 3779 :       /* Call this only during rate allocation, before moving on to a new
; 3780 :          layer.  The function saves the current state (`msbs_wbar' and
; 3781 :          `layer_wbar') of each node in the tag tree.  For leaf nodes, it also
; 3782 :          commits the number of new coding passes found in the last call to
; 3783 :          "start_packet". */
; 3784 :     static void restore_output_tree(kd_block *tree, kdu_coords size);
; 3785 :       /* Call this during rate allocation before supplying a new slope
; 3786 :          threshold for the same layer index, in a new "start_packet" call.
; 3787 :          The function restores the `msbs_w_bar' and `layer_w_bar' values
; 3788 :          previously saved by "save_output_tree". */
; 3789 :   // --------------------------------------------------------------------------
; 3790 :   public: // State identification functions
; 3791 :     void set_discard()
; 3792 :       { /* Use this function only with input-oriented operations.  It informs
; 3793 :            the object that none of the code-blocks associated with this
; 3794 :            block will ever be accessed, so that it is free to skip over them
; 3795 :            when reading a packet.  This can save a lot of memory if you have
; 3796 :            a defined region of interest for decompression. */
; 3797 :         num_passes = 255;
; 3798 :       }
; 3799 :     bool empty()
; 3800 :       { // Returns true if the block has no code-bytes yet.
; 3801 :         return first_buf == NULL;
; 3802 :       }
; 3803 :     void set_modes(int modes)
; 3804 :       {
; 3805 :         assert(modes == (modes & 0xFF));
; 3806 :         this->modes = (kdu_byte) modes;
; 3807 :       }
; 3808 :   // --------------------------------------------------------------------------
; 3809 :   private: // Convenience functions for transferring data to/from code buffers.
; 3810 :     void start_buffering(kd_buf_server *buf_server) // Call before `put_byte'
; 3811 :       { assert(first_buf == NULL);
; 3812 :         first_buf = current_buf = buf_server->get(); buf_pos = 0; }
; 3813 :     void start_buffering(kd_thread_buf_server *buf_server)
; 3814 :       { assert(first_buf == NULL);
; 3815 :         first_buf = current_buf = buf_server->get(); buf_pos = 0; }
; 3816 :     void put_byte(kdu_byte val, kd_buf_server *buf_server)
; 3817 :       {
; 3818 :         assert(current_buf != NULL);
; 3819 :         if (buf_pos==KD_CODE_BUFFER_LEN)
; 3820 :           { buf_pos=0; current_buf=current_buf->next=buf_server->get(); }
; 3821 :         current_buf->buf[buf_pos++] = val;
; 3822 :       }
; 3823 :     void put_word(int val, kd_buf_server *buf_server)
; 3824 :       {
; 3825 :         buf_pos += (buf_pos & 1); // Align the buffer pointer
; 3826 :         if (buf_pos > (KD_CODE_BUFFER_LEN-2))
; 3827 :           { buf_pos=0; current_buf=current_buf->next=buf_server->get(); }
; 3828 :         ((kdu_uint16 *)(current_buf->buf+buf_pos))[0] = (kdu_uint16) val;
; 3829 :         buf_pos += 2;
; 3830 :       }
; 3831 :     void put_address(kdu_byte *addr, kd_buf_server *buf_server)
; 3832 :       {
; 3833 :         buf_pos += (-buf_pos)&(KDU_POINTER_BYTES-1); // Align the buf pointer

	neg	al
	and	al, 3
	add	BYTE PTR [esi+8], al

; 3834 :         if (buf_pos > (KD_CODE_BUFFER_LEN-KDU_POINTER_BYTES))

	cmp	BYTE PTR [esi+8], 54			; 00000036H
	jbe	SHORT $LN195@read_packe

; 3835 :           { buf_pos=0; current_buf=current_buf->next=buf_server->get(); }

	mov	ecx, DWORD PTR _buf_server$1$[ebp]
	mov	BYTE PTR [esi+8], 0
	call	?get@kd_buf_server@@QAEPAUkd_code_buffer@@XZ ; kd_buf_server::get
	mov	ecx, eax
	mov	eax, DWORD PTR [esi+4]
	mov	DWORD PTR [eax], ecx
	mov	DWORD PTR [esi+4], ecx
$LN195@read_packe:

; 3836 : 
; 3837 :         ((kdu_byte **)(current_buf->buf+buf_pos))[0] = addr;

	movzx	ecx, BYTE PTR [esi+8]
	mov	eax, DWORD PTR [esi+4]
	mov	DWORD PTR [eax+ecx+6], edi

; 3659 :             this->temp_length = 0;

	xor	eax, eax
	mov	edi, DWORD PTR _n$1$[ebp]

; 3838 :         buf_pos += KDU_POINTER_BYTES;

	add	BYTE PTR [esi+8], 4
; File e:\study\jpeg2000\visually_lossless_jpeg2000\modifiedkakadu\coresys\compressed\compressed.cpp

; 5699 :                 for (int n=pband->block_indices.size.x; n > 0; n--, block++)

	dec	edi
; File e:\study\jpeg2000\visually_lossless_jpeg2000\modifiedkakadu\coresys\compressed\compressed_local.h

; 3659 :             this->temp_length = 0;

	mov	WORD PTR [esi+18], ax
; File e:\study\jpeg2000\visually_lossless_jpeg2000\modifiedkakadu\coresys\compressed\compressed.cpp

; 5699 :                 for (int n=pband->block_indices.size.x; n > 0; n--, block++)

	add	esi, 24					; 00000018H
	jmp	$LN255@read_packe
$LN187@read_packe:
; File e:\study\jpeg2000\visually_lossless_jpeg2000\modifiedkakadu\coresys\compressed\compressed_local.h

; 3657 :               this->num_bytes +=

	push	eax
	push	DWORD PTR _buf_server$1$[ebp]
	lea	eax, DWORD PTR [esi+8]
	push	eax
	lea	eax, DWORD PTR [esi+4]
	push	eax
	call	?read@kd_input@@QAEHAAPAUkd_code_buffer@@AAEPAVkd_buf_server@@H@Z ; kd_input::read
	add	WORD PTR [esi+14], ax

; 3659 :             this->temp_length = 0;

	xor	eax, eax
	mov	WORD PTR [esi+18], ax
$LN19@read_packe:
; File e:\study\jpeg2000\visually_lossless_jpeg2000\modifiedkakadu\coresys\compressed\compressed.cpp

; 5699 :                 for (int n=pband->block_indices.size.x; n > 0; n--, block++)

	dec	edi
	add	esi, 24					; 00000018H
	jmp	$LN255@read_packe
__catch$?read_packet@kd_precinct@@AAE_NXZ$3:

; 5701 :                                          codestream->buf_server,
; 5702 :                                          codestream->in_memory_source);
; 5703 :             }
; 5704 :         }
; 5705 :       catch (kdu_uint16 code)
; 5706 :         {
; 5707 :           if (codestream->resilient)

	mov	ecx, DWORD PTR _codestream$[ebp]
	cmp	BYTE PTR [ecx+332], 0
	je	SHORT $LN76@read_packe

; 5708 :             { // We have run into the next SOP or SOT marker.
; 5709 :               if (suspend)

	cmp	BYTE PTR _suspend$[ebp], 0
	je	SHORT $LN78@read_packe

; 5710 :                 codestream->in->set_suspend(false);

	mov	ecx, DWORD PTR [ecx+4]
	push	0
	call	?set_suspend@kd_compressed_input@@QAEX_N@Z ; kd_compressed_input::set_suspend
$LN78@read_packe:

; 5711 :               return handle_corrupt_packet();

	mov	ecx, DWORD PTR _this$[ebp]
	call	?handle_corrupt_packet@kd_precinct@@AAE_NXZ ; kd_precinct::handle_corrupt_packet
	mov	BYTE PTR $T15[ebp], al
	mov	eax, $LN110@read_packe
	ret	0
$LN76@read_packe:

; 5714 :             { KDU_ERROR(e,34); e <<

	push	OFFSET ??_C@_0BE@KMIJLGEL@Kakadu?5Core?5Error?3?6?$AA@
	lea	ecx, DWORD PTR _e$3[ebp]
	call	??0kdu_error@@QAE@PBD@Z			; kdu_error::kdu_error
; File e:\study\jpeg2000\visually_lossless_jpeg2000\modifiedkakadu\coresys\common\kdu_messaging.h

; 257  :       { put_text(string); return *this; }

	mov	eax, DWORD PTR _e$3[ebp]
	lea	ecx, DWORD PTR _e$3[ebp]
	push	OFFSET ??_C@_0BG@OOKLLMMG@Illegal?5marker?5code?0?5?$AA@
; File e:\study\jpeg2000\visually_lossless_jpeg2000\modifiedkakadu\coresys\compressed\compressed.cpp

; 5714 :             { KDU_ERROR(e,34); e <<

	mov	BYTE PTR __$EHRec$[ebp+12], 13		; 0000000dH
; File e:\study\jpeg2000\visually_lossless_jpeg2000\modifiedkakadu\coresys\common\kdu_messaging.h

; 257  :       { put_text(string); return *this; }

	call	DWORD PTR [eax+8]
; File e:\study\jpeg2000\visually_lossless_jpeg2000\modifiedkakadu\coresys\compressed\compressed.cpp

; 5716 :               print_marker_code(code,e); e <<

	lea	eax, DWORD PTR _e$3[ebp]
	push	eax
	push	DWORD PTR _code$13[ebp]
	call	?print_marker_code@@YAXGAAVkdu_message@@@Z ; print_marker_code
; File e:\study\jpeg2000\visually_lossless_jpeg2000\modifiedkakadu\coresys\common\kdu_messaging.h

; 257  :       { put_text(string); return *this; }

	mov	eax, DWORD PTR _e$3[ebp]
	lea	ecx, DWORD PTR _e$3[ebp]
; File e:\study\jpeg2000\visually_lossless_jpeg2000\modifiedkakadu\coresys\compressed\compressed.cpp

; 5716 :               print_marker_code(code,e); e <<

	add	esp, 8
; File e:\study\jpeg2000\visually_lossless_jpeg2000\modifiedkakadu\coresys\common\kdu_messaging.h

; 257  :       { put_text(string); return *this; }

	push	OFFSET ??_C@_0FO@KDIMGOKP@?0?5found?5while?5reading?5packet?5bod@
	call	DWORD PTR [eax+8]
; File e:\study\jpeg2000\visually_lossless_jpeg2000\modifiedkakadu\coresys\compressed\compressed.cpp

; 5719 :             }

	lea	ecx, DWORD PTR _e$3[ebp]
	call	??1kdu_error@@UAE@XZ			; kdu_error::~kdu_error

; 5720 :         }

	mov	eax, $LN116@read_packe
	ret	0
$LN116@read_packe:
	mov	ebx, DWORD PTR _codestream$[ebp]
$LN14@read_packe:
	mov	esi, DWORD PTR _body_bytes$[ebp+4]
	mov	DWORD PTR __$EHRec$[ebp+12], -1
$LN238@read_packe:
	mov	edi, DWORD PTR _body_bytes$[ebp]
$LN115@read_packe:

; 5722 :   if (!codestream->in->disable_marker_throwing())

	mov	eax, DWORD PTR [ebx+4]
; File e:\study\jpeg2000\visually_lossless_jpeg2000\modifiedkakadu\coresys\compressed\compressed_local.h

; 514  :         if (!throw_markers) return true;

	cmp	BYTE PTR [eax+534], 0
	je	$LN81@read_packe

; 515  :         throw_markers = false; // Must not touch `reject_all' here.
; 516  :         if (exhausted) have_FF = false;

	cmp	BYTE PTR [eax+533], 0
	mov	BYTE PTR [eax+534], 0
	je	SHORT $LN203@read_packe
	mov	BYTE PTR [eax+535], 0
$LN203@read_packe:

; 517  :         return !have_FF;

	cmp	BYTE PTR [eax+535], 0
	sete	al
; File e:\study\jpeg2000\visually_lossless_jpeg2000\modifiedkakadu\coresys\compressed\compressed.cpp

; 5722 :   if (!codestream->in->disable_marker_throwing())

	test	al, al
	jne	$LN81@read_packe

; 5723 :     {
; 5724 :       if (codestream->resilient)

	cmp	BYTE PTR [ebx+332], al
	je	SHORT $LN80@read_packe

; 5725 :         { // We probably just ran into the 1'st byte of the next SOP/SOT marker
; 5726 :           codestream->in->putback((kdu_byte) 0xFF);

	mov	eax, DWORD PTR [ebx+4]
; File e:\study\jpeg2000\visually_lossless_jpeg2000\modifiedkakadu\coresys\compressed\compressed_local.h

; 550  :         first_unread--;

	dec	DWORD PTR [eax+524]

; 551  :         if (!fully_buffered)

	cmp	BYTE PTR [eax+532], 0
