; Listing generated by Microsoft (R) Optimizing Compiler Version 19.00.23506.0 

	TITLE	E:\study\JPEG2000\visually_lossless_JPEG2000\ModifiedKakadu\coresys\transform\multi_transform.cpp
	.686P
	.XMM
	include listing.inc
	.model	flat

INCLUDELIB MSVCRT
INCLUDELIB OLDNAMES

PUBLIC	??_H@YGXPAXIIP6EPAX0@Z@Z			; `vector constructor iterator'
PUBLIC	?__empty_global_delete@@YAXPAX@Z		; __empty_global_delete
PUBLIC	?__empty_global_delete@@YAXPAXI@Z		; __empty_global_delete
PUBLIC	___local_stdio_printf_options
PUBLIC	??$__vcrt_va_start_verify_argument_type@QBD@@YAXXZ ; __vcrt_va_start_verify_argument_type<char const * const>
PUBLIC	_sprintf
PUBLIC	?put_text@kdu_message@@UAEXPBG@Z		; kdu_message::put_text
PUBLIC	?put_text@kdu_message_formatter@@UAEXPBG@Z	; kdu_message_formatter::put_text
PUBLIC	?put_text@kdu_error@@UAEXPBG@Z			; kdu_error::put_text
PUBLIC	?put_text@kdu_warning@@UAEXPBG@Z		; kdu_warning::put_text
PUBLIC	??1kdu_worker@@UAE@XZ				; kdu_worker::~kdu_worker
PUBLIC	??_Gkdu_worker@@UAEPAXI@Z			; kdu_worker::`scalar deleting destructor'
PUBLIC	??1kdu_kernels@@QAE@XZ				; kdu_kernels::~kdu_kernels
PUBLIC	??0kdu_line_buf@@QAE@XZ				; kdu_line_buf::kdu_line_buf
PUBLIC	?pre_create@kdu_line_buf@@QAEXPAVkdu_sample_allocator@@H_N1HH@Z ; kdu_line_buf::pre_create
PUBLIC	??1kd_multi_analysis_base@@UAE@XZ		; kd_multi_analysis_base::~kd_multi_analysis_base
PUBLIC	??_Gkd_multi_analysis_base@@UAEPAXI@Z		; kd_multi_analysis_base::`scalar deleting destructor'
PUBLIC	?create@kdu_multi_analysis@@QAE_JVkdu_codestream@@Vkdu_tile@@_NPAVkdu_roi_image@@2HPAVkdu_thread_env@@PAUkdu_thread_queue@@2@Z ; kdu_multi_analysis::create
PUBLIC	??1kd_multi_synthesis_base@@UAE@XZ		; kd_multi_synthesis_base::~kd_multi_synthesis_base
PUBLIC	??_Gkd_multi_synthesis_base@@UAEPAXI@Z		; kd_multi_synthesis_base::`scalar deleting destructor'
PUBLIC	?create@kdu_multi_synthesis@@QAE_JVkdu_codestream@@Vkdu_tile@@_N22HPAVkdu_thread_env@@PAUkdu_thread_queue@@2@Z ; kdu_multi_synthesis::create
PUBLIC	??0kd_multi_line@@QAE@XZ			; kd_multi_line::kd_multi_line
PUBLIC	?reset@kd_multi_line@@QAEXHM@Z			; kd_multi_line::reset
PUBLIC	?apply_offset@kd_multi_line@@QAEXHM@Z		; kd_multi_line::apply_offset
PUBLIC	?copy@kd_multi_line@@QAEXPAU1@HM@Z		; kd_multi_line::copy
PUBLIC	??1kd_multi_block@@UAE@XZ			; kd_multi_block::~kd_multi_block
PUBLIC	?normalize_coefficients@kd_multi_block@@UAEXXZ	; kd_multi_block::normalize_coefficients
PUBLIC	?propagate_bit_depths@kd_multi_block@@UAE_N_N0@Z ; kd_multi_block::propagate_bit_depths
PUBLIC	?perform_transform@kd_multi_block@@UAEXXZ	; kd_multi_block::perform_transform
PUBLIC	?prepare_for_inversion@kd_multi_block@@UAEPBDXZ	; kd_multi_block::prepare_for_inversion
PUBLIC	?perform_inverse@kd_multi_block@@UAEXXZ		; kd_multi_block::perform_inverse
PUBLIC	??_Gkd_multi_block@@UAEPAXI@Z			; kd_multi_block::`scalar deleting destructor'
PUBLIC	?initialize@kd_multi_null_block@@UAEXHHVkdu_tile@@HHPAUkd_multi_collection@@1PAVkd_multi_transform@@@Z ; kd_multi_null_block::initialize
PUBLIC	??_Gkd_multi_null_block@@UAEPAXI@Z		; kd_multi_null_block::`scalar deleting destructor'
PUBLIC	??1kd_multi_matrix_block@@UAE@XZ		; kd_multi_matrix_block::~kd_multi_matrix_block
PUBLIC	?initialize@kd_multi_matrix_block@@UAEXHHVkdu_tile@@HHPAUkd_multi_collection@@1PAVkd_multi_transform@@@Z ; kd_multi_matrix_block::initialize
PUBLIC	?normalize_coefficients@kd_multi_matrix_block@@UAEXXZ ; kd_multi_matrix_block::normalize_coefficients
PUBLIC	?perform_transform@kd_multi_matrix_block@@UAEXXZ ; kd_multi_matrix_block::perform_transform
PUBLIC	?prepare_for_inversion@kd_multi_matrix_block@@UAEPBDXZ ; kd_multi_matrix_block::prepare_for_inversion
PUBLIC	?perform_inverse@kd_multi_matrix_block@@UAEXXZ	; kd_multi_matrix_block::perform_inverse
PUBLIC	?create_short_coefficients@kd_multi_matrix_block@@AAEXH@Z ; kd_multi_matrix_block::create_short_coefficients
PUBLIC	?create_short_inverse_coefficients@kd_multi_matrix_block@@AAEXH@Z ; kd_multi_matrix_block::create_short_inverse_coefficients
PUBLIC	??_Gkd_multi_matrix_block@@UAEPAXI@Z		; kd_multi_matrix_block::`scalar deleting destructor'
PUBLIC	??1kd_multi_rxform_block@@UAE@XZ		; kd_multi_rxform_block::~kd_multi_rxform_block
PUBLIC	?initialize@kd_multi_rxform_block@@UAEXHHVkdu_tile@@HHPAUkd_multi_collection@@1PAVkd_multi_transform@@@Z ; kd_multi_rxform_block::initialize
PUBLIC	?perform_transform@kd_multi_rxform_block@@UAEXXZ ; kd_multi_rxform_block::perform_transform
PUBLIC	?prepare_for_inversion@kd_multi_rxform_block@@UAEPBDXZ ; kd_multi_rxform_block::prepare_for_inversion
PUBLIC	?perform_inverse@kd_multi_rxform_block@@UAEXXZ	; kd_multi_rxform_block::perform_inverse
PUBLIC	??_Gkd_multi_rxform_block@@UAEPAXI@Z		; kd_multi_rxform_block::`scalar deleting destructor'
PUBLIC	??1kd_multi_dependency_block@@UAE@XZ		; kd_multi_dependency_block::~kd_multi_dependency_block
PUBLIC	?initialize@kd_multi_dependency_block@@UAEXHHVkdu_tile@@HHPAUkd_multi_collection@@1PAVkd_multi_transform@@@Z ; kd_multi_dependency_block::initialize
PUBLIC	?normalize_coefficients@kd_multi_dependency_block@@UAEXXZ ; kd_multi_dependency_block::normalize_coefficients
PUBLIC	?perform_transform@kd_multi_dependency_block@@UAEXXZ ; kd_multi_dependency_block::perform_transform
PUBLIC	?prepare_for_inversion@kd_multi_dependency_block@@UAEPBDXZ ; kd_multi_dependency_block::prepare_for_inversion
PUBLIC	?perform_inverse@kd_multi_dependency_block@@UAEXXZ ; kd_multi_dependency_block::perform_inverse
PUBLIC	?create_short_matrix@kd_multi_dependency_block@@AAEXXZ ; kd_multi_dependency_block::create_short_matrix
PUBLIC	??_Gkd_multi_dependency_block@@UAEPAXI@Z	; kd_multi_dependency_block::`scalar deleting destructor'
PUBLIC	??0kd_multi_dwt_level@@QAE@XZ			; kd_multi_dwt_level::kd_multi_dwt_level
PUBLIC	??1kd_multi_dwt_level@@QAE@XZ			; kd_multi_dwt_level::~kd_multi_dwt_level
PUBLIC	??_Ekd_multi_dwt_level@@QAEPAXI@Z		; kd_multi_dwt_level::`vector deleting destructor'
PUBLIC	??1kd_multi_dwt_block@@UAE@XZ			; kd_multi_dwt_block::~kd_multi_dwt_block
PUBLIC	?initialize@kd_multi_dwt_block@@UAEXHHVkdu_tile@@HHPAUkd_multi_collection@@1PAVkd_multi_transform@@@Z ; kd_multi_dwt_block::initialize
PUBLIC	?normalize_coefficients@kd_multi_dwt_block@@UAEXXZ ; kd_multi_dwt_block::normalize_coefficients
PUBLIC	?propagate_bit_depths@kd_multi_dwt_block@@UAE_N_N0@Z ; kd_multi_dwt_block::propagate_bit_depths
PUBLIC	?perform_transform@kd_multi_dwt_block@@UAEXXZ	; kd_multi_dwt_block::perform_transform
PUBLIC	?prepare_for_inversion@kd_multi_dwt_block@@UAEPBDXZ ; kd_multi_dwt_block::prepare_for_inversion
PUBLIC	?perform_inverse@kd_multi_dwt_block@@UAEXXZ	; kd_multi_dwt_block::perform_inverse
PUBLIC	??_Gkd_multi_dwt_block@@UAEPAXI@Z		; kd_multi_dwt_block::`scalar deleting destructor'
PUBLIC	??0kd_multi_component@@QAE@XZ			; kd_multi_component::kd_multi_component
PUBLIC	??1kd_multi_component@@UAE@XZ			; kd_multi_component::~kd_multi_component
PUBLIC	?do_job@kd_multi_component@@UAEXPAVkdu_thread_entity@@H@Z ; kd_multi_component::do_job
PUBLIC	??_Ekd_multi_component@@UAEPAXI@Z		; kd_multi_component::`vector deleting destructor'
PUBLIC	??1kd_multi_transform@@UAE@XZ			; kd_multi_transform::~kd_multi_transform
PUBLIC	?get_scratch_ints@kd_multi_transform@@QAEPAHH@Z	; kd_multi_transform::get_scratch_ints
PUBLIC	?get_scratch_floats@kd_multi_transform@@QAEPAMH@Z ; kd_multi_transform::get_scratch_floats
PUBLIC	?construct@kd_multi_transform@@IAEXVkdu_codestream@@Vkdu_tile@@_N22HPAVkdu_thread_env@@PAUkdu_thread_queue@@2@Z ; kd_multi_transform::construct
PUBLIC	?create_resources@kd_multi_transform@@IAEXXZ	; kd_multi_transform::create_resources
PUBLIC	?propagate_knowledge@kd_multi_transform@@AAE_N_N@Z ; kd_multi_transform::propagate_knowledge
PUBLIC	??_Gkd_multi_transform@@UAEPAXI@Z		; kd_multi_transform::`scalar deleting destructor'
PUBLIC	??1kd_multi_synthesis@@UAE@XZ			; kd_multi_synthesis::~kd_multi_synthesis
PUBLIC	?terminate_queues@kd_multi_synthesis@@UAEXPAVkdu_thread_env@@@Z ; kd_multi_synthesis::terminate_queues
PUBLIC	?create@kd_multi_synthesis@@QAE_JVkdu_codestream@@Vkdu_tile@@_N22HPAVkdu_thread_env@@PAUkdu_thread_queue@@2@Z ; kd_multi_synthesis::create
PUBLIC	?get_size@kd_multi_synthesis@@UAE?AUkdu_coords@@H@Z ; kd_multi_synthesis::get_size
PUBLIC	?get_line@kd_multi_synthesis@@UAEPAVkdu_line_buf@@HPAVkdu_thread_env@@@Z ; kd_multi_synthesis::get_line
PUBLIC	?is_line_precise@kd_multi_synthesis@@UAE_NH@Z	; kd_multi_synthesis::is_line_precise
PUBLIC	?is_line_absolute@kd_multi_synthesis@@UAE_NH@Z	; kd_multi_synthesis::is_line_absolute
PUBLIC	?get_line@kd_multi_synthesis@@AAEPAVkdu_line_buf@@PAUkd_multi_line@@HPAVkdu_thread_env@@@Z ; kd_multi_synthesis::get_line
PUBLIC	??_Gkd_multi_synthesis@@UAEPAXI@Z		; kd_multi_synthesis::`scalar deleting destructor'
PUBLIC	??1kd_multi_analysis@@UAE@XZ			; kd_multi_analysis::~kd_multi_analysis
PUBLIC	?terminate_queues@kd_multi_analysis@@UAEXPAVkdu_thread_env@@@Z ; kd_multi_analysis::terminate_queues
PUBLIC	?create@kd_multi_analysis@@QAE_JVkdu_codestream@@Vkdu_tile@@_NPAVkdu_roi_image@@2HPAVkdu_thread_env@@PAUkdu_thread_queue@@2@Z ; kd_multi_analysis::create
PUBLIC	?get_size@kd_multi_analysis@@UAE?AUkdu_coords@@H@Z ; kd_multi_analysis::get_size
PUBLIC	?exchange_line@kd_multi_analysis@@UAEPAVkdu_line_buf@@HPAV2@PAVkdu_thread_env@@@Z ; kd_multi_analysis::exchange_line
PUBLIC	?is_line_precise@kd_multi_analysis@@UAE_NH@Z	; kd_multi_analysis::is_line_precise
PUBLIC	?is_line_absolute@kd_multi_analysis@@UAE_NH@Z	; kd_multi_analysis::is_line_absolute
PUBLIC	?prepare_network_for_inversion@kd_multi_analysis@@AAEXXZ ; kd_multi_analysis::prepare_network_for_inversion
PUBLIC	?advance_line@kd_multi_analysis@@AAEXPAUkd_multi_line@@HPAVkdu_thread_env@@@Z ; kd_multi_analysis::advance_line
PUBLIC	??_Gkd_multi_analysis@@UAEPAXI@Z		; kd_multi_analysis::`scalar deleting destructor'
PUBLIC	??_Ekd_multi_synthesis@@W3AEPAXI@Z		; [thunk]:kd_multi_synthesis::`vector deleting destructor'
PUBLIC	??_Ekd_multi_analysis@@W3AEPAXI@Z		; [thunk]:kd_multi_analysis::`vector deleting destructor'
PUBLIC	?_OptionsStorage@?1??__local_stdio_printf_options@@9@4_KA ; `__local_stdio_printf_options'::`2'::_OptionsStorage
PUBLIC	??_C@_02NJNOFBBI@?$CFx?$AA@			; `string'
PUBLIC	??_C@_02DPKJAMEF@?$CFd?$AA@			; `string'
PUBLIC	??_7kdu_worker@@6B@				; kdu_worker::`vftable'
PUBLIC	??_7kd_multi_analysis_base@@6B@			; kd_multi_analysis_base::`vftable'
PUBLIC	??_7kd_multi_synthesis_base@@6B@		; kd_multi_synthesis_base::`vftable'
PUBLIC	??_7kd_multi_block@@6B@				; kd_multi_block::`vftable'
PUBLIC	??_C@_0ED@KEGEGAOK@Unimplemented?5multi?9component?5tr@ ; `string'
PUBLIC	??_7kd_multi_null_block@@6B@			; kd_multi_null_block::`vftable'
PUBLIC	??_7kd_multi_matrix_block@@6B@			; kd_multi_matrix_block::`vftable'
PUBLIC	??_7kd_multi_rxform_block@@6B@			; kd_multi_rxform_block::`vftable'
PUBLIC	??_7kd_multi_dependency_block@@6B@		; kd_multi_dependency_block::`vftable'
PUBLIC	??_7kd_multi_dwt_block@@6B@			; kd_multi_dwt_block::`vftable'
PUBLIC	??_7kd_multi_component@@6B@			; kd_multi_component::`vftable'
PUBLIC	??_7kd_multi_transform@@6B@			; kd_multi_transform::`vftable'
PUBLIC	??_7kd_multi_synthesis@@6Bkd_multi_synthesis_base@@@ ; kd_multi_synthesis::`vftable'
PUBLIC	??_7kd_multi_synthesis@@6Bkd_multi_transform@@@	; kd_multi_synthesis::`vftable'
PUBLIC	??_7kd_multi_analysis@@6Bkd_multi_analysis_base@@@ ; kd_multi_analysis::`vftable'
PUBLIC	??_7kd_multi_analysis@@6Bkd_multi_transform@@@	; kd_multi_analysis::`vftable'
PUBLIC	??_C@_0BE@DHNHLPAL@component?5processor?$AA@	; `string'
PUBLIC	??_C@_0BE@KMIJLGEL@Kakadu?5Core?5Error?3?6?$AA@	; `string'
PUBLIC	??_C@_0CCJ@OBHDBNBL@Cannot?5implement?5multi?9component@ ; `string'
PUBLIC	??_C@_0BDP@OMPOBFOO@Part?92?5codestream?5declares?5a?5cod@ ; `string'
PUBLIC	??_C@_0DGI@MLEJMJIK@Cannot?5implement?5multi?9component@ ; `string'
PUBLIC	??_C@_0CLD@EIGIPOMM@Cannot?5perform?5forward?5multi?9com@ ; `string'
PUBLIC	??_C@_0DK@DNEDNIAC@?5?5The?5following?5additional?5expla@ ; `string'
PUBLIC	??_C@_0LC@FOOLOFAN@Encountered?5underdetermined?5syst@ ; `string'
PUBLIC	??_C@_0CBL@NHJPLOG@Encountered?5an?5irreversible?5deco@ ; `string'
PUBLIC	??_C@_0BAH@FNBHAICK@Near?5singular?5irreversible?5decor@ ; `string'
PUBLIC	??_C@_0KM@JOCABHJL@Reversible?5decorrelation?5transfo@ ; `string'
PUBLIC	??_C@_0LJ@PJJIHOJD@Multi?9component?5reversible?5decor@ ; `string'
PUBLIC	??_C@_01LFCBOECM@?4?$AA@			; `string'
PUBLIC	??_C@_0MO@CPPIDHHM@Dependency?5transform?5block?5canno@ ; `string'
PUBLIC	??_C@_0CBI@FDCMKGLL@Encountered?5an?5irreversible?5depe@ ; `string'
PUBLIC	??_C@_0OO@CDGHEAGO@Multi?9component?5reversible?5depen@ ; `string'
PUBLIC	??_C@_0MD@NOKJMJMF@DWT?5transform?5block?5cannot?5be?5in@ ; `string'
PUBLIC	??_C@_0CBB@DNHOHNJD@Encountered?5an?5irreversible?5DWT?5@ ; `string'
PUBLIC	??_C@_0BGL@OKHHJDHO@Inconsistent?5bit?9depths?5encounte@ ; `string'
PUBLIC	??_R4kdu_worker@@6B@				; kdu_worker::`RTTI Complete Object Locator'
PUBLIC	??_R0?AVkdu_worker@@@8				; kdu_worker `RTTI Type Descriptor'
PUBLIC	??_R3kdu_worker@@8				; kdu_worker::`RTTI Class Hierarchy Descriptor'
PUBLIC	??_R2kdu_worker@@8				; kdu_worker::`RTTI Base Class Array'
PUBLIC	??_R1A@?0A@EA@kdu_worker@@8			; kdu_worker::`RTTI Base Class Descriptor at (0,-1,0,64)'
PUBLIC	??_R4kd_multi_analysis_base@@6B@		; kd_multi_analysis_base::`RTTI Complete Object Locator'
PUBLIC	??_R0?AVkd_multi_analysis_base@@@8		; kd_multi_analysis_base `RTTI Type Descriptor'
PUBLIC	??_R3kd_multi_analysis_base@@8			; kd_multi_analysis_base::`RTTI Class Hierarchy Descriptor'
PUBLIC	??_R2kd_multi_analysis_base@@8			; kd_multi_analysis_base::`RTTI Base Class Array'
PUBLIC	??_R1A@?0A@EA@kd_multi_analysis_base@@8		; kd_multi_analysis_base::`RTTI Base Class Descriptor at (0,-1,0,64)'
PUBLIC	??_R4kd_multi_synthesis_base@@6B@		; kd_multi_synthesis_base::`RTTI Complete Object Locator'
PUBLIC	??_R0?AVkd_multi_synthesis_base@@@8		; kd_multi_synthesis_base `RTTI Type Descriptor'
PUBLIC	??_R3kd_multi_synthesis_base@@8			; kd_multi_synthesis_base::`RTTI Class Hierarchy Descriptor'
PUBLIC	??_R2kd_multi_synthesis_base@@8			; kd_multi_synthesis_base::`RTTI Base Class Array'
PUBLIC	??_R1A@?0A@EA@kd_multi_synthesis_base@@8	; kd_multi_synthesis_base::`RTTI Base Class Descriptor at (0,-1,0,64)'
PUBLIC	??_R4kd_multi_component@@6B@			; kd_multi_component::`RTTI Complete Object Locator'
PUBLIC	??_R0?AVkd_multi_component@@@8			; kd_multi_component `RTTI Type Descriptor'
PUBLIC	??_R3kd_multi_component@@8			; kd_multi_component::`RTTI Class Hierarchy Descriptor'
PUBLIC	??_R2kd_multi_component@@8			; kd_multi_component::`RTTI Base Class Array'
PUBLIC	??_R1A@?0A@EA@kd_multi_component@@8		; kd_multi_component::`RTTI Base Class Descriptor at (0,-1,0,64)'
PUBLIC	??_R4kd_multi_block@@6B@			; kd_multi_block::`RTTI Complete Object Locator'
PUBLIC	??_R0?AVkd_multi_block@@@8			; kd_multi_block `RTTI Type Descriptor'
PUBLIC	??_R3kd_multi_block@@8				; kd_multi_block::`RTTI Class Hierarchy Descriptor'
PUBLIC	??_R2kd_multi_block@@8				; kd_multi_block::`RTTI Base Class Array'
PUBLIC	??_R1A@?0A@EA@kd_multi_block@@8			; kd_multi_block::`RTTI Base Class Descriptor at (0,-1,0,64)'
PUBLIC	??_R4kd_multi_null_block@@6B@			; kd_multi_null_block::`RTTI Complete Object Locator'
PUBLIC	??_R0?AVkd_multi_null_block@@@8			; kd_multi_null_block `RTTI Type Descriptor'
PUBLIC	??_R3kd_multi_null_block@@8			; kd_multi_null_block::`RTTI Class Hierarchy Descriptor'
PUBLIC	??_R2kd_multi_null_block@@8			; kd_multi_null_block::`RTTI Base Class Array'
PUBLIC	??_R1A@?0A@EA@kd_multi_null_block@@8		; kd_multi_null_block::`RTTI Base Class Descriptor at (0,-1,0,64)'
PUBLIC	??_R4kd_multi_matrix_block@@6B@			; kd_multi_matrix_block::`RTTI Complete Object Locator'
PUBLIC	??_R0?AVkd_multi_matrix_block@@@8		; kd_multi_matrix_block `RTTI Type Descriptor'
PUBLIC	??_R3kd_multi_matrix_block@@8			; kd_multi_matrix_block::`RTTI Class Hierarchy Descriptor'
PUBLIC	??_R2kd_multi_matrix_block@@8			; kd_multi_matrix_block::`RTTI Base Class Array'
PUBLIC	??_R1A@?0A@EA@kd_multi_matrix_block@@8		; kd_multi_matrix_block::`RTTI Base Class Descriptor at (0,-1,0,64)'
PUBLIC	??_R4kd_multi_dependency_block@@6B@		; kd_multi_dependency_block::`RTTI Complete Object Locator'
PUBLIC	??_R0?AVkd_multi_dependency_block@@@8		; kd_multi_dependency_block `RTTI Type Descriptor'
PUBLIC	??_R3kd_multi_dependency_block@@8		; kd_multi_dependency_block::`RTTI Class Hierarchy Descriptor'
PUBLIC	??_R2kd_multi_dependency_block@@8		; kd_multi_dependency_block::`RTTI Base Class Array'
PUBLIC	??_R1A@?0A@EA@kd_multi_dependency_block@@8	; kd_multi_dependency_block::`RTTI Base Class Descriptor at (0,-1,0,64)'
PUBLIC	??_R4kd_multi_rxform_block@@6B@			; kd_multi_rxform_block::`RTTI Complete Object Locator'
PUBLIC	??_R0?AVkd_multi_rxform_block@@@8		; kd_multi_rxform_block `RTTI Type Descriptor'
PUBLIC	??_R3kd_multi_rxform_block@@8			; kd_multi_rxform_block::`RTTI Class Hierarchy Descriptor'
PUBLIC	??_R2kd_multi_rxform_block@@8			; kd_multi_rxform_block::`RTTI Base Class Array'
PUBLIC	??_R1A@?0A@EA@kd_multi_rxform_block@@8		; kd_multi_rxform_block::`RTTI Base Class Descriptor at (0,-1,0,64)'
PUBLIC	??_R4kd_multi_dwt_block@@6B@			; kd_multi_dwt_block::`RTTI Complete Object Locator'
PUBLIC	??_R0?AVkd_multi_dwt_block@@@8			; kd_multi_dwt_block `RTTI Type Descriptor'
PUBLIC	??_R3kd_multi_dwt_block@@8			; kd_multi_dwt_block::`RTTI Class Hierarchy Descriptor'
PUBLIC	??_R2kd_multi_dwt_block@@8			; kd_multi_dwt_block::`RTTI Base Class Array'
PUBLIC	??_R1A@?0A@EA@kd_multi_dwt_block@@8		; kd_multi_dwt_block::`RTTI Base Class Descriptor at (0,-1,0,64)'
PUBLIC	??_R4kd_multi_transform@@6B@			; kd_multi_transform::`RTTI Complete Object Locator'
PUBLIC	??_R0?AVkd_multi_transform@@@8			; kd_multi_transform `RTTI Type Descriptor'
PUBLIC	??_R3kd_multi_transform@@8			; kd_multi_transform::`RTTI Class Hierarchy Descriptor'
PUBLIC	??_R2kd_multi_transform@@8			; kd_multi_transform::`RTTI Base Class Array'
PUBLIC	??_R1A@?0A@EA@kd_multi_transform@@8		; kd_multi_transform::`RTTI Base Class Descriptor at (0,-1,0,64)'
PUBLIC	??_R4kd_multi_synthesis@@6Bkd_multi_synthesis_base@@@ ; kd_multi_synthesis::`RTTI Complete Object Locator'
PUBLIC	??_R0?AVkd_multi_synthesis@@@8			; kd_multi_synthesis `RTTI Type Descriptor'
PUBLIC	??_R3kd_multi_synthesis@@8			; kd_multi_synthesis::`RTTI Class Hierarchy Descriptor'
PUBLIC	??_R2kd_multi_synthesis@@8			; kd_multi_synthesis::`RTTI Base Class Array'
PUBLIC	??_R1A@?0A@EA@kd_multi_synthesis@@8		; kd_multi_synthesis::`RTTI Base Class Descriptor at (0,-1,0,64)'
PUBLIC	??_R13?0A@EA@kd_multi_transform@@8		; kd_multi_transform::`RTTI Base Class Descriptor at (4,-1,0,64)'
PUBLIC	??_R4kd_multi_synthesis@@6Bkd_multi_transform@@@ ; kd_multi_synthesis::`RTTI Complete Object Locator'
PUBLIC	??_R4kd_multi_analysis@@6Bkd_multi_analysis_base@@@ ; kd_multi_analysis::`RTTI Complete Object Locator'
PUBLIC	??_R0?AVkd_multi_analysis@@@8			; kd_multi_analysis `RTTI Type Descriptor'
PUBLIC	??_R3kd_multi_analysis@@8			; kd_multi_analysis::`RTTI Class Hierarchy Descriptor'
PUBLIC	??_R2kd_multi_analysis@@8			; kd_multi_analysis::`RTTI Base Class Array'
PUBLIC	??_R1A@?0A@EA@kd_multi_analysis@@8		; kd_multi_analysis::`RTTI Base Class Descriptor at (0,-1,0,64)'
PUBLIC	??_R4kd_multi_analysis@@6Bkd_multi_transform@@@	; kd_multi_analysis::`RTTI Complete Object Locator'
PUBLIC	__real@00000000
PUBLIC	__real@3727c5ac
PUBLIC	__real@3d3c25c268497682
PUBLIC	__real@3ecccccd
PUBLIC	__real@3eff7cee
PUBLIC	__real@3f000000
PUBLIC	__real@3f800000
PUBLIC	__real@3fe0000000000000
PUBLIC	__real@3ff0000000000000
PUBLIC	__real@40000000
PUBLIC	__real@4018000000000000
PUBLIC	__real@46000000
PUBLIC	__real@467ffc00
PUBLIC	__real@46fffe00
PUBLIC	__xmm@80000000000000008000000000000000
PUBLIC	__xmm@80000000800000008000000080000000
EXTRN	??_L@YGXPAXIIP6EX0@Z1@Z:PROC			; `eh vector constructor iterator'
EXTRN	??_M@YGXPAXIIP6EX0@Z@Z:PROC			; `eh vector destructor iterator'
EXTRN	__purecall:PROC
EXTRN	??2@YAPAXI@Z:PROC				; operator new
EXTRN	??3@YAXPAXI@Z:PROC				; operator delete
EXTRN	??_U@YAPAXI@Z:PROC				; operator new[]
EXTRN	??_V@YAXPAX@Z:PROC				; operator delete[]
EXTRN	??_V@YAXPAXI@Z:PROC				; operator delete[]
EXTRN	___std_terminate:PROC
EXTRN	__imp____stdio_common_vsprintf:PROC
EXTRN	??0kdu_error@@QAE@PBD@Z:PROC			; kdu_error::kdu_error
EXTRN	??1kdu_error@@UAE@XZ:PROC			; kdu_error::~kdu_error
EXTRN	??_Ekdu_worker@@UAEPAXI@Z:PROC			; kdu_worker::`vector deleting destructor'
EXTRN	?get_num_threads@kdu_thread_entity@@QAEHXZ:PROC	; kdu_thread_entity::get_num_threads
EXTRN	?add_queue@kdu_thread_entity@@QAEPAUkdu_thread_queue@@PAVkdu_worker@@PAU2@PBD_J@Z:PROC ; kdu_thread_entity::add_queue
EXTRN	?add_jobs@kdu_thread_entity@@QAEXPAUkdu_thread_queue@@H_NI@Z:PROC ; kdu_thread_entity::add_jobs
EXTRN	?terminate@kdu_thread_entity@@QAE_NPAUkdu_thread_queue@@_NPAH@Z:PROC ; kdu_thread_entity::terminate
EXTRN	?process_jobs@kdu_thread_entity@@QAE_NPAUkdu_thread_queue@@_N1@Z:PROC ; kdu_thread_entity::process_jobs
EXTRN	?init@kdu_kernels@@QAEXHPBUkdu_kernel_step_info@@PBM_N22@Z:PROC ; kdu_kernels::init
EXTRN	?get_impulse_response@kdu_kernels@@QAEPAMW4kdu_kernel_type@@AAHPAH2@Z:PROC ; kdu_kernels::get_impulse_response
EXTRN	?get_bibo_gains@kdu_kernels@@QAEPANHHQA_NAAN1@Z:PROC ; kdu_kernels::get_bibo_gains
EXTRN	?clear@kdu_kernels@@AAEXXZ:PROC			; kdu_kernels::clear
EXTRN	?reset@kdu_kernels@@AAEXXZ:PROC			; kdu_kernels::reset
EXTRN	?get_bit_depth@kdu_codestream@@QAEHH_N@Z:PROC	; kdu_codestream::get_bit_depth
EXTRN	?get_signed@kdu_codestream@@QAE_NH_N@Z:PROC	; kdu_codestream::get_signed
EXTRN	?get_tile_dims@kdu_codestream@@QAEXUkdu_coords@@HAAUkdu_dims@@_N@Z:PROC ; kdu_codestream::get_tile_dims
EXTRN	?get_tile_idx@kdu_tile@@QAE?AUkdu_coords@@XZ:PROC ; kdu_tile::get_tile_idx
EXTRN	?get_ycc@kdu_tile@@QAE_NXZ:PROC			; kdu_tile::get_ycc
EXTRN	?get_mct_block_info@kdu_tile@@QAE_NHHAAH000PAH1PAM11@Z:PROC ; kdu_tile::get_mct_block_info
EXTRN	?get_mct_matrix_info@kdu_tile@@QAE_NHHPAM@Z:PROC ; kdu_tile::get_mct_matrix_info
EXTRN	?get_mct_rxform_info@kdu_tile@@QAE_NHHPAH0@Z:PROC ; kdu_tile::get_mct_rxform_info
EXTRN	?get_mct_dependency_info@kdu_tile@@QAE_NHHAA_NPAM1PAH22@Z:PROC ; kdu_tile::get_mct_dependency_info
EXTRN	?get_mct_dwt_info@kdu_tile@@QAEPBUkdu_kernel_step_info@@HHAA_NAAH11100AAPBMPAH3@Z:PROC ; kdu_tile::get_mct_dwt_info
EXTRN	?access_component@kdu_tile@@QAE?AVkdu_tile_comp@@H@Z:PROC ; kdu_tile::access_component
EXTRN	?get_reversible@kdu_tile_comp@@QAE_NXZ:PROC	; kdu_tile_comp::get_reversible
EXTRN	?get_bit_depth@kdu_tile_comp@@QAEH_N@Z:PROC	; kdu_tile_comp::get_bit_depth
EXTRN	?access_resolution@kdu_tile_comp@@QAE?AVkdu_resolution@@XZ:PROC ; kdu_tile_comp::access_resolution
EXTRN	?which@kdu_resolution@@QAEHXZ:PROC		; kdu_resolution::which
EXTRN	?get_dims@kdu_resolution@@QAEXAAUkdu_dims@@@Z:PROC ; kdu_resolution::get_dims
EXTRN	?access_subband@kdu_resolution@@QAE?AVkdu_subband@@H@Z:PROC ; kdu_resolution::access_subband
EXTRN	??0kdu_analysis@@QAE@Vkdu_resolution@@PAVkdu_sample_allocator@@_NMPAVkdu_roi_node@@PAVkdu_thread_env@@PAUkdu_thread_queue@@@Z:PROC ; kdu_analysis::kdu_analysis
EXTRN	??0kdu_synthesis@@QAE@Vkdu_resolution@@PAVkdu_sample_allocator@@_NMPAVkdu_thread_env@@PAUkdu_thread_queue@@@Z:PROC ; kdu_synthesis::kdu_synthesis
EXTRN	??0kdu_encoder@@QAE@Vkdu_subband@@PAVkdu_sample_allocator@@_NMPAVkdu_roi_node@@PAVkdu_thread_env@@PAUkdu_thread_queue@@@Z:PROC ; kdu_encoder::kdu_encoder
EXTRN	??0kdu_decoder@@QAE@Vkdu_subband@@PAVkdu_sample_allocator@@_NMHPAVkdu_thread_env@@PAUkdu_thread_queue@@@Z:PROC ; kdu_decoder::kdu_decoder
EXTRN	??_Ekd_multi_analysis_base@@UAEPAXI@Z:PROC	; kd_multi_analysis_base::`vector deleting destructor'
EXTRN	??_Ekd_multi_synthesis_base@@UAEPAXI@Z:PROC	; kd_multi_synthesis_base::`vector deleting destructor'
EXTRN	?kdu_convert_rgb_to_ycc@@YAXAAVkdu_line_buf@@00@Z:PROC ; kdu_convert_rgb_to_ycc
EXTRN	?kdu_convert_ycc_to_rgb@@YAXAAVkdu_line_buf@@00H@Z:PROC ; kdu_convert_ycc_to_rgb
EXTRN	?perform_synthesis_lifting_step@@YAXPAUkd_lifting_step@@QAPATkdu_sample16@@PAT2@2HH@Z:PROC ; perform_synthesis_lifting_step
EXTRN	?perform_synthesis_lifting_step@@YAXPAUkd_lifting_step@@QAPATkdu_sample32@@PAT2@2HH@Z:PROC ; perform_synthesis_lifting_step
EXTRN	?perform_analysis_lifting_step@@YAXPAUkd_lifting_step@@QAPATkdu_sample16@@PAT2@2HH@Z:PROC ; perform_analysis_lifting_step
EXTRN	?perform_analysis_lifting_step@@YAXPAUkd_lifting_step@@QAPATkdu_sample32@@PAT2@2HH@Z:PROC ; perform_analysis_lifting_step
EXTRN	??_Ekd_multi_block@@UAEPAXI@Z:PROC		; kd_multi_block::`vector deleting destructor'
EXTRN	??_Ekd_multi_null_block@@UAEPAXI@Z:PROC		; kd_multi_null_block::`vector deleting destructor'
EXTRN	??_Ekd_multi_matrix_block@@UAEPAXI@Z:PROC	; kd_multi_matrix_block::`vector deleting destructor'
EXTRN	??_Ekd_multi_rxform_block@@UAEPAXI@Z:PROC	; kd_multi_rxform_block::`vector deleting destructor'
EXTRN	??_Ekd_multi_dependency_block@@UAEPAXI@Z:PROC	; kd_multi_dependency_block::`vector deleting destructor'
EXTRN	??_Ekd_multi_dwt_block@@UAEPAXI@Z:PROC		; kd_multi_dwt_block::`vector deleting destructor'
EXTRN	??_Ekd_multi_transform@@UAEPAXI@Z:PROC		; kd_multi_transform::`vector deleting destructor'
EXTRN	??_Ekd_multi_synthesis@@UAEPAXI@Z:PROC		; kd_multi_synthesis::`vector deleting destructor'
EXTRN	??_Ekd_multi_analysis@@UAEPAXI@Z:PROC		; kd_multi_analysis::`vector deleting destructor'
EXTRN	@__security_check_cookie@4:PROC
EXTRN	___CxxFrameHandler3:PROC
EXTRN	__ftol2_sse:PROC
EXTRN	__libm_sse2_sqrt_precise:PROC
EXTRN	_floor:PROC
EXTRN	_memset:PROC
EXTRN	??_7type_info@@6B@:QWORD			; type_info::`vftable'
EXTRN	___security_cookie:DWORD
EXTRN	__fltused:DWORD
;	COMDAT ?_OptionsStorage@?1??__local_stdio_printf_options@@9@4_KA
_BSS	SEGMENT
?_OptionsStorage@?1??__local_stdio_printf_options@@9@4_KA DQ 01H DUP (?) ; `__local_stdio_printf_options'::`2'::_OptionsStorage
_BSS	ENDS
;	COMDAT __xmm@80000000800000008000000080000000
CONST	SEGMENT
__xmm@80000000800000008000000080000000 DB 00H, 00H, 00H, 080H, 00H, 00H, 00H
	DB	080H, 00H, 00H, 00H, 080H, 00H, 00H, 00H, 080H
CONST	ENDS
;	COMDAT __xmm@80000000000000008000000000000000
CONST	SEGMENT
__xmm@80000000000000008000000000000000 DB 00H, 00H, 00H, 00H, 00H, 00H, 00H
	DB	080H, 00H, 00H, 00H, 00H, 00H, 00H, 00H, 080H
CONST	ENDS
;	COMDAT __real@46fffe00
CONST	SEGMENT
__real@46fffe00 DD 046fffe00r			; 32767
CONST	ENDS
;	COMDAT __real@467ffc00
CONST	SEGMENT
__real@467ffc00 DD 0467ffc00r			; 16383
CONST	ENDS
;	COMDAT __real@46000000
CONST	SEGMENT
__real@46000000 DD 046000000r			; 8192
CONST	ENDS
;	COMDAT __real@4018000000000000
CONST	SEGMENT
__real@4018000000000000 DQ 04018000000000000r	; 6
CONST	ENDS
;	COMDAT __real@40000000
CONST	SEGMENT
__real@40000000 DD 040000000r			; 2
CONST	ENDS
;	COMDAT __real@3ff0000000000000
CONST	SEGMENT
__real@3ff0000000000000 DQ 03ff0000000000000r	; 1
CONST	ENDS
;	COMDAT __real@3fe0000000000000
CONST	SEGMENT
__real@3fe0000000000000 DQ 03fe0000000000000r	; 0.5
CONST	ENDS
;	COMDAT __real@3f800000
CONST	SEGMENT
__real@3f800000 DD 03f800000r			; 1
CONST	ENDS
;	COMDAT __real@3f000000
CONST	SEGMENT
__real@3f000000 DD 03f000000r			; 0.5
CONST	ENDS
;	COMDAT __real@3eff7cee
CONST	SEGMENT
__real@3eff7cee DD 03eff7ceer			; 0.499
CONST	ENDS
;	COMDAT __real@3ecccccd
CONST	SEGMENT
__real@3ecccccd DD 03ecccccdr			; 0.4
CONST	ENDS
;	COMDAT __real@3d3c25c268497682
CONST	SEGMENT
__real@3d3c25c268497682 DQ 03d3c25c268497682r	; 1e-13
CONST	ENDS
;	COMDAT __real@3727c5ac
CONST	SEGMENT
__real@3727c5ac DD 03727c5acr			; 1e-05
CONST	ENDS
;	COMDAT __real@00000000
CONST	SEGMENT
__real@00000000 DD 000000000r			; 0
CONST	ENDS
;	COMDAT ??_R4kd_multi_analysis@@6Bkd_multi_transform@@@
rdata$r	SEGMENT
??_R4kd_multi_analysis@@6Bkd_multi_transform@@@ DD 00H	; kd_multi_analysis::`RTTI Complete Object Locator'
	DD	04H
	DD	00H
	DD	FLAT:??_R0?AVkd_multi_analysis@@@8
	DD	FLAT:??_R3kd_multi_analysis@@8
rdata$r	ENDS
;	COMDAT ??_R1A@?0A@EA@kd_multi_analysis@@8
rdata$r	SEGMENT
??_R1A@?0A@EA@kd_multi_analysis@@8 DD FLAT:??_R0?AVkd_multi_analysis@@@8 ; kd_multi_analysis::`RTTI Base Class Descriptor at (0,-1,0,64)'
	DD	02H
	DD	00H
	DD	0ffffffffH
	DD	00H
	DD	040H
	DD	FLAT:??_R3kd_multi_analysis@@8
rdata$r	ENDS
;	COMDAT ??_R2kd_multi_analysis@@8
rdata$r	SEGMENT
??_R2kd_multi_analysis@@8 DD FLAT:??_R1A@?0A@EA@kd_multi_analysis@@8 ; kd_multi_analysis::`RTTI Base Class Array'
	DD	FLAT:??_R1A@?0A@EA@kd_multi_analysis_base@@8
	DD	FLAT:??_R13?0A@EA@kd_multi_transform@@8
rdata$r	ENDS
;	COMDAT ??_R3kd_multi_analysis@@8
rdata$r	SEGMENT
??_R3kd_multi_analysis@@8 DD 00H			; kd_multi_analysis::`RTTI Class Hierarchy Descriptor'
	DD	01H
	DD	03H
	DD	FLAT:??_R2kd_multi_analysis@@8
rdata$r	ENDS
;	COMDAT ??_R0?AVkd_multi_analysis@@@8
data$r	SEGMENT
??_R0?AVkd_multi_analysis@@@8 DD FLAT:??_7type_info@@6B@ ; kd_multi_analysis `RTTI Type Descriptor'
	DD	00H
	DB	'.?AVkd_multi_analysis@@', 00H
data$r	ENDS
;	COMDAT ??_R4kd_multi_analysis@@6Bkd_multi_analysis_base@@@
rdata$r	SEGMENT
??_R4kd_multi_analysis@@6Bkd_multi_analysis_base@@@ DD 00H ; kd_multi_analysis::`RTTI Complete Object Locator'
	DD	00H
	DD	00H
	DD	FLAT:??_R0?AVkd_multi_analysis@@@8
	DD	FLAT:??_R3kd_multi_analysis@@8
rdata$r	ENDS
;	COMDAT ??_R4kd_multi_synthesis@@6Bkd_multi_transform@@@
rdata$r	SEGMENT
??_R4kd_multi_synthesis@@6Bkd_multi_transform@@@ DD 00H	; kd_multi_synthesis::`RTTI Complete Object Locator'
	DD	04H
	DD	00H
	DD	FLAT:??_R0?AVkd_multi_synthesis@@@8
	DD	FLAT:??_R3kd_multi_synthesis@@8
rdata$r	ENDS
;	COMDAT ??_R13?0A@EA@kd_multi_transform@@8
rdata$r	SEGMENT
??_R13?0A@EA@kd_multi_transform@@8 DD FLAT:??_R0?AVkd_multi_transform@@@8 ; kd_multi_transform::`RTTI Base Class Descriptor at (4,-1,0,64)'
	DD	00H
	DD	04H
	DD	0ffffffffH
	DD	00H
	DD	040H
	DD	FLAT:??_R3kd_multi_transform@@8
rdata$r	ENDS
;	COMDAT ??_R1A@?0A@EA@kd_multi_synthesis@@8
rdata$r	SEGMENT
??_R1A@?0A@EA@kd_multi_synthesis@@8 DD FLAT:??_R0?AVkd_multi_synthesis@@@8 ; kd_multi_synthesis::`RTTI Base Class Descriptor at (0,-1,0,64)'
	DD	02H
	DD	00H
	DD	0ffffffffH
	DD	00H
	DD	040H
	DD	FLAT:??_R3kd_multi_synthesis@@8
rdata$r	ENDS
;	COMDAT ??_R2kd_multi_synthesis@@8
rdata$r	SEGMENT
??_R2kd_multi_synthesis@@8 DD FLAT:??_R1A@?0A@EA@kd_multi_synthesis@@8 ; kd_multi_synthesis::`RTTI Base Class Array'
	DD	FLAT:??_R1A@?0A@EA@kd_multi_synthesis_base@@8
	DD	FLAT:??_R13?0A@EA@kd_multi_transform@@8
rdata$r	ENDS
;	COMDAT ??_R3kd_multi_synthesis@@8
rdata$r	SEGMENT
??_R3kd_multi_synthesis@@8 DD 00H			; kd_multi_synthesis::`RTTI Class Hierarchy Descriptor'
	DD	01H
	DD	03H
	DD	FLAT:??_R2kd_multi_synthesis@@8
rdata$r	ENDS
;	COMDAT ??_R0?AVkd_multi_synthesis@@@8
data$r	SEGMENT
??_R0?AVkd_multi_synthesis@@@8 DD FLAT:??_7type_info@@6B@ ; kd_multi_synthesis `RTTI Type Descriptor'
	DD	00H
	DB	'.?AVkd_multi_synthesis@@', 00H
data$r	ENDS
;	COMDAT ??_R4kd_multi_synthesis@@6Bkd_multi_synthesis_base@@@
rdata$r	SEGMENT
??_R4kd_multi_synthesis@@6Bkd_multi_synthesis_base@@@ DD 00H ; kd_multi_synthesis::`RTTI Complete Object Locator'
	DD	00H
	DD	00H
	DD	FLAT:??_R0?AVkd_multi_synthesis@@@8
	DD	FLAT:??_R3kd_multi_synthesis@@8
rdata$r	ENDS
;	COMDAT ??_R1A@?0A@EA@kd_multi_transform@@8
rdata$r	SEGMENT
??_R1A@?0A@EA@kd_multi_transform@@8 DD FLAT:??_R0?AVkd_multi_transform@@@8 ; kd_multi_transform::`RTTI Base Class Descriptor at (0,-1,0,64)'
	DD	00H
	DD	00H
	DD	0ffffffffH
	DD	00H
	DD	040H
	DD	FLAT:??_R3kd_multi_transform@@8
rdata$r	ENDS
;	COMDAT ??_R2kd_multi_transform@@8
rdata$r	SEGMENT
??_R2kd_multi_transform@@8 DD FLAT:??_R1A@?0A@EA@kd_multi_transform@@8 ; kd_multi_transform::`RTTI Base Class Array'
rdata$r	ENDS
;	COMDAT ??_R3kd_multi_transform@@8
rdata$r	SEGMENT
??_R3kd_multi_transform@@8 DD 00H			; kd_multi_transform::`RTTI Class Hierarchy Descriptor'
	DD	00H
	DD	01H
	DD	FLAT:??_R2kd_multi_transform@@8
rdata$r	ENDS
;	COMDAT ??_R0?AVkd_multi_transform@@@8
data$r	SEGMENT
??_R0?AVkd_multi_transform@@@8 DD FLAT:??_7type_info@@6B@ ; kd_multi_transform `RTTI Type Descriptor'
	DD	00H
	DB	'.?AVkd_multi_transform@@', 00H
data$r	ENDS
;	COMDAT ??_R4kd_multi_transform@@6B@
rdata$r	SEGMENT
??_R4kd_multi_transform@@6B@ DD 00H			; kd_multi_transform::`RTTI Complete Object Locator'
	DD	00H
	DD	00H
	DD	FLAT:??_R0?AVkd_multi_transform@@@8
	DD	FLAT:??_R3kd_multi_transform@@8
rdata$r	ENDS
;	COMDAT ??_R1A@?0A@EA@kd_multi_dwt_block@@8
rdata$r	SEGMENT
??_R1A@?0A@EA@kd_multi_dwt_block@@8 DD FLAT:??_R0?AVkd_multi_dwt_block@@@8 ; kd_multi_dwt_block::`RTTI Base Class Descriptor at (0,-1,0,64)'
	DD	01H
	DD	00H
	DD	0ffffffffH
	DD	00H
	DD	040H
	DD	FLAT:??_R3kd_multi_dwt_block@@8
rdata$r	ENDS
;	COMDAT ??_R2kd_multi_dwt_block@@8
rdata$r	SEGMENT
??_R2kd_multi_dwt_block@@8 DD FLAT:??_R1A@?0A@EA@kd_multi_dwt_block@@8 ; kd_multi_dwt_block::`RTTI Base Class Array'
	DD	FLAT:??_R1A@?0A@EA@kd_multi_block@@8
rdata$r	ENDS
;	COMDAT ??_R3kd_multi_dwt_block@@8
rdata$r	SEGMENT
??_R3kd_multi_dwt_block@@8 DD 00H			; kd_multi_dwt_block::`RTTI Class Hierarchy Descriptor'
	DD	00H
	DD	02H
	DD	FLAT:??_R2kd_multi_dwt_block@@8
rdata$r	ENDS
;	COMDAT ??_R0?AVkd_multi_dwt_block@@@8
data$r	SEGMENT
??_R0?AVkd_multi_dwt_block@@@8 DD FLAT:??_7type_info@@6B@ ; kd_multi_dwt_block `RTTI Type Descriptor'
	DD	00H
	DB	'.?AVkd_multi_dwt_block@@', 00H
data$r	ENDS
;	COMDAT ??_R4kd_multi_dwt_block@@6B@
rdata$r	SEGMENT
??_R4kd_multi_dwt_block@@6B@ DD 00H			; kd_multi_dwt_block::`RTTI Complete Object Locator'
	DD	00H
	DD	00H
	DD	FLAT:??_R0?AVkd_multi_dwt_block@@@8
	DD	FLAT:??_R3kd_multi_dwt_block@@8
rdata$r	ENDS
;	COMDAT ??_R1A@?0A@EA@kd_multi_rxform_block@@8
rdata$r	SEGMENT
??_R1A@?0A@EA@kd_multi_rxform_block@@8 DD FLAT:??_R0?AVkd_multi_rxform_block@@@8 ; kd_multi_rxform_block::`RTTI Base Class Descriptor at (0,-1,0,64)'
	DD	01H
	DD	00H
	DD	0ffffffffH
	DD	00H
	DD	040H
	DD	FLAT:??_R3kd_multi_rxform_block@@8
rdata$r	ENDS
;	COMDAT ??_R2kd_multi_rxform_block@@8
rdata$r	SEGMENT
??_R2kd_multi_rxform_block@@8 DD FLAT:??_R1A@?0A@EA@kd_multi_rxform_block@@8 ; kd_multi_rxform_block::`RTTI Base Class Array'
	DD	FLAT:??_R1A@?0A@EA@kd_multi_block@@8
rdata$r	ENDS
;	COMDAT ??_R3kd_multi_rxform_block@@8
rdata$r	SEGMENT
??_R3kd_multi_rxform_block@@8 DD 00H			; kd_multi_rxform_block::`RTTI Class Hierarchy Descriptor'
	DD	00H
	DD	02H
	DD	FLAT:??_R2kd_multi_rxform_block@@8
rdata$r	ENDS
;	COMDAT ??_R0?AVkd_multi_rxform_block@@@8
data$r	SEGMENT
??_R0?AVkd_multi_rxform_block@@@8 DD FLAT:??_7type_info@@6B@ ; kd_multi_rxform_block `RTTI Type Descriptor'
	DD	00H
	DB	'.?AVkd_multi_rxform_block@@', 00H
data$r	ENDS
;	COMDAT ??_R4kd_multi_rxform_block@@6B@
rdata$r	SEGMENT
??_R4kd_multi_rxform_block@@6B@ DD 00H			; kd_multi_rxform_block::`RTTI Complete Object Locator'
	DD	00H
	DD	00H
	DD	FLAT:??_R0?AVkd_multi_rxform_block@@@8
	DD	FLAT:??_R3kd_multi_rxform_block@@8
rdata$r	ENDS
;	COMDAT ??_R1A@?0A@EA@kd_multi_dependency_block@@8
rdata$r	SEGMENT
??_R1A@?0A@EA@kd_multi_dependency_block@@8 DD FLAT:??_R0?AVkd_multi_dependency_block@@@8 ; kd_multi_dependency_block::`RTTI Base Class Descriptor at (0,-1,0,64)'
	DD	01H
	DD	00H
	DD	0ffffffffH
	DD	00H
	DD	040H
	DD	FLAT:??_R3kd_multi_dependency_block@@8
rdata$r	ENDS
;	COMDAT ??_R2kd_multi_dependency_block@@8
rdata$r	SEGMENT
??_R2kd_multi_dependency_block@@8 DD FLAT:??_R1A@?0A@EA@kd_multi_dependency_block@@8 ; kd_multi_dependency_block::`RTTI Base Class Array'
	DD	FLAT:??_R1A@?0A@EA@kd_multi_block@@8
rdata$r	ENDS
;	COMDAT ??_R3kd_multi_dependency_block@@8
rdata$r	SEGMENT
??_R3kd_multi_dependency_block@@8 DD 00H		; kd_multi_dependency_block::`RTTI Class Hierarchy Descriptor'
	DD	00H
	DD	02H
	DD	FLAT:??_R2kd_multi_dependency_block@@8
rdata$r	ENDS
;	COMDAT ??_R0?AVkd_multi_dependency_block@@@8
data$r	SEGMENT
??_R0?AVkd_multi_dependency_block@@@8 DD FLAT:??_7type_info@@6B@ ; kd_multi_dependency_block `RTTI Type Descriptor'
	DD	00H
	DB	'.?AVkd_multi_dependency_block@@', 00H
data$r	ENDS
;	COMDAT ??_R4kd_multi_dependency_block@@6B@
rdata$r	SEGMENT
??_R4kd_multi_dependency_block@@6B@ DD 00H		; kd_multi_dependency_block::`RTTI Complete Object Locator'
	DD	00H
	DD	00H
	DD	FLAT:??_R0?AVkd_multi_dependency_block@@@8
	DD	FLAT:??_R3kd_multi_dependency_block@@8
rdata$r	ENDS
;	COMDAT ??_R1A@?0A@EA@kd_multi_matrix_block@@8
rdata$r	SEGMENT
??_R1A@?0A@EA@kd_multi_matrix_block@@8 DD FLAT:??_R0?AVkd_multi_matrix_block@@@8 ; kd_multi_matrix_block::`RTTI Base Class Descriptor at (0,-1,0,64)'
	DD	01H
	DD	00H
	DD	0ffffffffH
	DD	00H
	DD	040H
	DD	FLAT:??_R3kd_multi_matrix_block@@8
rdata$r	ENDS
;	COMDAT ??_R2kd_multi_matrix_block@@8
rdata$r	SEGMENT
??_R2kd_multi_matrix_block@@8 DD FLAT:??_R1A@?0A@EA@kd_multi_matrix_block@@8 ; kd_multi_matrix_block::`RTTI Base Class Array'
	DD	FLAT:??_R1A@?0A@EA@kd_multi_block@@8
rdata$r	ENDS
;	COMDAT ??_R3kd_multi_matrix_block@@8
rdata$r	SEGMENT
??_R3kd_multi_matrix_block@@8 DD 00H			; kd_multi_matrix_block::`RTTI Class Hierarchy Descriptor'
	DD	00H
	DD	02H
	DD	FLAT:??_R2kd_multi_matrix_block@@8
rdata$r	ENDS
;	COMDAT ??_R0?AVkd_multi_matrix_block@@@8
data$r	SEGMENT
??_R0?AVkd_multi_matrix_block@@@8 DD FLAT:??_7type_info@@6B@ ; kd_multi_matrix_block `RTTI Type Descriptor'
	DD	00H
	DB	'.?AVkd_multi_matrix_block@@', 00H
data$r	ENDS
;	COMDAT ??_R4kd_multi_matrix_block@@6B@
rdata$r	SEGMENT
??_R4kd_multi_matrix_block@@6B@ DD 00H			; kd_multi_matrix_block::`RTTI Complete Object Locator'
	DD	00H
	DD	00H
	DD	FLAT:??_R0?AVkd_multi_matrix_block@@@8
	DD	FLAT:??_R3kd_multi_matrix_block@@8
rdata$r	ENDS
;	COMDAT ??_R1A@?0A@EA@kd_multi_null_block@@8
rdata$r	SEGMENT
??_R1A@?0A@EA@kd_multi_null_block@@8 DD FLAT:??_R0?AVkd_multi_null_block@@@8 ; kd_multi_null_block::`RTTI Base Class Descriptor at (0,-1,0,64)'
	DD	01H
	DD	00H
	DD	0ffffffffH
	DD	00H
	DD	040H
	DD	FLAT:??_R3kd_multi_null_block@@8
rdata$r	ENDS
;	COMDAT ??_R2kd_multi_null_block@@8
rdata$r	SEGMENT
??_R2kd_multi_null_block@@8 DD FLAT:??_R1A@?0A@EA@kd_multi_null_block@@8 ; kd_multi_null_block::`RTTI Base Class Array'
	DD	FLAT:??_R1A@?0A@EA@kd_multi_block@@8
rdata$r	ENDS
;	COMDAT ??_R3kd_multi_null_block@@8
rdata$r	SEGMENT
??_R3kd_multi_null_block@@8 DD 00H			; kd_multi_null_block::`RTTI Class Hierarchy Descriptor'
	DD	00H
	DD	02H
	DD	FLAT:??_R2kd_multi_null_block@@8
rdata$r	ENDS
;	COMDAT ??_R0?AVkd_multi_null_block@@@8
data$r	SEGMENT
??_R0?AVkd_multi_null_block@@@8 DD FLAT:??_7type_info@@6B@ ; kd_multi_null_block `RTTI Type Descriptor'
	DD	00H
	DB	'.?AVkd_multi_null_block@@', 00H
data$r	ENDS
;	COMDAT ??_R4kd_multi_null_block@@6B@
rdata$r	SEGMENT
??_R4kd_multi_null_block@@6B@ DD 00H			; kd_multi_null_block::`RTTI Complete Object Locator'
	DD	00H
	DD	00H
	DD	FLAT:??_R0?AVkd_multi_null_block@@@8
	DD	FLAT:??_R3kd_multi_null_block@@8
rdata$r	ENDS
;	COMDAT ??_R1A@?0A@EA@kd_multi_block@@8
rdata$r	SEGMENT
??_R1A@?0A@EA@kd_multi_block@@8 DD FLAT:??_R0?AVkd_multi_block@@@8 ; kd_multi_block::`RTTI Base Class Descriptor at (0,-1,0,64)'
	DD	00H
	DD	00H
	DD	0ffffffffH
	DD	00H
	DD	040H
	DD	FLAT:??_R3kd_multi_block@@8
rdata$r	ENDS
;	COMDAT ??_R2kd_multi_block@@8
rdata$r	SEGMENT
??_R2kd_multi_block@@8 DD FLAT:??_R1A@?0A@EA@kd_multi_block@@8 ; kd_multi_block::`RTTI Base Class Array'
rdata$r	ENDS
;	COMDAT ??_R3kd_multi_block@@8
rdata$r	SEGMENT
??_R3kd_multi_block@@8 DD 00H				; kd_multi_block::`RTTI Class Hierarchy Descriptor'
	DD	00H
	DD	01H
	DD	FLAT:??_R2kd_multi_block@@8
rdata$r	ENDS
;	COMDAT ??_R0?AVkd_multi_block@@@8
data$r	SEGMENT
??_R0?AVkd_multi_block@@@8 DD FLAT:??_7type_info@@6B@	; kd_multi_block `RTTI Type Descriptor'
	DD	00H
	DB	'.?AVkd_multi_block@@', 00H
data$r	ENDS
;	COMDAT ??_R4kd_multi_block@@6B@
rdata$r	SEGMENT
??_R4kd_multi_block@@6B@ DD 00H				; kd_multi_block::`RTTI Complete Object Locator'
	DD	00H
	DD	00H
	DD	FLAT:??_R0?AVkd_multi_block@@@8
	DD	FLAT:??_R3kd_multi_block@@8
rdata$r	ENDS
;	COMDAT ??_R1A@?0A@EA@kd_multi_component@@8
rdata$r	SEGMENT
??_R1A@?0A@EA@kd_multi_component@@8 DD FLAT:??_R0?AVkd_multi_component@@@8 ; kd_multi_component::`RTTI Base Class Descriptor at (0,-1,0,64)'
	DD	01H
	DD	00H
	DD	0ffffffffH
	DD	00H
	DD	040H
	DD	FLAT:??_R3kd_multi_component@@8
rdata$r	ENDS
;	COMDAT ??_R2kd_multi_component@@8
rdata$r	SEGMENT
??_R2kd_multi_component@@8 DD FLAT:??_R1A@?0A@EA@kd_multi_component@@8 ; kd_multi_component::`RTTI Base Class Array'
	DD	FLAT:??_R1A@?0A@EA@kdu_worker@@8
rdata$r	ENDS
;	COMDAT ??_R3kd_multi_component@@8
rdata$r	SEGMENT
??_R3kd_multi_component@@8 DD 00H			; kd_multi_component::`RTTI Class Hierarchy Descriptor'
	DD	00H
	DD	02H
	DD	FLAT:??_R2kd_multi_component@@8
rdata$r	ENDS
;	COMDAT ??_R0?AVkd_multi_component@@@8
data$r	SEGMENT
??_R0?AVkd_multi_component@@@8 DD FLAT:??_7type_info@@6B@ ; kd_multi_component `RTTI Type Descriptor'
	DD	00H
	DB	'.?AVkd_multi_component@@', 00H
data$r	ENDS
;	COMDAT ??_R4kd_multi_component@@6B@
rdata$r	SEGMENT
??_R4kd_multi_component@@6B@ DD 00H			; kd_multi_component::`RTTI Complete Object Locator'
	DD	00H
	DD	00H
	DD	FLAT:??_R0?AVkd_multi_component@@@8
	DD	FLAT:??_R3kd_multi_component@@8
rdata$r	ENDS
;	COMDAT ??_R1A@?0A@EA@kd_multi_synthesis_base@@8
rdata$r	SEGMENT
??_R1A@?0A@EA@kd_multi_synthesis_base@@8 DD FLAT:??_R0?AVkd_multi_synthesis_base@@@8 ; kd_multi_synthesis_base::`RTTI Base Class Descriptor at (0,-1,0,64)'
	DD	00H
	DD	00H
	DD	0ffffffffH
	DD	00H
	DD	040H
	DD	FLAT:??_R3kd_multi_synthesis_base@@8
rdata$r	ENDS
;	COMDAT ??_R2kd_multi_synthesis_base@@8
rdata$r	SEGMENT
??_R2kd_multi_synthesis_base@@8 DD FLAT:??_R1A@?0A@EA@kd_multi_synthesis_base@@8 ; kd_multi_synthesis_base::`RTTI Base Class Array'
rdata$r	ENDS
;	COMDAT ??_R3kd_multi_synthesis_base@@8
rdata$r	SEGMENT
??_R3kd_multi_synthesis_base@@8 DD 00H			; kd_multi_synthesis_base::`RTTI Class Hierarchy Descriptor'
	DD	00H
	DD	01H
	DD	FLAT:??_R2kd_multi_synthesis_base@@8
rdata$r	ENDS
;	COMDAT ??_R0?AVkd_multi_synthesis_base@@@8
data$r	SEGMENT
??_R0?AVkd_multi_synthesis_base@@@8 DD FLAT:??_7type_info@@6B@ ; kd_multi_synthesis_base `RTTI Type Descriptor'
	DD	00H
	DB	'.?AVkd_multi_synthesis_base@@', 00H
data$r	ENDS
;	COMDAT ??_R4kd_multi_synthesis_base@@6B@
rdata$r	SEGMENT
??_R4kd_multi_synthesis_base@@6B@ DD 00H		; kd_multi_synthesis_base::`RTTI Complete Object Locator'
	DD	00H
	DD	00H
	DD	FLAT:??_R0?AVkd_multi_synthesis_base@@@8
	DD	FLAT:??_R3kd_multi_synthesis_base@@8
rdata$r	ENDS
;	COMDAT ??_R1A@?0A@EA@kd_multi_analysis_base@@8
rdata$r	SEGMENT
??_R1A@?0A@EA@kd_multi_analysis_base@@8 DD FLAT:??_R0?AVkd_multi_analysis_base@@@8 ; kd_multi_analysis_base::`RTTI Base Class Descriptor at (0,-1,0,64)'
	DD	00H
	DD	00H
	DD	0ffffffffH
	DD	00H
	DD	040H
	DD	FLAT:??_R3kd_multi_analysis_base@@8
rdata$r	ENDS
;	COMDAT ??_R2kd_multi_analysis_base@@8
rdata$r	SEGMENT
??_R2kd_multi_analysis_base@@8 DD FLAT:??_R1A@?0A@EA@kd_multi_analysis_base@@8 ; kd_multi_analysis_base::`RTTI Base Class Array'
rdata$r	ENDS
;	COMDAT ??_R3kd_multi_analysis_base@@8
rdata$r	SEGMENT
??_R3kd_multi_analysis_base@@8 DD 00H			; kd_multi_analysis_base::`RTTI Class Hierarchy Descriptor'
	DD	00H
	DD	01H
	DD	FLAT:??_R2kd_multi_analysis_base@@8
rdata$r	ENDS
;	COMDAT ??_R0?AVkd_multi_analysis_base@@@8
data$r	SEGMENT
??_R0?AVkd_multi_analysis_base@@@8 DD FLAT:??_7type_info@@6B@ ; kd_multi_analysis_base `RTTI Type Descriptor'
	DD	00H
	DB	'.?AVkd_multi_analysis_base@@', 00H
data$r	ENDS
;	COMDAT ??_R4kd_multi_analysis_base@@6B@
rdata$r	SEGMENT
??_R4kd_multi_analysis_base@@6B@ DD 00H			; kd_multi_analysis_base::`RTTI Complete Object Locator'
	DD	00H
	DD	00H
	DD	FLAT:??_R0?AVkd_multi_analysis_base@@@8
	DD	FLAT:??_R3kd_multi_analysis_base@@8
rdata$r	ENDS
;	COMDAT ??_R1A@?0A@EA@kdu_worker@@8
rdata$r	SEGMENT
??_R1A@?0A@EA@kdu_worker@@8 DD FLAT:??_R0?AVkdu_worker@@@8 ; kdu_worker::`RTTI Base Class Descriptor at (0,-1,0,64)'
	DD	00H
	DD	00H
	DD	0ffffffffH
	DD	00H
	DD	040H
	DD	FLAT:??_R3kdu_worker@@8
rdata$r	ENDS
;	COMDAT ??_R2kdu_worker@@8
rdata$r	SEGMENT
??_R2kdu_worker@@8 DD FLAT:??_R1A@?0A@EA@kdu_worker@@8	; kdu_worker::`RTTI Base Class Array'
rdata$r	ENDS
;	COMDAT ??_R3kdu_worker@@8
rdata$r	SEGMENT
??_R3kdu_worker@@8 DD 00H				; kdu_worker::`RTTI Class Hierarchy Descriptor'
	DD	00H
	DD	01H
	DD	FLAT:??_R2kdu_worker@@8
rdata$r	ENDS
;	COMDAT ??_R0?AVkdu_worker@@@8
data$r	SEGMENT
??_R0?AVkdu_worker@@@8 DD FLAT:??_7type_info@@6B@	; kdu_worker `RTTI Type Descriptor'
	DD	00H
	DB	'.?AVkdu_worker@@', 00H
data$r	ENDS
;	COMDAT ??_R4kdu_worker@@6B@
rdata$r	SEGMENT
??_R4kdu_worker@@6B@ DD 00H				; kdu_worker::`RTTI Complete Object Locator'
	DD	00H
	DD	00H
	DD	FLAT:??_R0?AVkdu_worker@@@8
	DD	FLAT:??_R3kdu_worker@@8
rdata$r	ENDS
;	COMDAT ??_C@_0BGL@OKHHJDHO@Inconsistent?5bit?9depths?5encounte@
CONST	SEGMENT
??_C@_0BGL@OKHHJDHO@Inconsistent?5bit?9depths?5encounte@ DB 'Inconsistent'
	DB	' bit-depths encountered amongst output image components produ'
	DB	'ced by a DWT transform block embedded inside the multi-compon'
	DB	'ent transform network.  All output (i.e., synthesized) compon'
	DB	'ents produced by a single DWT block must be declared with the'
	DB	' same bit-depth.  Anything else makes no sense, so Kakadu doe'
	DB	's not bother trying to accommodate this case.', 00H ; `string'
CONST	ENDS
;	COMDAT ??_C@_0CBB@DNHOHNJD@Encountered?5an?5irreversible?5DWT?5@
CONST	SEGMENT
??_C@_0CBB@DNHOHNJD@Encountered?5an?5irreversible?5DWT?5@ DB 'Encountered'
	DB	' an irreversible DWT transform block which operates on revers'
	DB	'ible codestream sample data.  While we allow such transforms '
	DB	'to be processed during decompression, it is unreasonable to g'
	DB	'enerate reversibly compressed component samples using an irre'
	DB	'versible inverse multi-component transform during compression'
	DB	'.  Kakadu will not invert this transform during compression. '
	DB	' This can prevent the compression process from proceeding if '
	DB	'there are no other paths back from the MCT output components '
	DB	'to the codestream components.', 00H		; `string'
CONST	ENDS
;	COMDAT ??_C@_0MD@NOKJMJMF@DWT?5transform?5block?5cannot?5be?5in@
CONST	SEGMENT
??_C@_0MD@NOKJMJMF@DWT?5transform?5block?5cannot?5be?5in@ DB 'DWT transfo'
	DB	'rm block cannot be inverted unless all output components can '
	DB	'be computed by downstream transform blocks in the multi-compo'
	DB	'nent transform network, or by the application supplying them.'
	DB	00H						; `string'
CONST	ENDS
;	COMDAT ??_C@_0OO@CDGHEAGO@Multi?9component?5reversible?5depen@
CONST	SEGMENT
??_C@_0OO@CDGHEAGO@Multi?9component?5reversible?5depen@ DB 'Multi-compone'
	DB	'nt reversible dependency transforms must have exact positive '
	DB	'powers of 2 on the diagonal of their triangular coefficient m'
	DB	'atrix; these are the divisors used to scale and round the pre'
	DB	'diction terms.  The offending divisor is ', 00H ; `string'
CONST	ENDS
;	COMDAT ??_C@_0CBI@FDCMKGLL@Encountered?5an?5irreversible?5depe@
CONST	SEGMENT
??_C@_0CBI@FDCMKGLL@Encountered?5an?5irreversible?5depe@ DB 'Encountered '
	DB	'an irreversible dependency transform block which operates on '
	DB	'reversible codestream sample data.  While we allow such trans'
	DB	'forms to be processed during decompression, it is unreasonabl'
	DB	'e to generate reversibly compressed component samples using a'
	DB	'n irreversible inverse multi-component transform during compr'
	DB	'ession.  Kakadu will not invert this transform during compres'
	DB	'sion.  This can prevent the compression process from proceedi'
	DB	'ng if there are no other paths back from the MCT output compo'
	DB	'nents to the codestream components.', 00H	; `string'
CONST	ENDS
;	COMDAT ??_C@_0MO@CPPIDHHM@Dependency?5transform?5block?5canno@
CONST	SEGMENT
??_C@_0MO@CPPIDHHM@Dependency?5transform?5block?5canno@ DB 'Dependency tr'
	DB	'ansform block cannot be inverted or partially inverted unless'
	DB	' a contiguous prefix of the output components can be computed'
	DB	' by downstream transform blocks, or by the application supply'
	DB	'ing them.', 00H				; `string'
CONST	ENDS
;	COMDAT ??_C@_01LFCBOECM@?4?$AA@
CONST	SEGMENT
??_C@_01LFCBOECM@?4?$AA@ DB '.', 00H			; `string'
CONST	ENDS
;	COMDAT ??_C@_0LJ@PJJIHOJD@Multi?9component?5reversible?5decor@
CONST	SEGMENT
??_C@_0LJ@PJJIHOJD@Multi?9component?5reversible?5decor@ DB 'Multi-compone'
	DB	'nt reversible decorrelation transforms must have exact positi'
	DB	've powers of 2 for the divisors which are used to scale and r'
	DB	'ound the update terms.  The offending divisor is ', 00H ; `string'
CONST	ENDS
;	COMDAT ??_C@_0KM@JOCABHJL@Reversible?5decorrelation?5transfo@
CONST	SEGMENT
??_C@_0KM@JOCABHJL@Reversible?5decorrelation?5transfo@ DB 'Reversible dec'
	DB	'orrelation transform block cannot be inverted unless all of i'
	DB	'ts outputs can be computed by downstream transform blocks, or'
	DB	' by the application supplying them.', 00H	; `string'
CONST	ENDS
;	COMDAT ??_C@_0BAH@FNBHAICK@Near?5singular?5irreversible?5decor@
CONST	SEGMENT
??_C@_0BAH@FNBHAICK@Near?5singular?5irreversible?5decor@ DB 'Near singula'
	DB	'r irreversible decorrelation transform block encountered in m'
	DB	'ulti-component transform description.  This can prevent the c'
	DB	'ompression process from proceeding if there are no other path'
	DB	's back from the MCT output components to the codestream compo'
	DB	'nents.', 00H				; `string'
CONST	ENDS
;	COMDAT ??_C@_0CBL@NHJPLOG@Encountered?5an?5irreversible?5deco@
CONST	SEGMENT
??_C@_0CBL@NHJPLOG@Encountered?5an?5irreversible?5deco@ DB 'Encountered a'
	DB	'n irreversible decorrelation transform block which operates o'
	DB	'n reversible codestream sample data.  While we allow such tra'
	DB	'nsforms to be processed during decompression, it is unreasona'
	DB	'ble to generate reversibly compressed component samples using'
	DB	' an irreversible inverse multi-component transform during com'
	DB	'pression.  Kakadu will not invert this transform during compr'
	DB	'ession.  This can prevent the compression process from procee'
	DB	'ding if there are no other paths back from the MCT output com'
	DB	'ponents to the codestream components.', 00H	; `string'
CONST	ENDS
;	COMDAT ??_C@_0LC@FOOLOFAN@Encountered?5underdetermined?5syst@
CONST	SEGMENT
??_C@_0LC@FOOLOFAN@Encountered?5underdetermined?5syst@ DB 'Encountered un'
	DB	'derdetermined system while trying to invert a multi-component'
	DB	' transform block so as to convert MCT output components into '
	DB	'codestream components during compression.', 00H ; `string'
CONST	ENDS
;	COMDAT ??_C@_0DK@DNEDNIAC@?5?5The?5following?5additional?5expla@
CONST	SEGMENT
??_C@_0DK@DNEDNIAC@?5?5The?5following?5additional?5expla@ DB '  The follo'
	DB	'wing additional explanation is available ---- ', 00H ; `string'
CONST	ENDS
;	COMDAT ??_C@_0CLD@EIGIPOMM@Cannot?5perform?5forward?5multi?9com@
CONST	SEGMENT
??_C@_0CLD@EIGIPOMM@Cannot?5perform?5forward?5multi?9com@ DB 'Cannot perf'
	DB	'orm forward multi-component transform based on the source ima'
	DB	'ge components supplied.  The multi-component transform is def'
	DB	'ined from the perspective of decompression (i.e., synthesis, '
	DB	'or inverse transformation).  Not all of the defined transform'
	DB	' blocks may be invertible.  Also, if the defined transform bl'
	DB	'ocks do not use all codestream components to produce final ou'
	DB	'tput image components during decompression, it will not be po'
	DB	'ssible to work back from the final image components to codest'
	DB	'ream components which can be subjected to spatial wavelet tra'
	DB	'nsformation and coding.  One of these conditions has been enc'
	DB	'ountered with the configuration you are targeting during comp'
	DB	'ression.', 00H				; `string'
CONST	ENDS
;	COMDAT ??_C@_0DGI@MLEJMJIK@Cannot?5implement?5multi?9component@
CONST	SEGMENT
??_C@_0DGI@MLEJMJIK@Cannot?5implement?5multi?9component@ DB 'Cannot imple'
	DB	'ment multi-component transform.  It seems that one or more tr'
	DB	'ansform steps require image samples to be treated as reversib'
	DB	'le, where other steps require the same image samples to be tr'
	DB	'eated as irreversible.  This is illegal in Part-1 of the JPEG'
	DB	'2000 standard.  Although Part-2 is not clear on the matter, K'
	DB	'akadu''s implementation insists only that irreversibly compre'
	DB	'ssed samples not be subjected to reversible multi-component t'
	DB	'ransform processing during decompression -- this is eminently'
	DB	' reasonable, since exact reversible processing of data which '
	DB	'is not already exactly defined, makes no sense.  The reverse '
	DB	'case, in which reversibly compressed data is processed using '
	DB	'an irreversible multi-component transform, can make sense, pa'
	DB	'rticularly where there are multiple ways to render the same o'
	DB	'riginal reversibly compressed codestream components to MCT ou'
	DB	'tputs.', 00H				; `string'
CONST	ENDS
;	COMDAT ??_C@_0BDP@OMPOBFOO@Part?92?5codestream?5declares?5a?5cod@
CONST	SEGMENT
??_C@_0BDP@OMPOBFOO@Part?92?5codestream?5declares?5a?5cod@ DB 'Part-2 cod'
	DB	'estream declares a codestream component to have a different b'
	DB	'it-depth (Sprecision) to the output component (Mprecision) wi'
	DB	'th which it is directly associated.  While this is allowed, i'
	DB	't makes very little sense, and Kakadu will not perform the re'
	DB	'quired multiple scaling for irreversibly transformed componen'
	DB	'ts.', 00H					; `string'
CONST	ENDS
;	COMDAT ??_C@_0CCJ@OBHDBNBL@Cannot?5implement?5multi?9component@
CONST	SEGMENT
??_C@_0CCJ@OBHDBNBL@Cannot?5implement?5multi?9component@ DB 'Cannot imple'
	DB	'ment multi-component transform.  It seems that image componen'
	DB	'ts which must be processed by a common transform block (or de'
	DB	'correlating colour transform) have incompatible dimensions.  '
	DB	'This error may also be detected if the sub-sampling factors a'
	DB	'ssociated with an MCT output image component vary from tile t'
	DB	'o tile or if relative component size change from resolution l'
	DB	'evel to resolution level (due to incompatible Part-2 downsamp'
	DB	'ling factor style usage).  While these latter conditions migh'
	DB	't not be strictly illegal, they are clearly foolish.', 00H ; `string'
CONST	ENDS
;	COMDAT ??_C@_0BE@KMIJLGEL@Kakadu?5Core?5Error?3?6?$AA@
CONST	SEGMENT
??_C@_0BE@KMIJLGEL@Kakadu?5Core?5Error?3?6?$AA@ DB 'Kakadu Core Error:', 0aH
	DB	00H						; `string'
CONST	ENDS
;	COMDAT ??_C@_0BE@DHNHLPAL@component?5processor?$AA@
CONST	SEGMENT
??_C@_0BE@DHNHLPAL@component?5processor?$AA@ DB 'component processor', 00H ; `string'
CONST	ENDS
;	COMDAT ??_7kd_multi_analysis@@6Bkd_multi_transform@@@
CONST	SEGMENT
??_7kd_multi_analysis@@6Bkd_multi_transform@@@ DD FLAT:??_R4kd_multi_analysis@@6Bkd_multi_transform@@@ ; kd_multi_analysis::`vftable'
	DD	FLAT:??_Ekd_multi_analysis@@W3AEPAXI@Z
CONST	ENDS
;	COMDAT ??_7kd_multi_analysis@@6Bkd_multi_analysis_base@@@
CONST	SEGMENT
??_7kd_multi_analysis@@6Bkd_multi_analysis_base@@@ DD FLAT:??_R4kd_multi_analysis@@6Bkd_multi_analysis_base@@@ ; kd_multi_analysis::`vftable'
	DD	FLAT:??_Ekd_multi_analysis@@UAEPAXI@Z
	DD	FLAT:?terminate_queues@kd_multi_analysis@@UAEXPAVkdu_thread_env@@@Z
	DD	FLAT:?get_size@kd_multi_analysis@@UAE?AUkdu_coords@@H@Z
	DD	FLAT:?exchange_line@kd_multi_analysis@@UAEPAVkdu_line_buf@@HPAV2@PAVkdu_thread_env@@@Z
	DD	FLAT:?is_line_precise@kd_multi_analysis@@UAE_NH@Z
	DD	FLAT:?is_line_absolute@kd_multi_analysis@@UAE_NH@Z
CONST	ENDS
;	COMDAT ??_7kd_multi_synthesis@@6Bkd_multi_transform@@@
CONST	SEGMENT
??_7kd_multi_synthesis@@6Bkd_multi_transform@@@ DD FLAT:??_R4kd_multi_synthesis@@6Bkd_multi_transform@@@ ; kd_multi_synthesis::`vftable'
	DD	FLAT:??_Ekd_multi_synthesis@@W3AEPAXI@Z
CONST	ENDS
;	COMDAT ??_7kd_multi_synthesis@@6Bkd_multi_synthesis_base@@@
CONST	SEGMENT
??_7kd_multi_synthesis@@6Bkd_multi_synthesis_base@@@ DD FLAT:??_R4kd_multi_synthesis@@6Bkd_multi_synthesis_base@@@ ; kd_multi_synthesis::`vftable'
	DD	FLAT:??_Ekd_multi_synthesis@@UAEPAXI@Z
	DD	FLAT:?terminate_queues@kd_multi_synthesis@@UAEXPAVkdu_thread_env@@@Z
	DD	FLAT:?get_size@kd_multi_synthesis@@UAE?AUkdu_coords@@H@Z
	DD	FLAT:?get_line@kd_multi_synthesis@@UAEPAVkdu_line_buf@@HPAVkdu_thread_env@@@Z
	DD	FLAT:?is_line_precise@kd_multi_synthesis@@UAE_NH@Z
	DD	FLAT:?is_line_absolute@kd_multi_synthesis@@UAE_NH@Z
CONST	ENDS
;	COMDAT ??_7kd_multi_transform@@6B@
CONST	SEGMENT
??_7kd_multi_transform@@6B@ DD FLAT:??_R4kd_multi_transform@@6B@ ; kd_multi_transform::`vftable'
	DD	FLAT:??_Ekd_multi_transform@@UAEPAXI@Z
CONST	ENDS
;	COMDAT ??_7kd_multi_component@@6B@
CONST	SEGMENT
??_7kd_multi_component@@6B@ DD FLAT:??_R4kd_multi_component@@6B@ ; kd_multi_component::`vftable'
	DD	FLAT:??_Ekd_multi_component@@UAEPAXI@Z
	DD	FLAT:?do_job@kd_multi_component@@UAEXPAVkdu_thread_entity@@H@Z
CONST	ENDS
;	COMDAT ??_7kd_multi_dwt_block@@6B@
CONST	SEGMENT
??_7kd_multi_dwt_block@@6B@ DD FLAT:??_R4kd_multi_dwt_block@@6B@ ; kd_multi_dwt_block::`vftable'
	DD	FLAT:??_Ekd_multi_dwt_block@@UAEPAXI@Z
	DD	FLAT:?initialize@kd_multi_dwt_block@@UAEXHHVkdu_tile@@HHPAUkd_multi_collection@@1PAVkd_multi_transform@@@Z
	DD	FLAT:?normalize_coefficients@kd_multi_dwt_block@@UAEXXZ
	DD	FLAT:?propagate_bit_depths@kd_multi_dwt_block@@UAE_N_N0@Z
	DD	FLAT:?perform_transform@kd_multi_dwt_block@@UAEXXZ
	DD	FLAT:?prepare_for_inversion@kd_multi_dwt_block@@UAEPBDXZ
	DD	FLAT:?perform_inverse@kd_multi_dwt_block@@UAEXXZ
CONST	ENDS
;	COMDAT ??_7kd_multi_dependency_block@@6B@
CONST	SEGMENT
??_7kd_multi_dependency_block@@6B@ DD FLAT:??_R4kd_multi_dependency_block@@6B@ ; kd_multi_dependency_block::`vftable'
	DD	FLAT:??_Ekd_multi_dependency_block@@UAEPAXI@Z
	DD	FLAT:?initialize@kd_multi_dependency_block@@UAEXHHVkdu_tile@@HHPAUkd_multi_collection@@1PAVkd_multi_transform@@@Z
	DD	FLAT:?normalize_coefficients@kd_multi_dependency_block@@UAEXXZ
	DD	FLAT:?propagate_bit_depths@kd_multi_block@@UAE_N_N0@Z
	DD	FLAT:?perform_transform@kd_multi_dependency_block@@UAEXXZ
	DD	FLAT:?prepare_for_inversion@kd_multi_dependency_block@@UAEPBDXZ
	DD	FLAT:?perform_inverse@kd_multi_dependency_block@@UAEXXZ
CONST	ENDS
;	COMDAT ??_7kd_multi_rxform_block@@6B@
CONST	SEGMENT
??_7kd_multi_rxform_block@@6B@ DD FLAT:??_R4kd_multi_rxform_block@@6B@ ; kd_multi_rxform_block::`vftable'
	DD	FLAT:??_Ekd_multi_rxform_block@@UAEPAXI@Z
	DD	FLAT:?initialize@kd_multi_rxform_block@@UAEXHHVkdu_tile@@HHPAUkd_multi_collection@@1PAVkd_multi_transform@@@Z
	DD	FLAT:?normalize_coefficients@kd_multi_block@@UAEXXZ
	DD	FLAT:?propagate_bit_depths@kd_multi_block@@UAE_N_N0@Z
	DD	FLAT:?perform_transform@kd_multi_rxform_block@@UAEXXZ
	DD	FLAT:?prepare_for_inversion@kd_multi_rxform_block@@UAEPBDXZ
	DD	FLAT:?perform_inverse@kd_multi_rxform_block@@UAEXXZ
CONST	ENDS
;	COMDAT ??_7kd_multi_matrix_block@@6B@
CONST	SEGMENT
??_7kd_multi_matrix_block@@6B@ DD FLAT:??_R4kd_multi_matrix_block@@6B@ ; kd_multi_matrix_block::`vftable'
	DD	FLAT:??_Ekd_multi_matrix_block@@UAEPAXI@Z
	DD	FLAT:?initialize@kd_multi_matrix_block@@UAEXHHVkdu_tile@@HHPAUkd_multi_collection@@1PAVkd_multi_transform@@@Z
	DD	FLAT:?normalize_coefficients@kd_multi_matrix_block@@UAEXXZ
	DD	FLAT:?propagate_bit_depths@kd_multi_block@@UAE_N_N0@Z
	DD	FLAT:?perform_transform@kd_multi_matrix_block@@UAEXXZ
	DD	FLAT:?prepare_for_inversion@kd_multi_matrix_block@@UAEPBDXZ
	DD	FLAT:?perform_inverse@kd_multi_matrix_block@@UAEXXZ
CONST	ENDS
;	COMDAT ??_7kd_multi_null_block@@6B@
CONST	SEGMENT
??_7kd_multi_null_block@@6B@ DD FLAT:??_R4kd_multi_null_block@@6B@ ; kd_multi_null_block::`vftable'
	DD	FLAT:??_Ekd_multi_null_block@@UAEPAXI@Z
	DD	FLAT:?initialize@kd_multi_null_block@@UAEXHHVkdu_tile@@HHPAUkd_multi_collection@@1PAVkd_multi_transform@@@Z
	DD	FLAT:?normalize_coefficients@kd_multi_block@@UAEXXZ
	DD	FLAT:?propagate_bit_depths@kd_multi_block@@UAE_N_N0@Z
	DD	FLAT:?perform_transform@kd_multi_block@@UAEXXZ
	DD	FLAT:?prepare_for_inversion@kd_multi_block@@UAEPBDXZ
	DD	FLAT:?perform_inverse@kd_multi_block@@UAEXXZ
CONST	ENDS
;	COMDAT ??_C@_0ED@KEGEGAOK@Unimplemented?5multi?9component?5tr@
CONST	SEGMENT
??_C@_0ED@KEGEGAOK@Unimplemented?5multi?9component?5tr@ DB 'Unimplemented'
	DB	' multi-component transform block inversion procedure.', 00H ; `string'
CONST	ENDS
;	COMDAT ??_7kd_multi_block@@6B@
CONST	SEGMENT
??_7kd_multi_block@@6B@ DD FLAT:??_R4kd_multi_block@@6B@ ; kd_multi_block::`vftable'
	DD	FLAT:??_Ekd_multi_block@@UAEPAXI@Z
	DD	FLAT:__purecall
	DD	FLAT:?normalize_coefficients@kd_multi_block@@UAEXXZ
	DD	FLAT:?propagate_bit_depths@kd_multi_block@@UAE_N_N0@Z
	DD	FLAT:?perform_transform@kd_multi_block@@UAEXXZ
	DD	FLAT:?prepare_for_inversion@kd_multi_block@@UAEPBDXZ
	DD	FLAT:?perform_inverse@kd_multi_block@@UAEXXZ
CONST	ENDS
;	COMDAT ??_7kd_multi_synthesis_base@@6B@
CONST	SEGMENT
??_7kd_multi_synthesis_base@@6B@ DD FLAT:??_R4kd_multi_synthesis_base@@6B@ ; kd_multi_synthesis_base::`vftable'
	DD	FLAT:??_Ekd_multi_synthesis_base@@UAEPAXI@Z
	DD	FLAT:__purecall
	DD	FLAT:__purecall
	DD	FLAT:__purecall
	DD	FLAT:__purecall
	DD	FLAT:__purecall
CONST	ENDS
;	COMDAT ??_7kd_multi_analysis_base@@6B@
CONST	SEGMENT
??_7kd_multi_analysis_base@@6B@ DD FLAT:??_R4kd_multi_analysis_base@@6B@ ; kd_multi_analysis_base::`vftable'
	DD	FLAT:??_Ekd_multi_analysis_base@@UAEPAXI@Z
	DD	FLAT:__purecall
	DD	FLAT:__purecall
	DD	FLAT:__purecall
	DD	FLAT:__purecall
	DD	FLAT:__purecall
CONST	ENDS
;	COMDAT ??_7kdu_worker@@6B@
CONST	SEGMENT
??_7kdu_worker@@6B@ DD FLAT:??_R4kdu_worker@@6B@	; kdu_worker::`vftable'
	DD	FLAT:??_Ekdu_worker@@UAEPAXI@Z
	DD	FLAT:__purecall
CONST	ENDS
;	COMDAT ??_C@_02DPKJAMEF@?$CFd?$AA@
CONST	SEGMENT
??_C@_02DPKJAMEF@?$CFd?$AA@ DB '%d', 00H		; `string'
CONST	ENDS
;	COMDAT ??_C@_02NJNOFBBI@?$CFx?$AA@
CONST	SEGMENT
??_C@_02NJNOFBBI@?$CFx?$AA@ DB '%x', 00H		; `string'
CONST	ENDS
;	COMDAT xdata$x
xdata$x	SEGMENT
__unwindtable$?prepare_network_for_inversion@kd_multi_analysis@@AAEXXZ DD 0ffffffffH
	DD	FLAT:__unwindfunclet$?prepare_network_for_inversion@kd_multi_analysis@@AAEXXZ$0
__ehfuncinfo$?prepare_network_for_inversion@kd_multi_analysis@@AAEXXZ DD 019930522H
	DD	01H
	DD	FLAT:__unwindtable$?prepare_network_for_inversion@kd_multi_analysis@@AAEXXZ
	DD	2 DUP(00H)
	DD	2 DUP(00H)
	DD	00H
	DD	01H
xdata$x	ENDS
;	COMDAT xdata$x
xdata$x	SEGMENT
__unwindtable$?propagate_knowledge@kd_multi_transform@@AAE_N_N@Z DD 0ffffffffH
	DD	FLAT:__unwindfunclet$?propagate_knowledge@kd_multi_transform@@AAE_N_N@Z$0
	DD	0ffffffffH
	DD	FLAT:__unwindfunclet$?propagate_knowledge@kd_multi_transform@@AAE_N_N@Z$1
__ehfuncinfo$?propagate_knowledge@kd_multi_transform@@AAE_N_N@Z DD 019930522H
	DD	02H
	DD	FLAT:__unwindtable$?propagate_knowledge@kd_multi_transform@@AAE_N_N@Z
	DD	2 DUP(00H)
	DD	2 DUP(00H)
	DD	00H
	DD	01H
xdata$x	ENDS
;	COMDAT xdata$x
xdata$x	SEGMENT
__unwindtable$?create_resources@kd_multi_transform@@IAEXXZ DD 0ffffffffH
	DD	FLAT:__unwindfunclet$?create_resources@kd_multi_transform@@IAEXXZ$0
__ehfuncinfo$?create_resources@kd_multi_transform@@IAEXXZ DD 019930522H
	DD	01H
	DD	FLAT:__unwindtable$?create_resources@kd_multi_transform@@IAEXXZ
	DD	2 DUP(00H)
	DD	2 DUP(00H)
	DD	00H
	DD	01H
xdata$x	ENDS
;	COMDAT xdata$x
xdata$x	SEGMENT
__unwindtable$?construct@kd_multi_transform@@IAEXVkdu_codestream@@Vkdu_tile@@_N22HPAVkdu_thread_env@@PAUkdu_thread_queue@@2@Z DD 0ffffffffH
	DD	FLAT:__unwindfunclet$?construct@kd_multi_transform@@IAEXVkdu_codestream@@Vkdu_tile@@_N22HPAVkdu_thread_env@@PAUkdu_thread_queue@@2@Z$1
__ehfuncinfo$?construct@kd_multi_transform@@IAEXVkdu_codestream@@Vkdu_tile@@_N22HPAVkdu_thread_env@@PAUkdu_thread_queue@@2@Z DD 019930522H
	DD	01H
	DD	FLAT:__unwindtable$?construct@kd_multi_transform@@IAEXVkdu_codestream@@Vkdu_tile@@_N22HPAVkdu_thread_env@@PAUkdu_thread_queue@@2@Z
	DD	2 DUP(00H)
	DD	2 DUP(00H)
	DD	00H
	DD	01H
xdata$x	ENDS
;	COMDAT xdata$x
xdata$x	SEGMENT
__ehfuncinfo$??_Ekd_multi_component@@UAEPAXI@Z DD 019930522H
	DD	00H
	DD	00H
	DD	2 DUP(00H)
	DD	2 DUP(00H)
	DD	00H
	DD	05H
xdata$x	ENDS
;	COMDAT xdata$x
xdata$x	SEGMENT
__unwindtable$?normalize_coefficients@kd_multi_dwt_block@@UAEXXZ DD 0ffffffffH
	DD	FLAT:__unwindfunclet$?normalize_coefficients@kd_multi_dwt_block@@UAEXXZ$0
__ehfuncinfo$?normalize_coefficients@kd_multi_dwt_block@@UAEXXZ DD 019930522H
	DD	01H
	DD	FLAT:__unwindtable$?normalize_coefficients@kd_multi_dwt_block@@UAEXXZ
	DD	2 DUP(00H)
	DD	2 DUP(00H)
	DD	00H
	DD	01H
xdata$x	ENDS
;	COMDAT xdata$x
xdata$x	SEGMENT
__unwindtable$?initialize@kd_multi_dwt_block@@UAEXHHVkdu_tile@@HHPAUkd_multi_collection@@1PAVkd_multi_transform@@@Z DD 0ffffffffH
	DD	FLAT:__unwindfunclet$?initialize@kd_multi_dwt_block@@UAEXHHVkdu_tile@@HHPAUkd_multi_collection@@1PAVkd_multi_transform@@@Z$0
	DD	00H
	DD	FLAT:__unwindfunclet$?initialize@kd_multi_dwt_block@@UAEXHHVkdu_tile@@HHPAUkd_multi_collection@@1PAVkd_multi_transform@@@Z$1
	DD	0ffffffffH
	DD	FLAT:__unwindfunclet$?initialize@kd_multi_dwt_block@@UAEXHHVkdu_tile@@HHPAUkd_multi_collection@@1PAVkd_multi_transform@@@Z$3
__ehfuncinfo$?initialize@kd_multi_dwt_block@@UAEXHHVkdu_tile@@HHPAUkd_multi_collection@@1PAVkd_multi_transform@@@Z DD 019930522H
	DD	03H
	DD	FLAT:__unwindtable$?initialize@kd_multi_dwt_block@@UAEXHHVkdu_tile@@HHPAUkd_multi_collection@@1PAVkd_multi_transform@@@Z
	DD	2 DUP(00H)
	DD	2 DUP(00H)
	DD	00H
	DD	01H
xdata$x	ENDS
;	COMDAT xdata$x
xdata$x	SEGMENT
__unwindtable$??1kd_multi_dwt_block@@UAE@XZ DD 0ffffffffH
	DD	FLAT:__unwindfunclet$??1kd_multi_dwt_block@@UAE@XZ$0
__ehfuncinfo$??1kd_multi_dwt_block@@UAE@XZ DD 019930522H
	DD	01H
	DD	FLAT:__unwindtable$??1kd_multi_dwt_block@@UAE@XZ
	DD	2 DUP(00H)
	DD	2 DUP(00H)
	DD	00H
	DD	05H
xdata$x	ENDS
;	COMDAT xdata$x
xdata$x	SEGMENT
__ehfuncinfo$??_Ekd_multi_dwt_level@@QAEPAXI@Z DD 019930522H
	DD	00H
	DD	00H
	DD	2 DUP(00H)
	DD	2 DUP(00H)
	DD	00H
	DD	05H
xdata$x	ENDS
;	COMDAT xdata$x
xdata$x	SEGMENT
__unwindtable$?perform_inverse@kd_multi_dependency_block@@UAEXXZ DD 0ffffffffH
	DD	FLAT:__unwindfunclet$?perform_inverse@kd_multi_dependency_block@@UAEXXZ$0
__ehfuncinfo$?perform_inverse@kd_multi_dependency_block@@UAEXXZ DD 019930522H
	DD	01H
	DD	FLAT:__unwindtable$?perform_inverse@kd_multi_dependency_block@@UAEXXZ
	DD	2 DUP(00H)
	DD	2 DUP(00H)
	DD	00H
	DD	01H
xdata$x	ENDS
;	COMDAT xdata$x
xdata$x	SEGMENT
__unwindtable$?perform_transform@kd_multi_dependency_block@@UAEXXZ DD 0ffffffffH
	DD	FLAT:__unwindfunclet$?perform_transform@kd_multi_dependency_block@@UAEXXZ$0
__ehfuncinfo$?perform_transform@kd_multi_dependency_block@@UAEXXZ DD 019930522H
	DD	01H
	DD	FLAT:__unwindtable$?perform_transform@kd_multi_dependency_block@@UAEXXZ
	DD	2 DUP(00H)
	DD	2 DUP(00H)
	DD	00H
	DD	01H
xdata$x	ENDS
;	COMDAT xdata$x
xdata$x	SEGMENT
__unwindtable$?perform_inverse@kd_multi_rxform_block@@UAEXXZ DD 0ffffffffH
	DD	FLAT:__unwindfunclet$?perform_inverse@kd_multi_rxform_block@@UAEXXZ$0
__ehfuncinfo$?perform_inverse@kd_multi_rxform_block@@UAEXXZ DD 019930522H
	DD	01H
	DD	FLAT:__unwindtable$?perform_inverse@kd_multi_rxform_block@@UAEXXZ
	DD	2 DUP(00H)
	DD	2 DUP(00H)
	DD	00H
	DD	01H
xdata$x	ENDS
;	COMDAT xdata$x
xdata$x	SEGMENT
__unwindtable$?perform_transform@kd_multi_rxform_block@@UAEXXZ DD 0ffffffffH
	DD	FLAT:__unwindfunclet$?perform_transform@kd_multi_rxform_block@@UAEXXZ$0
__ehfuncinfo$?perform_transform@kd_multi_rxform_block@@UAEXXZ DD 019930522H
	DD	01H
	DD	FLAT:__unwindtable$?perform_transform@kd_multi_rxform_block@@UAEXXZ
	DD	2 DUP(00H)
	DD	2 DUP(00H)
	DD	00H
	DD	01H
xdata$x	ENDS
;	COMDAT xdata$x
xdata$x	SEGMENT
__ehfuncinfo$??1kdu_kernels@@QAE@XZ DD 019930522H
	DD	00H
	DD	00H
	DD	2 DUP(00H)
	DD	2 DUP(00H)
	DD	00H
	DD	05H
xdata$x	ENDS
; Function compile flags: /Odsp
;	COMDAT ??_Ekd_multi_analysis@@W3AEPAXI@Z
_TEXT	SEGMENT
??_Ekd_multi_analysis@@W3AEPAXI@Z PROC			; [thunk]:kd_multi_analysis::`vector deleting destructor', COMDAT
	sub	ecx, 4
	jmp	??_Ekd_multi_analysis@@UAEPAXI@Z
??_Ekd_multi_analysis@@W3AEPAXI@Z ENDP			; [thunk]:kd_multi_analysis::`vector deleting destructor'
_TEXT	ENDS
; Function compile flags: /Odsp
;	COMDAT ??_Ekd_multi_synthesis@@W3AEPAXI@Z
_TEXT	SEGMENT
??_Ekd_multi_synthesis@@W3AEPAXI@Z PROC			; [thunk]:kd_multi_synthesis::`vector deleting destructor', COMDAT
	sub	ecx, 4
	jmp	??_Ekd_multi_synthesis@@UAEPAXI@Z
??_Ekd_multi_synthesis@@W3AEPAXI@Z ENDP			; [thunk]:kd_multi_synthesis::`vector deleting destructor'
_TEXT	ENDS
; Function compile flags: /Ogtp
;	COMDAT ??_Gkd_multi_analysis@@UAEPAXI@Z
_TEXT	SEGMENT
___flags$ = 8						; size = 4
??_Gkd_multi_analysis@@UAEPAXI@Z PROC			; kd_multi_analysis::`scalar deleting destructor', COMDAT
; _this$ = ecx
	push	ebp
	mov	ebp, esp
	push	esi
	mov	esi, ecx
	call	??1kd_multi_analysis@@UAE@XZ		; kd_multi_analysis::~kd_multi_analysis
	test	BYTE PTR ___flags$[ebp], 1
	je	SHORT $LN4@scalar
	push	84					; 00000054H
	push	esi
	call	??3@YAXPAXI@Z				; operator delete
	add	esp, 8
$LN4@scalar:
	mov	eax, esi
	pop	esi
	pop	ebp
	ret	4
??_Gkd_multi_analysis@@UAEPAXI@Z ENDP			; kd_multi_analysis::`scalar deleting destructor'
_TEXT	ENDS
; Function compile flags: /Ogtp
; File e:\study\jpeg2000\visually_lossless_jpeg2000\modifiedkakadu\coresys\transform\multi_transform.cpp
;	COMDAT ?advance_line@kd_multi_analysis@@AAEXPAUkd_multi_line@@HPAVkdu_thread_env@@@Z
_TEXT	SEGMENT
_last_stripe$1 = -16					; size = 1
_first_available_row$1$ = -12				; size = 4
tv803 = -8						; size = 4
_this$1$ = -4						; size = 4
_line$ = 8						; size = 4
_process_ycc$1$ = 11					; size = 1
_new_row_idx$ = 12					; size = 4
_env$ = 16						; size = 4
?advance_line@kd_multi_analysis@@AAEXPAUkd_multi_line@@HPAVkdu_thread_env@@@Z PROC ; kd_multi_analysis::advance_line, COMDAT
; _this$ = ecx

; 1471 : {

	push	ebp
	mov	ebp, esp
	sub	esp, 16					; 00000010H

; 1472 :   assert(line->num_consumers == 1);       // Must be true by the time this
; 1473 :   assert(line->row_idx==(new_row_idx-1)); // function is invoked.
; 1474 :   line->row_idx = new_row_idx;

	mov	eax, DWORD PTR _line$[ebp]
	mov	edx, DWORD PTR _new_row_idx$[ebp]
	mov	DWORD PTR _this$1$[ebp], ecx

; 1475 :   line->waiting_for_inversion = false; // Unless proven otherwise
; 1476 :   if (line->is_constant)

	cmp	BYTE PTR [eax+35], 0
	mov	DWORD PTR [eax+20], edx
	mov	BYTE PTR [eax+28], 0
	jne	$LN20@advance_li
	push	esi
	push	edi
$LL50@advance_li:

; 1477 :     return; // Nothing more to do
; 1478 : 
; 1479 :   int n;
; 1480 :   kd_multi_block *block = line->block;

	mov	esi, DWORD PTR [eax+52]

; 1481 :   if ((block != NULL) && block->is_null_transform)

	test	esi, esi
	je	$LN27@advance_li
	cmp	BYTE PTR [esi+4], 0
	je	$LN23@advance_li

; 1482 :     { // Pass through to the corresponding dependency line, if any
; 1483 :       n = (int)(line - block->components);

	mov	ecx, eax
	mov	eax, -2004318071			; 88888889H
	sub	ecx, DWORD PTR [esi+12]
	imul	ecx

; 1484 :       assert((n >= 0) && (n < block->num_dependencies));
; 1485 :       kd_multi_line *dep = block->dependencies[n];

	mov	eax, DWORD PTR [esi+20]
	add	edx, ecx
	sar	edx, 5
	mov	ecx, edx
	shr	ecx, 31					; 0000001fH
	add	ecx, edx
	mov	edi, DWORD PTR [eax+ecx*4]

; 1486 :       if ((dep != NULL) && (dep->row_idx >= new_row_idx))

	test	edi, edi
	je	$LN97@advance_li
	mov	eax, DWORD PTR _new_row_idx$[ebp]
	cmp	DWORD PTR [edi+20], eax
	jge	SHORT $LN95@advance_li

; 1491 :         }
; 1492 :       if (dep == NULL)
; 1493 :         return; // Nothing to do; this dependency need not be written
; 1494 :       assert((dep->num_consumers > 0) && !dep->is_constant);
; 1495 :       dep->copy(line,-dep->rev_offset,-dep->irrev_offset);

	movss	xmm0, DWORD PTR [edi+44]
	mov	eax, DWORD PTR [edi+40]
	xorps	xmm0, DWORD PTR __xmm@80000000800000008000000080000000
	neg	eax
	push	ecx
	movss	DWORD PTR [esp], xmm0
	mov	ecx, edi
	push	eax
	push	DWORD PTR _line$[ebp]
	call	?copy@kd_multi_line@@QAEXPAU1@HM@Z	; kd_multi_line::copy
	mov	edx, DWORD PTR _new_row_idx$[ebp]

; 1496 :       advance_line(dep,new_row_idx,env);

	mov	eax, edi
	mov	DWORD PTR [edi+20], edx
	mov	BYTE PTR [edi+28], 0
	cmp	BYTE PTR [edi+35], 0
	mov	DWORD PTR _line$[ebp], eax
	je	SHORT $LL50@advance_li
	pop	edi
	pop	esi

; 1609 :     }
; 1610 : 
; 1611 :   // If we get here, we have used the new line
; 1612 :   assert(!line->waiting_for_inversion);
; 1613 : }

	mov	esp, ebp
	pop	ebp
	ret	12					; 0000000cH
$LN95@advance_li:

; 1487 :         { // This dependency has been written already
; 1488 :           assert(dep->num_consumers > 1);
; 1489 :           dep->num_consumers--;

	dec	DWORD PTR [edi+24]

; 1490 :           block->dependencies[n] = dep = NULL;

	mov	eax, DWORD PTR [esi+20]
	pop	edi
	pop	esi
	mov	DWORD PTR [eax+ecx*4], 0

; 1609 :     }
; 1610 : 
; 1611 :   // If we get here, we have used the new line
; 1612 :   assert(!line->waiting_for_inversion);
; 1613 : }

	mov	esp, ebp
	pop	ebp
	ret	12					; 0000000cH
$LN23@advance_li:

; 1497 :     }
; 1498 :   else if (block != NULL)
; 1499 :     { // See if we can invert the transform block
; 1500 :       line->waiting_for_inversion = true;

	mov	BYTE PTR [eax+28], 1
	dec	DWORD PTR [esi+28]

; 1501 :       block->outstanding_consumers--;
; 1502 :       if (block->outstanding_consumers > 0)

	cmp	DWORD PTR [esi+28], 0
	jg	$LN97@advance_li

; 1503 :         return; // Can't process the block yet
; 1504 :       kd_multi_line *dep;
; 1505 :       while (block->num_available_dependencies < block->num_dependencies)

	mov	eax, DWORD PTR [esi+24]
	cmp	eax, DWORD PTR [esi+16]
	jge	SHORT $LN3@advance_li
$LL2@advance_li:

; 1506 :         {
; 1507 :           dep = block->dependencies[block->num_available_dependencies];

	mov	ecx, DWORD PTR [esi+24]
	mov	edi, DWORD PTR [esi+20]
	mov	eax, DWORD PTR [edi+ecx*4]

; 1508 :           if ((dep != NULL) && dep->is_constant)

	test	eax, eax
	je	SHORT $LN31@advance_li
	cmp	BYTE PTR [eax+35], 0
	je	SHORT $LN30@advance_li

; 1509 :             { // Should not happen, but just in case
; 1510 :               block->dependencies[block->num_available_dependencies]=dep=NULL;

	mov	DWORD PTR [edi+ecx*4], 0

; 1511 :             }
; 1512 :           if ((dep != NULL) && (dep->row_idx < new_row_idx) &&

	jmp	SHORT $LN31@advance_li
$LN30@advance_li:
	cmp	DWORD PTR [eax+20], edx
	jge	SHORT $LN31@advance_li
	cmp	BYTE PTR [eax+28], 0
	jne	$LN97@advance_li
$LN31@advance_li:

; 1513 :               dep->waiting_for_inversion)
; 1514 :             return; // Can't write inversion results yet
; 1515 :           block->num_available_dependencies++;

	inc	DWORD PTR [esi+24]
	mov	eax, DWORD PTR [esi+24]
	cmp	eax, DWORD PTR [esi+16]
	jl	SHORT $LL2@advance_li
$LN3@advance_li:

; 1516 :         }
; 1517 : 
; 1518 :       // If we get here, we can run the transform, but first remove any
; 1519 :       // dependencies which have already been written
; 1520 :       for (n=0; n < block->num_dependencies; n++)

	xor	ecx, ecx
	cmp	DWORD PTR [esi+16], ecx
	jle	SHORT $LN5@advance_li
	npad	1
$LL6@advance_li:

; 1521 :         if (((dep = block->dependencies[n]) != NULL) &&

	mov	eax, DWORD PTR [esi+20]
	mov	eax, DWORD PTR [eax+ecx*4]
	test	eax, eax
	je	SHORT $LN4@advance_li
	cmp	DWORD PTR [eax+20], edx
	jl	SHORT $LN4@advance_li

; 1522 :             (dep->row_idx >= new_row_idx))
; 1523 :           {
; 1524 :             assert(dep->num_consumers > 1);
; 1525 :             dep->num_consumers--;

	dec	DWORD PTR [eax+24]

; 1526 :             block->dependencies[n] = NULL;

	mov	eax, DWORD PTR [esi+20]
	mov	DWORD PTR [eax+ecx*4], 0
$LN4@advance_li:

; 1516 :         }
; 1517 : 
; 1518 :       // If we get here, we can run the transform, but first remove any
; 1519 :       // dependencies which have already been written
; 1520 :       for (n=0; n < block->num_dependencies; n++)

	inc	ecx
	cmp	ecx, DWORD PTR [esi+16]
	jl	SHORT $LL6@advance_li
$LN5@advance_li:

; 1527 :           }
; 1528 : 
; 1529 :       block->perform_inverse();

	mov	eax, DWORD PTR [esi]
	mov	ecx, esi
	call	DWORD PTR [eax+24]

; 1530 : 
; 1531 :       for (n=0; n < block->num_dependencies; n++)

	xor	edi, edi
	cmp	DWORD PTR [esi+16], edi
	jle	SHORT $LN8@advance_li
$LL9@advance_li:

; 1532 :         if ((dep = block->dependencies[n]) != NULL)

	mov	eax, DWORD PTR [esi+20]
	mov	eax, DWORD PTR [eax+edi*4]
	test	eax, eax
	je	SHORT $LN7@advance_li

; 1533 :           advance_line(dep,new_row_idx,env);

	push	DWORD PTR _env$[ebp]
	mov	ecx, DWORD PTR _this$1$[ebp]
	push	DWORD PTR _new_row_idx$[ebp]
	push	eax
	call	?advance_line@kd_multi_analysis@@AAEXPAUkd_multi_line@@HPAVkdu_thread_env@@@Z ; kd_multi_analysis::advance_line
$LN7@advance_li:

; 1530 : 
; 1531 :       for (n=0; n < block->num_dependencies; n++)

	inc	edi
	cmp	edi, DWORD PTR [esi+16]
	jl	SHORT $LL9@advance_li
$LN8@advance_li:

; 1534 :       for (n=0; n < block->num_components; n++)

	xor	ecx, ecx
	cmp	DWORD PTR [esi+8], ecx
	jle	SHORT $LN11@advance_li
	mov	edx, DWORD PTR [esi+12]
	xor	eax, eax
	npad	5
$LL12@advance_li:

; 1535 :         {
; 1536 :           block->components[n].waiting_for_inversion = false;

	mov	BYTE PTR [eax+edx+28], 0

; 1537 :           if (block->components[n].num_consumers > 0)

	mov	edx, DWORD PTR [esi+12]
	cmp	DWORD PTR [eax+edx+24], 0
	jle	SHORT $LN10@advance_li

; 1538 :             {
; 1539 :               assert(block->components[n].num_consumers == 1);
; 1540 :               block->outstanding_consumers++;

	inc	DWORD PTR [esi+28]
$LN10@advance_li:

; 1534 :       for (n=0; n < block->num_components; n++)

	inc	ecx
	add	eax, 60					; 0000003cH
	cmp	ecx, DWORD PTR [esi+8]
	jl	SHORT $LL12@advance_li
$LN11@advance_li:
	pop	edi

; 1541 :             }
; 1542 :         }
; 1543 :       block->num_available_dependencies = 0;

	mov	DWORD PTR [esi+24], 0
	pop	esi

; 1609 :     }
; 1610 : 
; 1611 :   // If we get here, we have used the new line
; 1612 :   assert(!line->waiting_for_inversion);
; 1613 : }

	mov	esp, ebp
	pop	ebp
	ret	12					; 0000000cH
$LN27@advance_li:

; 1544 :     }
; 1545 :   else
; 1546 :     { // Push the line into the relevant codestream component engine
; 1547 :       n = line->collection_idx;  assert(n >= 0);
; 1548 :       assert(codestream_collection->components[n] == line);
; 1549 :       bool process_ycc = use_ycc && (n < 3);

	mov	esi, DWORD PTR _this$1$[ebp]
	mov	ecx, DWORD PTR [eax+56]
	cmp	BYTE PTR [esi+8], 0
	je	SHORT $LN46@advance_li
	cmp	ecx, 3
	jge	SHORT $LN46@advance_li

; 1550 :       if (process_ycc)
; 1551 :         {
; 1552 :           line->waiting_for_inversion = true;

	mov	BYTE PTR [eax+28], 1

; 1553 :           kd_multi_line **ycc_lines = codestream_collection->components;
; 1554 :           for (n=0; n < 3; n++)

	xor	ecx, ecx
	mov	eax, DWORD PTR [esi+24]
	mov	BYTE PTR _process_ycc$1$[ebp], 1
	mov	esi, DWORD PTR [eax+4]
	npad	5
$LL15@advance_li:

; 1555 :             if (ycc_lines[n]->row_idx < new_row_idx)

	mov	eax, DWORD PTR [esi+ecx*4]
	cmp	DWORD PTR [eax+20], edx
	jl	$LN97@advance_li

; 1553 :           kd_multi_line **ycc_lines = codestream_collection->components;
; 1554 :           for (n=0; n < 3; n++)

	inc	ecx
	cmp	ecx, 3
	jl	SHORT $LL15@advance_li

; 1556 :               return; // Cannot run RCT/ICT yet
; 1557 :           kdu_convert_rgb_to_ycc(ycc_lines[0]->line,

	push	DWORD PTR [esi+8]
	push	DWORD PTR [esi+4]
	push	DWORD PTR [esi]
	call	?kdu_convert_rgb_to_ycc@@YAXAAVkdu_line_buf@@00@Z ; kdu_convert_rgb_to_ycc

; 1558 :                                  ycc_lines[1]->line,
; 1559 :                                  ycc_lines[2]->line);
; 1560 :           for (n=0; n < 3; n++)
; 1561 :             {
; 1562 :               assert(ycc_lines[n]->waiting_for_inversion);
; 1563 :               ycc_lines[n]->waiting_for_inversion = false;

	mov	eax, DWORD PTR [esi]
	add	esp, 12					; 0000000cH

; 1564 :             }
; 1565 :           n = 0;

	mov	edx, DWORD PTR _new_row_idx$[ebp]
	xor	ecx, ecx
	mov	BYTE PTR [eax+28], 0
	mov	eax, DWORD PTR [esi+4]
	mov	BYTE PTR [eax+28], 0
	mov	eax, DWORD PTR [esi+8]
	mov	esi, DWORD PTR _this$1$[ebp]
	mov	BYTE PTR [eax+28], 0
	jmp	SHORT $LN94@advance_li
$LN46@advance_li:

; 1544 :     }
; 1545 :   else
; 1546 :     { // Push the line into the relevant codestream component engine
; 1547 :       n = line->collection_idx;  assert(n >= 0);
; 1548 :       assert(codestream_collection->components[n] == line);
; 1549 :       bool process_ycc = use_ycc && (n < 3);

	mov	BYTE PTR _process_ycc$1$[ebp], 0
$LN94@advance_li:
	imul	edi, ecx, 112
	mov	DWORD PTR tv803[ebp], edi
	npad	6
$LL21@advance_li:

; 1566 :         }
; 1567 :       do {
; 1568 :           kd_multi_component *comp = codestream_components + n;

	mov	esi, DWORD PTR [esi+20]
	add	esi, edi

; 1569 :           if (comp->num_available_rows == 0)

	cmp	DWORD PTR [esi+80], 0
	jne	$LN37@advance_li

; 1570 :             { // We have generated all rows
; 1571 :               int num_rows_left = comp->line.size.y - (new_row_idx+1);

	mov	edi, DWORD PTR [esi+24]
	sub	edi, edx
	sub	edi, 1

; 1572 :               bool last_stripe = (num_rows_left == 0);

	sete	BYTE PTR _last_stripe$1[ebp]

; 1573 :               if (comp->double_buffering)

	cmp	BYTE PTR [esi+72], 0
	je	SHORT $LN38@advance_li

; 1574 :                 { // Convert available rows into an active job in progress
; 1575 :                   assert(env != NULL);
; 1576 :                   int first_available_row = 0;

	xor	ecx, ecx
	mov	DWORD PTR _first_available_row$1$[ebp], ecx

; 1577 :                   if (comp->num_rows_in_progress)

	cmp	DWORD PTR [esi+88], ecx
	je	SHORT $LN41@advance_li

; 1578 :                     { // Do outstanding work
; 1579 :                       env->process_jobs(comp->env_queue);

	push	1
	push	ecx
	push	DWORD PTR [esi+8]
	mov	ecx, DWORD PTR _env$[ebp]
	call	?process_jobs@kdu_thread_entity@@QAE_NPAUkdu_thread_queue@@_N1@Z ; kdu_thread_entity::process_jobs

; 1580 :                       if (comp->first_row_in_progress == 0)

	cmp	DWORD PTR [esi+84], 0
	jne	SHORT $LN96@advance_li

; 1581 :                         first_available_row = comp->num_rows_in_progress;

	mov	ecx, DWORD PTR [esi+88]
	jmp	SHORT $LN41@advance_li
$LN96@advance_li:
	mov	ecx, DWORD PTR _first_available_row$1$[ebp]
$LN41@advance_li:

; 1582 :                     }
; 1583 :                   comp->first_row_in_progress = first_available_row;
; 1584 :                   comp->num_rows_in_progress =

	mov	eax, DWORD PTR [esi+76]
	sub	eax, ecx
	mov	DWORD PTR [esi+84], ecx
	mov	DWORD PTR [esi+88], eax

; 1585 :                     comp->next_available_row - first_available_row;
; 1586 :                   if (first_available_row > 0)

	test	ecx, ecx
	jle	SHORT $LN42@advance_li

; 1587 :                     comp->next_available_row = 0;

	mov	DWORD PTR [esi+76], 0
$LN42@advance_li:

; 1588 :                   env->add_jobs(comp->env_queue,1,last_stripe);

	mov	ecx, DWORD PTR _env$[ebp]
	push	0
	push	DWORD PTR _last_stripe$1[ebp]
	push	1
	push	DWORD PTR [esi+8]
	call	?add_jobs@kdu_thread_entity@@QAEXPAUkdu_thread_queue@@H_NI@Z ; kdu_thread_entity::add_jobs

; 1589 :                 }
; 1590 :               else

	jmp	SHORT $LN39@advance_li
$LN38@advance_li:

; 1591 :                 {
; 1592 :                   assert(((comp->env_queue == NULL) && (env == NULL)) ||
; 1593 :                          ((comp->env_queue != NULL) && (env != NULL)));
; 1594 :                   comp->num_rows_in_progress = comp->next_available_row;

	mov	eax, DWORD PTR [esi+76]

; 1595 :                   comp->next_available_row = comp->first_row_in_progress = 0;
; 1596 :                   comp->do_job(env,0);

	mov	ecx, DWORD PTR _env$[ebp]
	mov	DWORD PTR [esi+88], eax
	mov	eax, DWORD PTR [esi]
	push	0
	push	ecx
	mov	ecx, esi
	mov	DWORD PTR [esi+84], 0
	mov	DWORD PTR [esi+76], 0
	call	DWORD PTR [eax+4]

; 1597 :                   comp->num_rows_in_progress = 0;

	mov	DWORD PTR [esi+88], 0
$LN39@advance_li:

; 1598 :                 }
; 1599 :               comp->num_available_rows =

	mov	eax, DWORD PTR [esi+92]
	cmp	edi, eax
	cmovl	eax, edi
	mov	edi, DWORD PTR tv803[ebp]
	mov	DWORD PTR [esi+80], eax
$LN37@advance_li:

; 1600 :                 (num_rows_left < comp->max_available_rows)?
; 1601 :                   num_rows_left:(comp->max_available_rows);
; 1602 :             }
; 1603 :           if (comp->num_available_rows > 0)

	mov	eax, DWORD PTR [esi+80]
	test	eax, eax
	jle	SHORT $LN19@advance_li

; 1604 :             {
; 1605 :               comp->line.line = comp->buffer[comp->next_available_row++];

	mov	edx, DWORD PTR [esi+76]
	mov	eax, DWORD PTR [esi+100]
	lea	ecx, DWORD PTR [edx+edx*2]
	movq	xmm0, QWORD PTR [eax+ecx*4]
	movq	QWORD PTR [esi+12], xmm0
	mov	eax, DWORD PTR [eax+ecx*4+8]

; 1606 :               comp->num_available_rows--;

	dec	DWORD PTR [esi+80]
	mov	DWORD PTR [esi+20], eax
	lea	eax, DWORD PTR [edx+1]
	mov	DWORD PTR [esi+76], eax
$LN19@advance_li:

; 1607 :             }
; 1608 :         } while (process_ycc && ((++n) < 3));

	cmp	BYTE PTR _process_ycc$1$[ebp], 0
	je	SHORT $LN97@advance_li
	mov	edx, DWORD PTR _new_row_idx$[ebp]
	add	edi, 112				; 00000070H
	mov	esi, DWORD PTR _this$1$[ebp]
	mov	DWORD PTR tv803[ebp], edi
	cmp	edi, 336				; 00000150H
	jl	$LL21@advance_li
$LN97@advance_li:
	pop	edi
	pop	esi
$LN20@advance_li:

; 1609 :     }
; 1610 : 
; 1611 :   // If we get here, we have used the new line
; 1612 :   assert(!line->waiting_for_inversion);
; 1613 : }

	mov	esp, ebp
	pop	ebp
	ret	12					; 0000000cH
?advance_line@kd_multi_analysis@@AAEXPAUkd_multi_line@@HPAVkdu_thread_env@@@Z ENDP ; kd_multi_analysis::advance_line
_TEXT	ENDS
; Function compile flags: /Ogtp
; File e:\study\jpeg2000\visually_lossless_jpeg2000\modifiedkakadu\coresys\transform\multi_transform.cpp
; File e:\study\jpeg2000\visually_lossless_jpeg2000\modifiedkakadu\coresys\common\kdu_messaging.h
; File e:\study\jpeg2000\visually_lossless_jpeg2000\modifiedkakadu\coresys\transform\multi_transform.cpp
; File e:\study\jpeg2000\visually_lossless_jpeg2000\modifiedkakadu\coresys\common\kdu_messaging.h
; File e:\study\jpeg2000\visually_lossless_jpeg2000\modifiedkakadu\coresys\transform\multi_transform.cpp
; File e:\study\jpeg2000\visually_lossless_jpeg2000\modifiedkakadu\coresys\common\kdu_messaging.h
; File e:\study\jpeg2000\visually_lossless_jpeg2000\modifiedkakadu\coresys\transform\multi_transform.cpp
;	COMDAT ?prepare_network_for_inversion@kd_multi_analysis@@AAEXXZ
_TEXT	SEGMENT
_e$2 = -44						; size = 20
_line$1$ = -24						; size = 4
_n$6$ = -20						; size = 4
_this$1$ = -16						; size = 4
__$EHRec$ = -12						; size = 12
?prepare_network_for_inversion@kd_multi_analysis@@AAEXXZ PROC ; kd_multi_analysis::prepare_network_for_inversion, COMDAT
; _this$ = ecx

; 1344 : {

	push	ebp
	mov	ebp, esp
	push	-1
	push	__ehhandler$?prepare_network_for_inversion@kd_multi_analysis@@AAEXXZ
	mov	eax, DWORD PTR fs:0
	push	eax
	sub	esp, 32					; 00000020H
	push	ebx
	push	esi
	push	edi
	mov	eax, DWORD PTR ___security_cookie
	xor	eax, ebp
	push	eax
	lea	eax, DWORD PTR __$EHRec$[ebp]
	mov	DWORD PTR fs:0, eax
	mov	edi, ecx
	mov	DWORD PTR _this$1$[ebp], edi

; 1345 :   int n;
; 1346 :   kd_multi_block *block;
; 1347 :   const char *expl, *failure_explanation = NULL;
; 1348 : 
; 1349 :   for (block=block_tail; block != NULL; block=block->prev)

	mov	esi, DWORD PTR [edi+16]
	xor	ebx, ebx
	test	esi, esi
	je	$LN3@prepare_ne
	npad	6
$LL4@prepare_ne:

; 1350 :     {
; 1351 :       if (block->is_null_transform)

	cmp	BYTE PTR [esi+4], 0
	je	SHORT $LN32@prepare_ne

; 1352 :         {
; 1353 :           for (n=0; n < block->num_dependencies; n++)

	xor	ecx, ecx
	cmp	DWORD PTR [esi+16], ecx
	jle	$LN2@prepare_ne
	xor	edx, edx
$LL7@prepare_ne:

; 1354 :             {
; 1355 :               assert(n < block->num_components);
; 1356 :               if ((block->components[n].num_consumers == 0) &&

	mov	eax, DWORD PTR [esi+12]
	cmp	DWORD PTR [edx+eax+24], 0
	jne	SHORT $LN5@prepare_ne
	mov	eax, DWORD PTR [esi+20]
	mov	eax, DWORD PTR [eax+ecx*4]
	test	eax, eax
	je	SHORT $LN5@prepare_ne

; 1357 :                   (block->dependencies[n] != NULL))
; 1358 :                 {
; 1359 :                   block->dependencies[n]->num_consumers--;

	dec	DWORD PTR [eax+24]

; 1360 :                   block->dependencies[n] = NULL;

	mov	eax, DWORD PTR [esi+20]
	mov	DWORD PTR [eax+ecx*4], 0
$LN5@prepare_ne:

; 1352 :         {
; 1353 :           for (n=0; n < block->num_dependencies; n++)

	inc	ecx
	add	edx, 60					; 0000003cH
	cmp	ecx, DWORD PTR [esi+16]
	jl	SHORT $LL7@prepare_ne

; 1361 :                 }
; 1362 :             }
; 1363 :         }
; 1364 :       else if ((expl = block->prepare_for_inversion()) != NULL)

	jmp	SHORT $LN2@prepare_ne
$LN32@prepare_ne:
	mov	eax, DWORD PTR [esi]
	mov	ecx, esi
	call	DWORD PTR [eax+20]
	test	eax, eax
	je	SHORT $LN2@prepare_ne

; 1367 :           for (n=0; n < block->num_components; n++)

	xor	ecx, ecx
	mov	ebx, eax
	cmp	DWORD PTR [esi+8], ecx
	jle	SHORT $LN9@prepare_ne

; 1365 :         {
; 1366 :           failure_explanation = expl;

	xor	edx, edx
$LL10@prepare_ne:

; 1368 :             block->components[n].is_constant = true;

	mov	eax, DWORD PTR [esi+12]
	lea	edx, DWORD PTR [edx+60]
	inc	ecx
	mov	BYTE PTR [edx+eax-25], 1
	cmp	ecx, DWORD PTR [esi+8]
	jl	SHORT $LL10@prepare_ne
$LN9@prepare_ne:

; 1369 :                  // This notifies downstream blocks that there is no need to
; 1370 :                  // write to this component.
; 1371 :           for (n=0; n < block->num_dependencies; n++)

	xor	ecx, ecx
	cmp	DWORD PTR [esi+16], ecx
	jle	SHORT $LN2@prepare_ne
	npad	3
$LL13@prepare_ne:

; 1372 :             if (block->dependencies[n] != NULL)

	mov	eax, DWORD PTR [esi+20]
	mov	eax, DWORD PTR [eax+ecx*4]
	test	eax, eax
	je	SHORT $LN11@prepare_ne

; 1373 :               {
; 1374 :                 block->dependencies[n]->num_consumers--;

	dec	DWORD PTR [eax+24]

; 1375 :                 block->dependencies[n] = NULL;

	mov	eax, DWORD PTR [esi+20]
	mov	DWORD PTR [eax+ecx*4], 0
$LN11@prepare_ne:

; 1369 :                  // This notifies downstream blocks that there is no need to
; 1370 :                  // write to this component.
; 1371 :           for (n=0; n < block->num_dependencies; n++)

	inc	ecx
	cmp	ecx, DWORD PTR [esi+16]
	jl	SHORT $LL13@prepare_ne
$LN2@prepare_ne:

; 1345 :   int n;
; 1346 :   kd_multi_block *block;
; 1347 :   const char *expl, *failure_explanation = NULL;
; 1348 : 
; 1349 :   for (block=block_tail; block != NULL; block=block->prev)

	mov	esi, DWORD PTR [esi+36]
	test	esi, esi
	jne	$LL4@prepare_ne
$LN3@prepare_ne:

; 1376 :               }
; 1377 :         }
; 1378 :     }
; 1379 : 
; 1380 :   // Make a forward sweep through the blocks, removing any dependencies which
; 1381 :   // are now constant
; 1382 :   for (block=xform_blocks; block != NULL; block=block->next)

	mov	ecx, DWORD PTR [edi+12]
	test	ecx, ecx
	je	SHORT $LN15@prepare_ne
	npad	1
$LL16@prepare_ne:

; 1383 :     {
; 1384 :       for (n=0; n < block->num_dependencies; n++)

	xor	edx, edx
	cmp	DWORD PTR [ecx+16], edx
	jle	SHORT $LN14@prepare_ne
	xor	esi, esi
	npad	7
$LL19@prepare_ne:
	mov	eax, DWORD PTR [ecx+20]
	lea	edi, DWORD PTR [eax+edx*4]

; 1385 :         {
; 1386 :           kd_multi_line *line = block->dependencies[n];

	mov	eax, DWORD PTR [edi]

; 1387 :           if ((line == NULL) || !line->is_constant)

	test	eax, eax
	je	SHORT $LN17@prepare_ne
	cmp	BYTE PTR [eax+35], 0
	je	SHORT $LN17@prepare_ne

; 1388 :             continue;
; 1389 :           block->dependencies[n] = NULL;

	mov	DWORD PTR [edi], 0

; 1390 :           line->num_consumers--;

	dec	DWORD PTR [eax+24]

; 1391 :           if (block->is_null_transform)

	cmp	BYTE PTR [ecx+4], 0
	je	SHORT $LN17@prepare_ne

; 1392 :             block->components[n].is_constant = true;

	mov	eax, DWORD PTR [ecx+12]
	mov	BYTE PTR [eax+esi+35], 1
$LN17@prepare_ne:

; 1383 :     {
; 1384 :       for (n=0; n < block->num_dependencies; n++)

	inc	edx
	add	esi, 60					; 0000003cH
	cmp	edx, DWORD PTR [ecx+16]
	jl	SHORT $LL19@prepare_ne
$LN14@prepare_ne:

; 1376 :               }
; 1377 :         }
; 1378 :     }
; 1379 : 
; 1380 :   // Make a forward sweep through the blocks, removing any dependencies which
; 1381 :   // are now constant
; 1382 :   for (block=xform_blocks; block != NULL; block=block->next)

	mov	ecx, DWORD PTR [ecx+32]
	test	ecx, ecx
	jne	SHORT $LL16@prepare_ne
$LN15@prepare_ne:

; 1393 :         }
; 1394 :     }
; 1395 : 
; 1396 :   // Now check to see if we will be able to generate all codestream components
; 1397 :   for (n=0; n < codestream_collection->num_components; n++)

	mov	ecx, DWORD PTR _this$1$[ebp]
	xor	esi, esi
	mov	eax, DWORD PTR [ecx+24]
	cmp	DWORD PTR [eax], esi
	jle	SHORT $LN21@prepare_ne
$LL22@prepare_ne:

; 1398 :     if (codestream_collection->components[n]->num_consumers <= 0)

	mov	eax, DWORD PTR [eax+4]
	mov	eax, DWORD PTR [eax+esi*4]
	cmp	DWORD PTR [eax+24], 0
	jg	SHORT $LN20@prepare_ne

; 1399 :       { KDU_ERROR(e,0x26080501); e <<

	push	OFFSET ??_C@_0BE@KMIJLGEL@Kakadu?5Core?5Error?3?6?$AA@
	lea	ecx, DWORD PTR _e$2[ebp]
	call	??0kdu_error@@QAE@PBD@Z			; kdu_error::kdu_error
; File e:\study\jpeg2000\visually_lossless_jpeg2000\modifiedkakadu\coresys\common\kdu_messaging.h

; 257  :       { put_text(string); return *this; }

	mov	eax, DWORD PTR _e$2[ebp]
	lea	ecx, DWORD PTR _e$2[ebp]
	push	OFFSET ??_C@_0CLD@EIGIPOMM@Cannot?5perform?5forward?5multi?9com@
; File e:\study\jpeg2000\visually_lossless_jpeg2000\modifiedkakadu\coresys\transform\multi_transform.cpp

; 1399 :       { KDU_ERROR(e,0x26080501); e <<

	mov	DWORD PTR __$EHRec$[ebp+8], 0
; File e:\study\jpeg2000\visually_lossless_jpeg2000\modifiedkakadu\coresys\common\kdu_messaging.h

; 257  :       { put_text(string); return *this; }

	call	DWORD PTR [eax+8]
; File e:\study\jpeg2000\visually_lossless_jpeg2000\modifiedkakadu\coresys\transform\multi_transform.cpp

; 1412 :         if (failure_explanation != NULL)

	test	ebx, ebx
	je	SHORT $LN41@prepare_ne
; File e:\study\jpeg2000\visually_lossless_jpeg2000\modifiedkakadu\coresys\common\kdu_messaging.h

; 257  :       { put_text(string); return *this; }

	mov	eax, DWORD PTR _e$2[ebp]
	lea	ecx, DWORD PTR _e$2[ebp]
	push	OFFSET ??_C@_0DK@DNEDNIAC@?5?5The?5following?5additional?5expla@
	call	DWORD PTR [eax+8]
	mov	eax, DWORD PTR _e$2[ebp]
	lea	ecx, DWORD PTR _e$2[ebp]
	push	ebx
	call	DWORD PTR [eax+8]
$LN41@prepare_ne:
; File e:\study\jpeg2000\visually_lossless_jpeg2000\modifiedkakadu\coresys\transform\multi_transform.cpp

; 1415 :       }

	lea	ecx, DWORD PTR _e$2[ebp]
	mov	DWORD PTR __$EHRec$[ebp+8], -1
	call	??1kdu_error@@UAE@XZ			; kdu_error::~kdu_error
	mov	ecx, DWORD PTR _this$1$[ebp]
$LN20@prepare_ne:

; 1393 :         }
; 1394 :     }
; 1395 : 
; 1396 :   // Now check to see if we will be able to generate all codestream components
; 1397 :   for (n=0; n < codestream_collection->num_components; n++)

	mov	eax, DWORD PTR [ecx+24]
	inc	esi
	cmp	esi, DWORD PTR [eax]
	jl	SHORT $LL22@prepare_ne
$LN21@prepare_ne:

; 1416 : 
; 1417 :   // Finally, make sure that there is only one consumer for each output
; 1418 :   // row (means one consumer for each source row from the compressor's
; 1419 :   // perspective).
; 1420 :   for (n=0; n < output_collection->num_components; n++)

	mov	eax, DWORD PTR [ecx+28]
	xor	edi, edi
	mov	DWORD PTR _n$6$[ebp], edi
	cmp	DWORD PTR [eax], edi
	jle	SHORT $LN24@prepare_ne
$LL25@prepare_ne:

; 1421 :     {
; 1422 :       kd_multi_line *line = output_collection->components[n];

	mov	eax, DWORD PTR [eax+4]

; 1423 :       for (block=block_tail;

	mov	edx, DWORD PTR [ecx+16]
	mov	eax, DWORD PTR [eax+edi*4]
	mov	DWORD PTR _line$1$[ebp], eax

; 1424 :            (block != NULL) && (line->num_consumers > 1);

	test	edx, edx
	je	SHORT $LN23@prepare_ne
$LL28@prepare_ne:
	cmp	DWORD PTR [eax+24], 1
	jle	SHORT $LN23@prepare_ne

; 1426 :         for (int k=0; k < block->num_dependencies; k++)

	mov	esi, DWORD PTR [edx+16]
	xor	ecx, ecx
	test	esi, esi
	jle	SHORT $LN93@prepare_ne

; 1427 :           if (block->dependencies[k] == output_collection->components[n])

	mov	eax, DWORD PTR _this$1$[ebp]
	mov	ebx, DWORD PTR [edx+20]
	mov	eax, DWORD PTR [eax+28]
	mov	eax, DWORD PTR [eax+4]
	mov	edi, DWORD PTR [eax+edi*4]
	mov	eax, ebx
$LL31@prepare_ne:
	cmp	DWORD PTR [eax], edi
	je	SHORT $LN61@prepare_ne

; 1426 :         for (int k=0; k < block->num_dependencies; k++)

	inc	ecx
	add	eax, 4
	cmp	ecx, esi
	jl	SHORT $LL31@prepare_ne

; 1427 :           if (block->dependencies[k] == output_collection->components[n])

	mov	eax, DWORD PTR _line$1$[ebp]
	mov	edi, DWORD PTR _n$6$[ebp]
$LN93@prepare_ne:
	mov	ecx, DWORD PTR _this$1$[ebp]
$LN26@prepare_ne:

; 1425 :            block=block->prev)

	mov	edx, DWORD PTR [edx+36]
	test	edx, edx
	jne	SHORT $LL28@prepare_ne
$LN23@prepare_ne:

; 1416 : 
; 1417 :   // Finally, make sure that there is only one consumer for each output
; 1418 :   // row (means one consumer for each source row from the compressor's
; 1419 :   // perspective).
; 1420 :   for (n=0; n < output_collection->num_components; n++)

	mov	eax, DWORD PTR [ecx+28]
	inc	edi
	mov	DWORD PTR _n$6$[ebp], edi
	cmp	edi, DWORD PTR [eax]
	jl	SHORT $LL25@prepare_ne
$LN24@prepare_ne:

; 1431 :               break;
; 1432 :             }
; 1433 :     }
; 1434 : }

	mov	ecx, DWORD PTR __$EHRec$[ebp]
	mov	DWORD PTR fs:0, ecx
	pop	ecx
	pop	edi
	pop	esi
	pop	ebx
	mov	esp, ebp
	pop	ebp
	ret	0
$LN61@prepare_ne:

; 1428 :             {
; 1429 :               block->dependencies[k] = NULL;
; 1430 :               output_collection->components[n]->num_consumers--;

	mov	edi, DWORD PTR _n$6$[ebp]
	mov	DWORD PTR [ebx+ecx*4], 0
	mov	ecx, DWORD PTR _this$1$[ebp]
	mov	eax, DWORD PTR [ecx+28]
	mov	eax, DWORD PTR [eax+4]
	mov	eax, DWORD PTR [eax+edi*4]
	dec	DWORD PTR [eax+24]
	mov	eax, DWORD PTR _line$1$[ebp]
	jmp	SHORT $LN26@prepare_ne
_TEXT	ENDS
;	COMDAT text$x
text$x	SEGMENT
__unwindfunclet$?prepare_network_for_inversion@kd_multi_analysis@@AAEXXZ$0:
	lea	ecx, DWORD PTR _e$2[ebp]
	jmp	??1kdu_error@@UAE@XZ			; kdu_error::~kdu_error
__ehhandler$?prepare_network_for_inversion@kd_multi_analysis@@AAEXXZ:
	mov	edx, DWORD PTR [esp+8]
	lea	eax, DWORD PTR [edx+12]
	mov	ecx, DWORD PTR [edx-48]
	xor	ecx, eax
	call	@__security_check_cookie@4
	mov	eax, OFFSET __ehfuncinfo$?prepare_network_for_inversion@kd_multi_analysis@@AAEXXZ
	jmp	___CxxFrameHandler3
text$x	ENDS
?prepare_network_for_inversion@kd_multi_analysis@@AAEXXZ ENDP ; kd_multi_analysis::prepare_network_for_inversion
; Function compile flags: /Ogtp
; File e:\study\jpeg2000\visually_lossless_jpeg2000\modifiedkakadu\coresys\transform\multi_transform.cpp
;	COMDAT ?is_line_absolute@kd_multi_analysis@@UAE_NH@Z
_TEXT	SEGMENT
_comp_idx$ = 8						; size = 4
?is_line_absolute@kd_multi_analysis@@UAE_NH@Z PROC	; kd_multi_analysis::is_line_absolute, COMDAT
; _this$ = ecx

; 1635 : {

	push	ebp
	mov	ebp, esp

; 1636 :   if ((output_collection == NULL) ||
; 1637 :       (comp_idx < 0) || (comp_idx >= output_collection->num_components))

	mov	eax, DWORD PTR [ecx+28]
	test	eax, eax
	je	SHORT $LN3@is_line_ab
	mov	ecx, DWORD PTR _comp_idx$[ebp]
	test	ecx, ecx
	js	SHORT $LN3@is_line_ab
	cmp	ecx, DWORD PTR [eax]
	jge	SHORT $LN3@is_line_ab

; 1639 :   kd_multi_line *line = output_collection->components[comp_idx];
; 1640 :   return line->reversible;

	mov	eax, DWORD PTR [eax+4]
	mov	eax, DWORD PTR [eax+ecx*4]
	mov	al, BYTE PTR [eax+32]

; 1641 : }

	pop	ebp
	ret	4
$LN3@is_line_ab:

; 1638 :     return false;

	xor	al, al

; 1641 : }

	pop	ebp
	ret	4
?is_line_absolute@kd_multi_analysis@@UAE_NH@Z ENDP	; kd_multi_analysis::is_line_absolute
_TEXT	ENDS
; Function compile flags: /Ogtp
; File e:\study\jpeg2000\visually_lossless_jpeg2000\modifiedkakadu\coresys\transform\multi_transform.cpp
;	COMDAT ?is_line_precise@kd_multi_analysis@@UAE_NH@Z
_TEXT	SEGMENT
_comp_idx$ = 8						; size = 4
?is_line_precise@kd_multi_analysis@@UAE_NH@Z PROC	; kd_multi_analysis::is_line_precise, COMDAT
; _this$ = ecx

; 1621 : {

	push	ebp
	mov	ebp, esp

; 1622 :   if ((output_collection == NULL) ||
; 1623 :       (comp_idx < 0) || (comp_idx >= output_collection->num_components))

	mov	eax, DWORD PTR [ecx+28]
	test	eax, eax
	je	SHORT $LN3@is_line_pr
	mov	ecx, DWORD PTR _comp_idx$[ebp]
	test	ecx, ecx
	js	SHORT $LN3@is_line_pr
	cmp	ecx, DWORD PTR [eax]
	jge	SHORT $LN3@is_line_pr

; 1625 :   kd_multi_line *line = output_collection->components[comp_idx];
; 1626 :   return line->need_precise;

	mov	eax, DWORD PTR [eax+4]
	mov	eax, DWORD PTR [eax+ecx*4]
	mov	al, BYTE PTR [eax+34]

; 1627 : }

	pop	ebp
	ret	4
$LN3@is_line_pr:

; 1624 :     return false;

	xor	al, al

; 1627 : }

	pop	ebp
	ret	4
?is_line_precise@kd_multi_analysis@@UAE_NH@Z ENDP	; kd_multi_analysis::is_line_precise
_TEXT	ENDS
; Function compile flags: /Ogtp
; File e:\study\jpeg2000\visually_lossless_jpeg2000\modifiedkakadu\coresys\transform\multi_transform.cpp
;	COMDAT ?exchange_line@kd_multi_analysis@@UAEPAVkdu_line_buf@@HPAV2@PAVkdu_thread_env@@@Z
_TEXT	SEGMENT
_row_idx$1$ = -4					; size = 4
_comp_idx$ = 8						; size = 4
_written$ = 12						; size = 4
_env$ = 16						; size = 4
?exchange_line@kd_multi_analysis@@UAEPAVkdu_line_buf@@HPAV2@PAVkdu_thread_env@@@Z PROC ; kd_multi_analysis::exchange_line, COMDAT
; _this$ = ecx

; 1443 : {

	push	ebp
	mov	ebp, esp
	push	ecx
	push	esi
	push	edi
	mov	edi, ecx

; 1444 :   assert((comp_idx >= 0) && (comp_idx < output_collection->num_components));
; 1445 :   int row_idx = source_row_counters[comp_idx];

	mov	ecx, DWORD PTR _comp_idx$[ebp]
	mov	eax, DWORD PTR [edi+80]
	mov	edx, DWORD PTR [eax+ecx*4]

; 1446 :   kd_multi_line *line = output_collection->components[comp_idx];

	mov	eax, DWORD PTR [edi+28]
	mov	DWORD PTR _row_idx$1$[ebp], edx
	mov	eax, DWORD PTR [eax+4]
	mov	esi, DWORD PTR [eax+ecx*4]

; 1447 :   if (row_idx >= line->size.y)

	cmp	edx, DWORD PTR [esi+12]
	jl	SHORT $LN2@exchange_l

; 1448 :     return NULL;

	pop	edi
	xor	eax, eax
	pop	esi

; 1459 :     return NULL;
; 1460 :   else
; 1461 :     return &(line->line);
; 1462 : }

	mov	esp, ebp
	pop	ebp
	ret	12					; 0000000cH
$LN2@exchange_l:

; 1449 :   assert(line->num_consumers == 1);
; 1450 :   if (written != NULL)

	cmp	DWORD PTR _written$[ebp], 0
	je	SHORT $LN3@exchange_l

; 1451 :     {
; 1452 :       assert((written == &(line->line)) && !line->waiting_for_inversion);
; 1453 :       line->apply_offset(-line->rev_offset,-line->irrev_offset);

	movss	xmm0, DWORD PTR [esi+44]
	mov	eax, DWORD PTR [esi+40]
	xorps	xmm0, DWORD PTR __xmm@80000000800000008000000080000000
	neg	eax
	push	ecx
	movss	DWORD PTR [esp], xmm0
	mov	ecx, esi
	push	eax
	call	?apply_offset@kd_multi_line@@QAEXHM@Z	; kd_multi_line::apply_offset

; 1454 :       advance_line(line,row_idx,env);

	push	DWORD PTR _env$[ebp]
	mov	ecx, edi
	push	DWORD PTR _row_idx$1$[ebp]
	push	esi
	call	?advance_line@kd_multi_analysis@@AAEXPAUkd_multi_line@@HPAVkdu_thread_env@@@Z ; kd_multi_analysis::advance_line

; 1455 :       source_row_counters[comp_idx] = ++row_idx;

	mov	ecx, DWORD PTR [edi+80]
	mov	eax, DWORD PTR _comp_idx$[ebp]
	mov	edx, DWORD PTR _row_idx$1$[ebp]
	inc	edx
	mov	DWORD PTR [ecx+eax*4], edx
$LN3@exchange_l:

; 1456 :     }
; 1457 :   assert(line->row_idx == (row_idx-1));
; 1458 :   if (line->waiting_for_inversion)

	xor	eax, eax
	cmp	BYTE PTR [esi+28], al
	pop	edi
	cmovne	esi, eax
	mov	eax, esi
	pop	esi

; 1459 :     return NULL;
; 1460 :   else
; 1461 :     return &(line->line);
; 1462 : }

	mov	esp, ebp
	pop	ebp
	ret	12					; 0000000cH
?exchange_line@kd_multi_analysis@@UAEPAVkdu_line_buf@@HPAV2@PAVkdu_thread_env@@@Z ENDP ; kd_multi_analysis::exchange_line
_TEXT	ENDS
; Function compile flags: /Ogtp
; File e:\study\jpeg2000\visually_lossless_jpeg2000\modifiedkakadu\coresys\transform\multi_transform.cpp
;	COMDAT ?get_size@kd_multi_analysis@@UAE?AUkdu_coords@@H@Z
_TEXT	SEGMENT
___$ReturnUdt$ = 8					; size = 4
_comp_idx$ = 12						; size = 4
?get_size@kd_multi_analysis@@UAE?AUkdu_coords@@H@Z PROC	; kd_multi_analysis::get_size, COMDAT
; _this$ = ecx

; 1333 : {

	push	ebp
	mov	ebp, esp

; 1334 :   assert((comp_idx >= 0) && (comp_idx < output_collection->num_components));
; 1335 :   return output_collection->components[comp_idx]->size;

	mov	eax, DWORD PTR [ecx+28]
	mov	ecx, DWORD PTR [eax+4]
	mov	eax, DWORD PTR _comp_idx$[ebp]
	mov	edx, DWORD PTR [ecx+eax*4]
	mov	eax, DWORD PTR ___$ReturnUdt$[ebp]
	mov	ecx, DWORD PTR [edx+12]
	mov	DWORD PTR [eax], ecx
	mov	ecx, DWORD PTR [edx+16]
	mov	DWORD PTR [eax+4], ecx

; 1336 : }

	pop	ebp
	ret	8
?get_size@kd_multi_analysis@@UAE?AUkdu_coords@@H@Z ENDP	; kd_multi_analysis::get_size
_TEXT	ENDS
; Function compile flags: /Ogtp
; File e:\study\jpeg2000\visually_lossless_jpeg2000\modifiedkakadu\coresys\transform\multi_transform.cpp
; File e:\study\jpeg2000\visually_lossless_jpeg2000\modifiedkakadu\coresys\common\kdu_sample_processing.h
; File e:\study\jpeg2000\visually_lossless_jpeg2000\modifiedkakadu\coresys\transform\multi_transform.cpp
; File e:\study\jpeg2000\visually_lossless_jpeg2000\modifiedkakadu\coresys\common\kdu_sample_processing.h
; File e:\study\jpeg2000\visually_lossless_jpeg2000\modifiedkakadu\coresys\transform\multi_transform.cpp
;	COMDAT ?create@kd_multi_analysis@@QAE_JVkdu_codestream@@Vkdu_tile@@_NPAVkdu_roi_image@@2HPAVkdu_thread_env@@PAUkdu_thread_queue@@2@Z
_TEXT	SEGMENT
_tile_dims$1 = -28					; size = 16
$T2 = -12						; size = 4
$T3 = -8						; size = 4
$T4 = -4						; size = 4
_codestream$ = 8					; size = 4
_tile$ = 12						; size = 4
_force_precise$ = 16					; size = 1
_tc$5 = 16						; size = 4
_roi_image$ = 20					; size = 4
_n$1$ = 24						; size = 4
_want_fastest$ = 24					; size = 1
_roi_node$1$ = 28					; size = 4
_processing_stripe_height$ = 28				; size = 4
_env$ = 32						; size = 4
_queue$1$ = 36						; size = 4
_env_queue$ = 36					; size = 4
_double_buffering$ = 40					; size = 1
_res$6 = 40						; size = 4
?create@kd_multi_analysis@@QAE_JVkdu_codestream@@Vkdu_tile@@_NPAVkdu_roi_image@@2HPAVkdu_thread_env@@PAUkdu_thread_queue@@2@Z PROC ; kd_multi_analysis::create, COMDAT
; _this$ = ecx

; 1279 : {

	push	ebp
	mov	ebp, esp
	sub	esp, 28					; 0000001cH
	push	ebx
	push	esi
	push	edi

; 1280 :   construct(codestream,tile,force_precise,false,want_fastest,

	push	DWORD PTR _double_buffering$[ebp]
	mov	esi, ecx
	push	DWORD PTR _env_queue$[ebp]
	push	DWORD PTR _env$[ebp]
	lea	ecx, DWORD PTR [esi+4]
	push	DWORD PTR _processing_stripe_height$[ebp]
	push	DWORD PTR _want_fastest$[ebp]
	push	0
	push	DWORD PTR _force_precise$[ebp]
	push	DWORD PTR _tile$[ebp]
	push	DWORD PTR _codestream$[ebp]
	call	?construct@kd_multi_transform@@IAEXVkdu_codestream@@Vkdu_tile@@_N22HPAVkdu_thread_env@@PAUkdu_thread_queue@@2@Z ; kd_multi_transform::construct

; 1281 :             processing_stripe_height,env,env_queue,double_buffering);
; 1282 :   prepare_network_for_inversion();

	mov	ecx, esi
	call	?prepare_network_for_inversion@kd_multi_analysis@@AAEXXZ ; kd_multi_analysis::prepare_network_for_inversion

; 1286 :   for (n=0; n < codestream_collection->num_components; n++)

	mov	eax, DWORD PTR [esi+24]
	mov	DWORD PTR _n$1$[ebp], 0
	cmp	DWORD PTR [eax], 0
	jle	$LN3@create

; 1280 :   construct(codestream,tile,force_precise,false,want_fastest,

	xor	ebx, ebx
	npad	7
$LL4@create:

; 1287 :     {
; 1288 :       kd_multi_component *comp = codestream_components + n;

	mov	edi, DWORD PTR [esi+20]
	add	edi, ebx

; 1289 :       kdu_thread_queue *queue = (env==NULL)?NULL:comp->env_queue;

	cmp	DWORD PTR _env$[ebp], 0
	jne	SHORT $LN16@create
	mov	DWORD PTR _queue$1$[ebp], 0
	jmp	SHORT $LN17@create
$LN16@create:
	mov	eax, DWORD PTR [edi+8]
	mov	DWORD PTR _queue$1$[ebp], eax
$LN17@create:

; 1290 :       kdu_tile_comp tc = tile.access_component(comp->comp_idx);

	push	DWORD PTR [edi+4]
	lea	eax, DWORD PTR _tc$5[ebp]
	push	eax
	lea	ecx, DWORD PTR _tile$[ebp]
	call	?access_component@kdu_tile@@QAE?AVkdu_tile_comp@@H@Z ; kdu_tile::access_component

; 1291 :       kdu_resolution res = tc.access_resolution();

	lea	eax, DWORD PTR _res$6[ebp]
	push	eax
	lea	ecx, DWORD PTR _tc$5[ebp]
	call	?access_resolution@kdu_tile_comp@@QAE?AVkdu_resolution@@XZ ; kdu_tile_comp::access_resolution

; 1292 :       kdu_dims tile_dims;  res.get_dims(tile_dims);

	lea	eax, DWORD PTR _tile_dims$1[ebp]
	xorps	xmm0, xmm0
	push	eax
	lea	ecx, DWORD PTR _res$6[ebp]
	movups	XMMWORD PTR _tile_dims$1[ebp], xmm0
	call	?get_dims@kdu_resolution@@QAEXAAUkdu_dims@@@Z ; kdu_resolution::get_dims

; 1293 :       kdu_roi_node *roi_node = NULL;
; 1294 :       if (roi_image != NULL)

	mov	ecx, DWORD PTR _roi_image$[ebp]
	mov	DWORD PTR _roi_node$1$[ebp], 0
	test	ecx, ecx
	je	SHORT $LN11@create

; 1295 :         roi_node = roi_image->acquire_node(comp->comp_idx,tile_dims);

	movups	xmm0, XMMWORD PTR _tile_dims$1[ebp]
	mov	edx, DWORD PTR [ecx]
	sub	esp, 16					; 00000010H
	mov	eax, esp
	push	DWORD PTR [edi+4]
	movups	XMMWORD PTR [eax], xmm0
	call	DWORD PTR [edx+4]
	mov	DWORD PTR _roi_node$1$[ebp], eax
$LN11@create:

; 1296 :       if (res.which() == 0)

	lea	ecx, DWORD PTR _res$6[ebp]
	call	?which@kdu_resolution@@QAEHXZ		; kdu_resolution::which
	test	eax, eax
	jne	SHORT $LN12@create

; 1297 :         comp->push_ifc = kdu_encoder(res.access_subband(LL_BAND),&allocator,

	push	eax
	lea	eax, DWORD PTR $T4[ebp]
	push	eax
	lea	ecx, DWORD PTR _res$6[ebp]
	call	?access_subband@kdu_resolution@@QAE?AVkdu_subband@@H@Z ; kdu_resolution::access_subband
	push	DWORD PTR _queue$1$[ebp]
	cmp	BYTE PTR [edi+46], 0
	push	DWORD PTR _env$[ebp]
	push	DWORD PTR _roi_node$1$[ebp]
	push	ecx
	sete	cl
	mov	DWORD PTR [esp], 1065353216		; 3f800000H
	movzx	ecx, cl
	push	ecx
	lea	ecx, DWORD PTR [esi+36]
	push	ecx
	push	DWORD PTR [eax]
	lea	ecx, DWORD PTR $T3[ebp]
	call	??0kdu_encoder@@QAE@Vkdu_subband@@PAVkdu_sample_allocator@@_NMPAVkdu_roi_node@@PAVkdu_thread_env@@PAUkdu_thread_queue@@@Z ; kdu_encoder::kdu_encoder

; 1298 :                                      !(comp->line.need_precise),1.0F,roi_node,
; 1299 :                                      env,queue);
; 1300 :       else

	jmp	SHORT $LN42@create
$LN12@create:

; 1301 :         comp->push_ifc = kdu_analysis(res,&allocator,

	push	DWORD PTR _queue$1$[ebp]
	cmp	BYTE PTR [edi+46], 0
	push	DWORD PTR _env$[ebp]
	sete	al
	push	DWORD PTR _roi_node$1$[ebp]
	movzx	eax, al
	push	ecx
	mov	DWORD PTR [esp], 1065353216		; 3f800000H
	lea	ecx, DWORD PTR $T2[ebp]
	push	eax
	lea	eax, DWORD PTR [esi+36]
	push	eax
	push	DWORD PTR _res$6[ebp]
	call	??0kdu_analysis@@QAE@Vkdu_resolution@@PAVkdu_sample_allocator@@_NMPAVkdu_roi_node@@PAVkdu_thread_env@@PAUkdu_thread_queue@@@Z ; kdu_analysis::kdu_analysis
$LN42@create:
; File e:\study\jpeg2000\visually_lossless_jpeg2000\modifiedkakadu\coresys\common\kdu_sample_processing.h

; 2048 :   { state = rhs.state; return *this; }

	mov	eax, DWORD PTR [eax]
; File e:\study\jpeg2000\visually_lossless_jpeg2000\modifiedkakadu\coresys\transform\multi_transform.cpp

; 1286 :   for (n=0; n < codestream_collection->num_components; n++)

	add	ebx, 112				; 00000070H
	mov	ecx, DWORD PTR _n$1$[ebp]
; File e:\study\jpeg2000\visually_lossless_jpeg2000\modifiedkakadu\coresys\common\kdu_sample_processing.h

; 2048 :   { state = rhs.state; return *this; }

	mov	DWORD PTR [edi+108], eax
; File e:\study\jpeg2000\visually_lossless_jpeg2000\modifiedkakadu\coresys\transform\multi_transform.cpp

; 1286 :   for (n=0; n < codestream_collection->num_components; n++)

	inc	ecx
	mov	eax, DWORD PTR [esi+24]
	mov	DWORD PTR _n$1$[ebp], ecx
	cmp	ecx, DWORD PTR [eax]
	jl	$LL4@create
$LN3@create:

; 1302 :                                       !(comp->line.need_precise),1.0F,roi_node,
; 1303 :                                       env,queue);
; 1304 :     }
; 1305 : 
; 1306 :   create_resources();

	lea	ecx, DWORD PTR [esi+4]
	call	?create_resources@kd_multi_transform@@IAEXXZ ; kd_multi_transform::create_resources

; 1307 : 
; 1308 :   source_row_counters = new int[output_collection->num_components];

	mov	eax, DWORD PTR [esi+28]
	xor	ecx, ecx
	mov	edx, 4
	mov	eax, DWORD PTR [eax]
	mul	edx
	seto	cl
	neg	ecx
	or	ecx, eax
	push	ecx
	call	??_U@YAPAXI@Z				; operator new[]
	mov	DWORD PTR [esi+80], eax

; 1309 :   for (n=0; n < output_collection->num_components; n++)

	xor	ecx, ecx
	mov	eax, DWORD PTR [esi+28]
	add	esp, 4
	cmp	DWORD PTR [eax], ecx
	jle	SHORT $LN6@create
	npad	7
$LL7@create:

; 1310 :     source_row_counters[n] = 0;

	mov	eax, DWORD PTR [esi+80]
	mov	DWORD PTR [eax+ecx*4], 0
	inc	ecx
	mov	eax, DWORD PTR [esi+28]
	cmp	ecx, DWORD PTR [eax]
	jl	SHORT $LL7@create
$LN6@create:

; 1311 :   for (n=0; n < codestream_collection->num_components; n++)

	mov	eax, DWORD PTR [esi+24]
	xor	edi, edi
	cmp	DWORD PTR [eax], edi
	jle	SHORT $LN9@create
	xor	ebx, ebx
	npad	3
$LL10@create:

; 1312 :     {
; 1313 :       kd_multi_component *comp = codestream_components + n;

	mov	ecx, DWORD PTR [esi+20]
	add	ecx, ebx

; 1314 :       comp->num_available_rows = comp->max_available_rows;

	mov	edx, DWORD PTR [ecx+92]
	mov	DWORD PTR [ecx+80], edx

; 1315 :       assert(comp->num_available_rows <= comp->line.size.y);
; 1316 :       if (comp->num_available_rows > 0)

	test	edx, edx
	jle	SHORT $LN8@create

; 1317 :         {
; 1318 :           comp->line.line = comp->buffer[0];

	mov	eax, DWORD PTR [ecx+100]
	movq	xmm0, QWORD PTR [eax]
	movq	QWORD PTR [ecx+12], xmm0
	mov	eax, DWORD PTR [eax+8]
	mov	DWORD PTR [ecx+20], eax

; 1319 :           comp->next_available_row = 1;
; 1320 :           comp->num_available_rows--;

	lea	eax, DWORD PTR [edx-1]
	mov	DWORD PTR [ecx+76], 1
	mov	DWORD PTR [ecx+80], eax
$LN8@create:

; 1311 :   for (n=0; n < codestream_collection->num_components; n++)

	mov	eax, DWORD PTR [esi+24]
	inc	edi
	add	ebx, 112				; 00000070H
	cmp	edi, DWORD PTR [eax]
	jl	SHORT $LL10@create
$LN9@create:

; 1321 :         }
; 1322 :     }
; 1323 : 
; 1324 :   return allocator.get_size();

	mov	eax, DWORD PTR [esi+48]

; 1325 : }

	pop	edi
	pop	esi
	cdq
	pop	ebx
	mov	esp, ebp
	pop	ebp
	ret	36					; 00000024H
?create@kd_multi_analysis@@QAE_JVkdu_codestream@@Vkdu_tile@@_NPAVkdu_roi_image@@2HPAVkdu_thread_env@@PAUkdu_thread_queue@@2@Z ENDP ; kd_multi_analysis::create
_TEXT	ENDS
; Function compile flags: /Ogtp
; File e:\study\jpeg2000\visually_lossless_jpeg2000\modifiedkakadu\coresys\transform\multi_transform.cpp
;	COMDAT ?terminate_queues@kd_multi_analysis@@UAEXPAVkdu_thread_env@@@Z
_TEXT	SEGMENT
_env$ = 8						; size = 4
?terminate_queues@kd_multi_analysis@@UAEXPAVkdu_thread_env@@@Z PROC ; kd_multi_analysis::terminate_queues, COMDAT
; _this$ = ecx

; 1260 : {

	push	ebp
	mov	ebp, esp
	mov	eax, ecx

; 1261 :   if (env != NULL)

	mov	ecx, DWORD PTR _env$[ebp]
	test	ecx, ecx
	je	SHORT $LN2@terminate_

; 1262 :     {
; 1263 :       assert((env_queue != NULL) &&
; 1264 :              (codestream_components[0].env_queue != NULL));
; 1265 :       env->terminate(env_queue,true);

	push	0
	push	1
	push	DWORD PTR [eax+60]
	call	?terminate@kdu_thread_entity@@QAE_NPAUkdu_thread_queue@@_NPAH@Z ; kdu_thread_entity::terminate
$LN2@terminate_:

; 1266 :     }
; 1267 : }

	pop	ebp
	ret	4
?terminate_queues@kd_multi_analysis@@UAEXPAVkdu_thread_env@@@Z ENDP ; kd_multi_analysis::terminate_queues
_TEXT	ENDS
; Function compile flags: /Ogtp
; File e:\study\jpeg2000\visually_lossless_jpeg2000\modifiedkakadu\coresys\transform\multi_transform.cpp
; File e:\study\jpeg2000\visually_lossless_jpeg2000\modifiedkakadu\coresys\common\kdu_sample_processing.h
; File e:\study\jpeg2000\visually_lossless_jpeg2000\modifiedkakadu\coresys\transform\multi_transform.cpp
;	COMDAT ??1kd_multi_analysis@@UAE@XZ
_TEXT	SEGMENT
??1kd_multi_analysis@@UAE@XZ PROC			; kd_multi_analysis::~kd_multi_analysis, COMDAT
; _this$ = ecx

; 1249 : {

	push	esi
	mov	esi, ecx
	push	edi

; 1250 :   if (source_row_counters != NULL)

	mov	eax, DWORD PTR [esi+80]
	mov	DWORD PTR [esi], OFFSET ??_7kd_multi_analysis@@6Bkd_multi_analysis_base@@@
	mov	DWORD PTR [esi+4], OFFSET ??_7kd_multi_analysis@@6Bkd_multi_transform@@@
	test	eax, eax
	je	SHORT $LN2@kd_multi_a

; 1251 :     delete[] source_row_counters;

	push	eax
	call	??_V@YAXPAX@Z				; operator delete[]
	add	esp, 4
$LN2@kd_multi_a:

; 1252 : }

	lea	ecx, DWORD PTR [esi+4]
	call	??1kd_multi_transform@@UAE@XZ		; kd_multi_transform::~kd_multi_transform
	pop	edi
; File e:\study\jpeg2000\visually_lossless_jpeg2000\modifiedkakadu\coresys\common\kdu_sample_processing.h

; 1260 :     virtual ~kd_multi_analysis_base() { return; }

	mov	DWORD PTR [esi], OFFSET ??_7kd_multi_analysis_base@@6B@
	pop	esi
; File e:\study\jpeg2000\visually_lossless_jpeg2000\modifiedkakadu\coresys\transform\multi_transform.cpp

; 1252 : }

	ret	0
??1kd_multi_analysis@@UAE@XZ ENDP			; kd_multi_analysis::~kd_multi_analysis
_TEXT	ENDS
; Function compile flags: /Ogtp
; File e:\study\jpeg2000\visually_lossless_jpeg2000\modifiedkakadu\coresys\transform\multi_transform_local.h
; File e:\study\jpeg2000\visually_lossless_jpeg2000\modifiedkakadu\coresys\common\kdu_sample_processing.h
; File e:\study\jpeg2000\visually_lossless_jpeg2000\modifiedkakadu\coresys\transform\multi_transform_local.h
;	COMDAT ??0kd_multi_analysis@@QAE@XZ
_TEXT	SEGMENT
_this$ = -4						; size = 4
??0kd_multi_analysis@@QAE@XZ PROC			; kd_multi_analysis::kd_multi_analysis, COMDAT
; _this$ = ecx

; 828  :     kd_multi_analysis() { source_row_counters=NULL; }

	push	ebp
	mov	ebp, esp
	push	ecx

; 737  :       {

	mov	DWORD PTR [ecx+4], OFFSET ??_7kd_multi_transform@@6B@

; 828  :     kd_multi_analysis() { source_row_counters=NULL; }

	mov	eax, ecx
; File e:\study\jpeg2000\visually_lossless_jpeg2000\modifiedkakadu\coresys\common\kdu_sample_processing.h

; 150  :       { bytes_reserved = bytes_used = buffer_size = 0;

	mov	DWORD PTR [ecx+48], 0
	mov	DWORD PTR [ecx+44], 0
	mov	DWORD PTR [ecx+40], 0

; 151  :         pre_creation_phase=true; buffer = buf_handle = NULL; }

	mov	BYTE PTR [ecx+36], 1
	mov	DWORD PTR [ecx+56], 0
	mov	DWORD PTR [ecx+52], 0
; File e:\study\jpeg2000\visually_lossless_jpeg2000\modifiedkakadu\coresys\transform\multi_transform_local.h

; 738  :         use_ycc=false; xform_blocks=block_tail=NULL;

	mov	BYTE PTR [ecx+8], 0
	mov	DWORD PTR [ecx+16], 0
	mov	DWORD PTR [ecx+12], 0

; 739  :         codestream_collection=output_collection=NULL;

	mov	DWORD PTR [ecx+28], 0
	mov	DWORD PTR [ecx+24], 0

; 740  :         constant_output_lines=NULL; codestream_components = NULL;

	mov	DWORD PTR [ecx+32], 0
	mov	DWORD PTR [ecx+20], 0

; 741  :         env_queue = NULL;  max_scratch_ints = max_scratch_floats = 0;

	mov	DWORD PTR [ecx+60], 0
	mov	DWORD PTR [ecx+72], 0
	mov	DWORD PTR [ecx+64], 0

; 742  :         scratch_ints=NULL;  scratch_floats=NULL;

	mov	DWORD PTR [ecx+68], 0
	mov	DWORD PTR [ecx+76], 0

; 828  :     kd_multi_analysis() { source_row_counters=NULL; }

	mov	DWORD PTR _this$[ebp], ecx
	mov	DWORD PTR [ecx], OFFSET ??_7kd_multi_analysis@@6Bkd_multi_analysis_base@@@
	mov	DWORD PTR [ecx+4], OFFSET ??_7kd_multi_analysis@@6Bkd_multi_transform@@@
	mov	DWORD PTR [ecx+80], 0
	mov	esp, ebp
	pop	ebp
	ret	0
??0kd_multi_analysis@@QAE@XZ ENDP			; kd_multi_analysis::kd_multi_analysis
_TEXT	ENDS
; Function compile flags: /Ogtp
;	COMDAT ??_Gkd_multi_synthesis@@UAEPAXI@Z
_TEXT	SEGMENT
___flags$ = 8						; size = 4
??_Gkd_multi_synthesis@@UAEPAXI@Z PROC			; kd_multi_synthesis::`scalar deleting destructor', COMDAT
; _this$ = ecx
	push	ebp
	mov	ebp, esp
	push	esi
	mov	esi, ecx
	call	??1kd_multi_synthesis@@UAE@XZ		; kd_multi_synthesis::~kd_multi_synthesis
	test	BYTE PTR ___flags$[ebp], 1
	je	SHORT $LN4@scalar
	push	84					; 00000054H
	push	esi
	call	??3@YAXPAXI@Z				; operator delete
	add	esp, 8
$LN4@scalar:
	mov	eax, esi
	pop	esi
	pop	ebp
	ret	4
??_Gkd_multi_synthesis@@UAEPAXI@Z ENDP			; kd_multi_synthesis::`scalar deleting destructor'
_TEXT	ENDS
; Function compile flags: /Ogtp
; File e:\study\jpeg2000\visually_lossless_jpeg2000\modifiedkakadu\coresys\transform\multi_transform.cpp
;	COMDAT ?get_line@kd_multi_synthesis@@AAEPAVkdu_line_buf@@PAUkd_multi_line@@HPAVkdu_thread_env@@@Z
_TEXT	SEGMENT
tv859 = -16						; size = 4
_final_stripe$1 = -12					; size = 1
_this$1$ = -8						; size = 4
_perform_ycc$1$ = -1					; size = 1
_line$ = 8						; size = 4
_tgt_row_idx$ = 12					; size = 4
_env$ = 16						; size = 4
?get_line@kd_multi_synthesis@@AAEPAVkdu_line_buf@@PAUkd_multi_line@@HPAVkdu_thread_env@@@Z PROC ; kd_multi_synthesis::get_line, COMDAT
; _this$ = ecx

; 1020 : {

	push	ebp
	mov	ebp, esp
	sub	esp, 16					; 00000010H
	push	ebx

; 1021 :   assert(line->bypass == NULL);
; 1022 :   if (line->is_constant)

	mov	ebx, DWORD PTR _line$[ebp]
	mov	edx, ecx
	mov	DWORD PTR _this$1$[ebp], edx
	cmp	BYTE PTR [ebx+35], 0
	je	SHORT $LN22@get_line

; 1023 :     return &(line->line);

	mov	eax, ebx
	pop	ebx

; 1185 : }

	mov	esp, ebp
	pop	ebp
	ret	12					; 0000000cH
$LN22@get_line:
	push	edi

; 1024 :   if (line->row_idx == tgt_row_idx)

	mov	edi, DWORD PTR _tgt_row_idx$[ebp]
	cmp	DWORD PTR [ebx+20], edi
	jne	SHORT $LN23@get_line

; 1025 :     { // The line we want has already been generated
; 1026 :       assert(line->outstanding_consumers > 0);
; 1027 :       line->outstanding_consumers--;

	dec	DWORD PTR [ebx+28]

; 1028 :       if (line->block != NULL)

	mov	eax, DWORD PTR [ebx+52]
	test	eax, eax
	je	SHORT $LN24@get_line

; 1029 :         line->block->outstanding_consumers--;

	dec	DWORD PTR [eax+28]
$LN24@get_line:
	pop	edi

; 1030 :       return &(line->line);

	mov	eax, ebx
	pop	ebx

; 1185 : }

	mov	esp, ebp
	pop	ebp
	ret	12					; 0000000cH
$LN23@get_line:

; 1031 :     }
; 1032 : 
; 1033 :   // If we get here, we need to generate the requested row
; 1034 :   assert(line->row_idx == (tgt_row_idx-1));
; 1035 :   if (line->outstanding_consumers > 0)

	cmp	DWORD PTR [ebx+28], 0
	jle	SHORT $LN25@get_line

; 1036 :     return NULL; // Have to wait until previous line is completely consumed

	pop	edi
	xor	eax, eax
	pop	ebx

; 1185 : }

	mov	esp, ebp
	pop	ebp
	ret	12					; 0000000cH
$LN25@get_line:
	push	esi

; 1037 : 
; 1038 :   int n;
; 1039 :   kd_multi_block *block = line->block;

	mov	esi, DWORD PTR [ebx+52]

; 1040 :   if ((block != NULL) && block->is_null_transform)

	test	esi, esi
	je	$LN29@get_line
	cmp	BYTE PTR [esi+4], 0
	je	SHORT $LN26@get_line

; 1041 :     {
; 1042 :       n = (int)(line - block->components);
; 1043 :       assert((n >= 0) && (n < block->num_dependencies));
; 1044 :       kd_multi_line *dep = block->dependencies[n];  assert(dep != NULL);
; 1045 :       if (get_line(dep,tgt_row_idx,env) == NULL)

	push	DWORD PTR _env$[ebp]
	mov	ecx, ebx
	mov	eax, -2004318071			; 88888889H
	sub	ecx, DWORD PTR [esi+12]
	imul	ecx
	mov	eax, DWORD PTR [esi+20]
	add	edx, ecx
	sar	edx, 5
	mov	ecx, edx
	shr	ecx, 31					; 0000001fH
	add	ecx, edx
	push	edi
	mov	esi, DWORD PTR [eax+ecx*4]
	mov	ecx, DWORD PTR _this$1$[ebp]
	push	esi
	call	?get_line@kd_multi_synthesis@@AAEPAVkdu_line_buf@@PAUkd_multi_line@@HPAVkdu_thread_env@@@Z ; kd_multi_synthesis::get_line
	test	eax, eax
	je	$LN66@get_line

; 1046 :         return NULL;
; 1047 :       line->row_idx = tgt_row_idx;
; 1048 :       line->outstanding_consumers = line->num_consumers;
; 1049 :       line->copy(dep,line->rev_offset,line->irrev_offset);

	movss	xmm0, DWORD PTR [ebx+44]
	mov	eax, DWORD PTR [ebx+24]
	push	ecx
	movss	DWORD PTR [esp], xmm0
	mov	ecx, ebx
	push	DWORD PTR [ebx+40]
	mov	DWORD PTR [ebx+20], edi
	push	esi
	mov	DWORD PTR [ebx+28], eax
	call	?copy@kd_multi_line@@QAEXPAU1@HM@Z	; kd_multi_line::copy
	jmp	$LN51@get_line
$LN26@get_line:

; 1050 :     }
; 1051 :   else if (block != NULL)
; 1052 :     { // The line is generated by a transform block; see if it is ready to
; 1053 :       // advance.
; 1054 :       if (block->outstanding_consumers > 0)

	cmp	DWORD PTR [esi+28], 0
	jg	$LN66@get_line

; 1055 :         return NULL;
; 1056 :       kd_multi_line *scan;
; 1057 :       while (block->num_available_dependencies < block->num_dependencies)

	mov	eax, DWORD PTR [esi+24]
	cmp	eax, DWORD PTR [esi+16]
	jge	SHORT $LN96@get_line
	npad	7
$LL2@get_line:

; 1058 :         {
; 1059 :           scan = block->dependencies[block->num_available_dependencies];

	mov	ecx, DWORD PTR [esi+24]
	mov	eax, DWORD PTR [esi+20]
	mov	edi, DWORD PTR [eax+ecx*4]

; 1060 :           if ((scan == NULL) || scan->is_constant)

	test	edi, edi
	je	SHORT $LN33@get_line
	cmp	BYTE PTR [edi+35], 0
	jne	SHORT $LN33@get_line

; 1062 :           if (get_line(scan,tgt_row_idx,env) == NULL)

	push	DWORD PTR _env$[ebp]
	mov	ecx, edx
	push	DWORD PTR _tgt_row_idx$[ebp]
	push	edi
	call	?get_line@kd_multi_synthesis@@AAEPAVkdu_line_buf@@PAUkd_multi_line@@HPAVkdu_thread_env@@@Z ; kd_multi_synthesis::get_line
	test	eax, eax
	je	$LN66@get_line

; 1063 :             return NULL;
; 1064 :           scan->outstanding_consumers++; // Don't actually consume the row yet

	inc	DWORD PTR [edi+28]

; 1065 :           if (scan->block != NULL)

	mov	eax, DWORD PTR [edi+52]
	test	eax, eax
	je	SHORT $LN35@get_line

; 1066 :             scan->block->outstanding_consumers++;

	inc	DWORD PTR [eax+28]
$LN35@get_line:

; 1067 :           block->num_available_dependencies++;

	inc	DWORD PTR [esi+24]
	mov	eax, DWORD PTR [esi+24]

; 1068 :         }

	mov	edx, DWORD PTR _this$1$[ebp]
	jmp	SHORT $LN67@get_line
$LN33@get_line:

; 1061 :             { block->num_available_dependencies++; continue; }

	lea	eax, DWORD PTR [ecx+1]
	mov	DWORD PTR [esi+24], eax
$LN67@get_line:

; 1055 :         return NULL;
; 1056 :       kd_multi_line *scan;
; 1057 :       while (block->num_available_dependencies < block->num_dependencies)

	cmp	eax, DWORD PTR [esi+16]
	jl	SHORT $LL2@get_line
$LN96@get_line:

; 1069 : 
; 1070 :       // See if we can write to all the outputs of the transform
; 1071 :       for (n=0; n < block->num_components; n++)

	mov	edx, DWORD PTR [esi+8]
	xor	ecx, ecx
	test	edx, edx
	jle	SHORT $LN5@get_line

; 1072 :         {
; 1073 :           scan = block->components + n;

	mov	eax, DWORD PTR [esi+12]
	add	eax, 28					; 0000001cH
	npad	5
$LL6@get_line:

; 1074 :           if (scan->outstanding_consumers > 0)

	cmp	DWORD PTR [eax], 0
	jg	$LN66@get_line

; 1069 : 
; 1070 :       // See if we can write to all the outputs of the transform
; 1071 :       for (n=0; n < block->num_components; n++)

	inc	ecx
	add	eax, 60					; 0000003cH
	cmp	ecx, edx
	jl	SHORT $LL6@get_line
$LN5@get_line:

; 1075 :             return false;
; 1076 :         }
; 1077 : 
; 1078 :       // If we get here, we can run the transform
; 1079 :       block->perform_transform();

	mov	eax, DWORD PTR [esi]
	mov	ecx, esi
	call	DWORD PTR [eax+16]

; 1080 :       for (n=0; n < block->num_dependencies; n++)

	xor	ecx, ecx
	cmp	DWORD PTR [esi+16], ecx
	jle	SHORT $LN8@get_line
	npad	1
$LL9@get_line:

; 1081 :         if ((scan = block->dependencies[n]) != NULL)

	mov	eax, DWORD PTR [esi+20]
	mov	eax, DWORD PTR [eax+ecx*4]
	test	eax, eax
	je	SHORT $LN7@get_line

; 1082 :           {
; 1083 :             assert(scan->row_idx == tgt_row_idx);
; 1084 :             scan->outstanding_consumers--;

	dec	DWORD PTR [eax+28]

; 1085 :             if (scan->block != NULL)

	mov	eax, DWORD PTR [eax+52]
	test	eax, eax
	je	SHORT $LN7@get_line

; 1086 :               scan->block->outstanding_consumers--;

	dec	DWORD PTR [eax+28]
$LN7@get_line:

; 1080 :       for (n=0; n < block->num_dependencies; n++)

	inc	ecx
	cmp	ecx, DWORD PTR [esi+16]
	jl	SHORT $LL9@get_line
$LN8@get_line:

; 1087 :           }
; 1088 :       for (n=0; n < block->num_components; n++)

	xor	edx, edx
	cmp	DWORD PTR [esi+8], edx
	jle	SHORT $LN11@get_line
	mov	ebx, DWORD PTR _tgt_row_idx$[ebp]
	xor	edi, edi
	npad	7
$LL12@get_line:

; 1089 :         {
; 1090 :           scan = block->components + n;

	mov	ecx, DWORD PTR [esi+12]
	lea	edi, DWORD PTR [edi+60]
	inc	edx

; 1091 :           assert((scan->outstanding_consumers == 0) &&
; 1092 :                  (scan->row_idx == (tgt_row_idx-1)));
; 1093 :           scan->row_idx = tgt_row_idx;
; 1094 :           scan->outstanding_consumers = scan->num_consumers;

	mov	eax, DWORD PTR [ecx+edi-36]
	mov	DWORD PTR [ecx+edi-40], ebx
	mov	DWORD PTR [ecx+edi-32], eax

; 1095 :           block->outstanding_consumers += scan->outstanding_consumers;

	add	DWORD PTR [esi+28], eax
	cmp	edx, DWORD PTR [esi+8]
	jl	SHORT $LL12@get_line
	mov	ebx, DWORD PTR _line$[ebp]
$LN11@get_line:

; 1096 :         }
; 1097 :       block->num_available_dependencies = 0;

	mov	DWORD PTR [esi+24], 0

; 1098 :     }
; 1099 :   else

	jmp	$LN51@get_line
$LN29@get_line:

; 1100 :     {
; 1101 :       n = line->collection_idx;  assert(n >= 0);
; 1102 :       assert(codestream_collection->components[n] == line);
; 1103 :       bool perform_ycc = use_ycc && (n < 3);

	cmp	BYTE PTR [edx+8], 0
	mov	eax, DWORD PTR [ebx+56]
	je	SHORT $LN54@get_line
	cmp	eax, 3
	jge	SHORT $LN54@get_line

; 1104 :       if (perform_ycc)
; 1105 :         { // We will have to process all 3 lines & perform inverse RCT/ICT
; 1106 :           for (n=0; n < 3; n++)

	mov	eax, ecx
	mov	BYTE PTR _perform_ycc$1$[ebp], 1
	xor	edx, edx
	mov	eax, DWORD PTR [eax+24]
	mov	ecx, DWORD PTR [eax+4]
$LL15@get_line:

; 1107 :             {
; 1108 :               kd_multi_line *ycc_line = codestream_collection->components[n];
; 1109 :               assert(ycc_line->row_idx == (tgt_row_idx-1));
; 1110 :               if (ycc_line->outstanding_consumers > 0)

	mov	eax, DWORD PTR [ecx]
	cmp	DWORD PTR [eax+28], 0
	jg	SHORT $LN66@get_line

; 1104 :       if (perform_ycc)
; 1105 :         { // We will have to process all 3 lines & perform inverse RCT/ICT
; 1106 :           for (n=0; n < 3; n++)

	inc	edx
	add	ecx, 4
	cmp	edx, 3
	jl	SHORT $LL15@get_line

; 1112 :             }
; 1113 :           n = 0; // Start from first one

	mov	edx, DWORD PTR _this$1$[ebp]
	xor	eax, eax
	jmp	SHORT $LN94@get_line
$LN66@get_line:
	pop	esi
	pop	edi

; 1111 :                 return NULL; // Cannot run inverse RCT/ICT yet

	xor	eax, eax
	pop	ebx

; 1185 : }

	mov	esp, ebp
	pop	ebp
	ret	12					; 0000000cH
$LN54@get_line:

; 1100 :     {
; 1101 :       n = line->collection_idx;  assert(n >= 0);
; 1102 :       assert(codestream_collection->components[n] == line);
; 1103 :       bool perform_ycc = use_ycc && (n < 3);

	mov	BYTE PTR _perform_ycc$1$[ebp], 0
$LN94@get_line:
	imul	edi, eax, 112
$LL18@get_line:

; 1114 :         }
; 1115 :       do {
; 1116 :           kd_multi_component *comp = codestream_components+n;

	mov	esi, DWORD PTR [edx+20]
	add	esi, edi

; 1117 :           if (comp->num_available_rows == 0)

	cmp	DWORD PTR [esi+80], 0
	jne	$LN43@get_line

; 1118 :             {
; 1119 :               if (comp->double_buffering)

	cmp	BYTE PTR [esi+72], 0
	je	SHORT $LN42@get_line

; 1120 :                 { // Need to wait for stripe rows in progress
; 1121 :                   assert((env != NULL) &&
; 1122 :                          (comp->num_rows_in_progress > 0));
; 1123 :                   env->process_jobs(comp->env_queue);

	mov	ecx, DWORD PTR _env$[ebp]
	push	1
	push	0
	push	DWORD PTR [esi+8]
	call	?process_jobs@kdu_thread_entity@@QAE_NPAUkdu_thread_queue@@_N1@Z ; kdu_thread_entity::process_jobs

; 1124 :                   comp->next_available_row = comp->first_row_in_progress;

	mov	ecx, DWORD PTR [esi+84]

; 1125 :                   comp->num_available_rows = comp->num_rows_in_progress;
; 1126 :                   if (comp->next_available_row > 0)

	test	ecx, ecx
	mov	edx, DWORD PTR [esi+88]
	mov	eax, edx
	mov	DWORD PTR tv859[ebp], 0
	cmovg	eax, DWORD PTR tv859[ebp]
	mov	DWORD PTR [esi+84], eax

; 1127 :                     comp->first_row_in_progress = 0;
; 1128 :                   else
; 1129 :                     comp->first_row_in_progress = comp->num_available_rows;
; 1130 :                   comp->num_rows_in_progress =

	mov	eax, DWORD PTR [esi+24]
	sub	eax, edx
	mov	DWORD PTR [esi+76], ecx
	sub	eax, DWORD PTR _tgt_row_idx$[ebp]

; 1131 :                     comp->line.size.y - tgt_row_idx - comp->num_available_rows;
; 1132 :                   bool final_stripe = true;
; 1133 :                   if (comp->num_rows_in_progress > comp->max_available_rows)

	mov	ecx, DWORD PTR [esi+92]
	mov	DWORD PTR [esi+80], edx
	mov	DWORD PTR [esi+88], eax
	mov	BYTE PTR _final_stripe$1[ebp], 1
	cmp	eax, ecx
	jle	SHORT $LN46@get_line

; 1134 :                     {
; 1135 :                       comp->num_rows_in_progress = comp->max_available_rows;

	mov	DWORD PTR [esi+88], ecx

; 1136 :                       final_stripe = false;

	mov	BYTE PTR _final_stripe$1[ebp], 0
$LN46@get_line:

; 1137 :                     }
; 1138 :                   if (comp->num_rows_in_progress > 0)

	cmp	DWORD PTR [esi+88], 0
	jle	SHORT $LN43@get_line

; 1139 :                     env->add_jobs(comp->env_queue,1,final_stripe);

	mov	ecx, DWORD PTR _env$[ebp]
	push	0
	push	DWORD PTR _final_stripe$1[ebp]
	push	1
	push	DWORD PTR [esi+8]
	call	?add_jobs@kdu_thread_entity@@QAEXPAUkdu_thread_queue@@H_NI@Z ; kdu_thread_entity::add_jobs

; 1140 :                 }
; 1141 :               else

	jmp	SHORT $LN43@get_line
$LN42@get_line:

; 1142 :                 { // Need to generate more available stripe rows
; 1143 :                   assert(((comp->env_queue == NULL) && (env == NULL)) ||
; 1144 :                          ((comp->env_queue != NULL) && (env != NULL)));
; 1145 :                   comp->next_available_row = comp->first_row_in_progress = 0;
; 1146 :                   comp->num_rows_in_progress = comp->line.size.y - tgt_row_idx;

	mov	ecx, DWORD PTR [esi+24]
	sub	ecx, DWORD PTR _tgt_row_idx$[ebp]

; 1147 :                   if (comp->num_rows_in_progress > comp->max_available_rows)

	cmp	ecx, DWORD PTR [esi+92]

; 1148 :                     comp->num_rows_in_progress = comp->max_available_rows;
; 1149 :                   comp->do_job(env,0);

	mov	eax, DWORD PTR [esi]
	cmovg	ecx, DWORD PTR [esi+92]
	mov	DWORD PTR [esi+88], ecx
	mov	ecx, DWORD PTR _env$[ebp]
	push	0
	push	ecx
	mov	ecx, esi
	mov	DWORD PTR [esi+84], 0
	mov	DWORD PTR [esi+76], 0
	call	DWORD PTR [eax+4]

; 1150 :                   comp->num_available_rows = comp->num_rows_in_progress;

	mov	eax, DWORD PTR [esi+88]
	mov	DWORD PTR [esi+80], eax

; 1151 :                   comp->num_rows_in_progress = 0;

	mov	DWORD PTR [esi+88], 0
$LN43@get_line:

; 1152 :                 }
; 1153 :             }
; 1154 :           comp->line.line = comp->buffer[comp->next_available_row++];

	mov	edx, DWORD PTR [esi+76]
	mov	eax, DWORD PTR [esi+100]
	lea	ecx, DWORD PTR [edx+edx*2]
	movq	xmm0, QWORD PTR [eax+ecx*4]
	movq	QWORD PTR [esi+12], xmm0
	mov	eax, DWORD PTR [eax+ecx*4+8]

; 1155 :           comp->num_available_rows--;

	dec	DWORD PTR [esi+80]

; 1156 :         } while (perform_ycc && ((++n) < 3));

	cmp	BYTE PTR _perform_ycc$1$[ebp], 0
	mov	DWORD PTR [esi+20], eax
	lea	eax, DWORD PTR [edx+1]
	mov	DWORD PTR [esi+76], eax
	je	SHORT $LN50@get_line
	mov	edx, DWORD PTR _this$1$[ebp]
	add	edi, 112				; 00000070H
	cmp	edi, 336				; 00000150H
	jl	$LL18@get_line

; 1157 :       if (perform_ycc)
; 1158 :         {
; 1159 :           kd_multi_line **ycc_lines = codestream_collection->components;

	mov	eax, edx

; 1160 :           kdu_convert_ycc_to_rgb(ycc_lines[0]->line,

	push	-1
	mov	eax, DWORD PTR [eax+24]
	mov	ebx, DWORD PTR [eax+4]
	push	DWORD PTR [ebx+8]
	push	DWORD PTR [ebx+4]
	push	DWORD PTR [ebx]
	call	?kdu_convert_ycc_to_rgb@@YAXAAVkdu_line_buf@@00H@Z ; kdu_convert_ycc_to_rgb
	add	esp, 16					; 00000010H

; 1161 :                                  ycc_lines[1]->line,
; 1162 :                                  ycc_lines[2]->line);
; 1163 :           for (n=0; n < 3; n++)

	xor	edi, edi
$LL21@get_line:

; 1164 :             {
; 1165 :               kd_multi_line *scan = ycc_lines[n];

	mov	esi, DWORD PTR [ebx+edi*4]

; 1166 :               scan->apply_offset(scan->rev_offset,scan->irrev_offset);

	push	ecx
	mov	ecx, esi
	movss	xmm0, DWORD PTR [esi+44]
	movss	DWORD PTR [esp], xmm0
	push	DWORD PTR [esi+40]
	call	?apply_offset@kd_multi_line@@QAEXHM@Z	; kd_multi_line::apply_offset

; 1167 :               scan->row_idx++;

	inc	DWORD PTR [esi+20]
	inc	edi

; 1168 :               scan->outstanding_consumers = scan->num_consumers;

	mov	eax, DWORD PTR [esi+24]
	mov	DWORD PTR [esi+28], eax
	cmp	edi, 3
	jl	SHORT $LL21@get_line

; 1169 :             }
; 1170 :         }
; 1171 :       else

	mov	ebx, DWORD PTR _line$[ebp]
	jmp	SHORT $LN51@get_line
$LN50@get_line:

; 1172 :         {
; 1173 :           line->apply_offset(line->rev_offset,line->irrev_offset);

	movss	xmm0, DWORD PTR [ebx+44]
	push	ecx
	movss	DWORD PTR [esp], xmm0
	mov	ecx, ebx
	push	DWORD PTR [ebx+40]
	call	?apply_offset@kd_multi_line@@QAEXHM@Z	; kd_multi_line::apply_offset

; 1174 :           line->row_idx++;
; 1175 :           line->outstanding_consumers = line->num_consumers;

	mov	eax, DWORD PTR [ebx+24]
	inc	DWORD PTR [ebx+20]
	mov	DWORD PTR [ebx+28], eax
$LN51@get_line:

; 1176 :         }
; 1177 :     }
; 1178 : 
; 1179 :   // If we get here, we should have been successful
; 1180 :   assert((line->row_idx == tgt_row_idx) && (line->outstanding_consumers > 0));
; 1181 :   line->outstanding_consumers--;

	dec	DWORD PTR [ebx+28]

; 1182 :   if (line->block != NULL)

	mov	eax, DWORD PTR [ebx+52]
	test	eax, eax
	je	SHORT $LN52@get_line

; 1183 :     line->block->outstanding_consumers--;

	dec	DWORD PTR [eax+28]
$LN52@get_line:
	pop	esi
	pop	edi

; 1184 :   return &(line->line);

	mov	eax, ebx
	pop	ebx

; 1185 : }

	mov	esp, ebp
	pop	ebp
	ret	12					; 0000000cH
?get_line@kd_multi_synthesis@@AAEPAVkdu_line_buf@@PAUkd_multi_line@@HPAVkdu_thread_env@@@Z ENDP ; kd_multi_synthesis::get_line
_TEXT	ENDS
; Function compile flags: /Ogtp
; File e:\study\jpeg2000\visually_lossless_jpeg2000\modifiedkakadu\coresys\transform\multi_transform.cpp
;	COMDAT ?is_line_absolute@kd_multi_synthesis@@UAE_NH@Z
_TEXT	SEGMENT
_comp_idx$ = 8						; size = 4
?is_line_absolute@kd_multi_synthesis@@UAE_NH@Z PROC	; kd_multi_synthesis::is_line_absolute, COMDAT
; _this$ = ecx

; 1207 : {

	push	ebp
	mov	ebp, esp

; 1208 :   if ((output_collection == NULL) ||
; 1209 :       (comp_idx < 0) || (comp_idx >= output_collection->num_components))

	mov	eax, DWORD PTR [ecx+28]
	test	eax, eax
	je	SHORT $LN3@is_line_ab
	mov	ecx, DWORD PTR _comp_idx$[ebp]
	test	ecx, ecx
	js	SHORT $LN3@is_line_ab
	cmp	ecx, DWORD PTR [eax]
	jge	SHORT $LN3@is_line_ab

; 1211 :   kd_multi_line *line = output_collection->components[comp_idx];
; 1212 :   return line->reversible;

	mov	eax, DWORD PTR [eax+4]
	mov	eax, DWORD PTR [eax+ecx*4]
	mov	al, BYTE PTR [eax+32]

; 1213 : }

	pop	ebp
	ret	4
$LN3@is_line_ab:

; 1210 :     return false;

	xor	al, al

; 1213 : }

	pop	ebp
	ret	4
?is_line_absolute@kd_multi_synthesis@@UAE_NH@Z ENDP	; kd_multi_synthesis::is_line_absolute
_TEXT	ENDS
; Function compile flags: /Ogtp
; File e:\study\jpeg2000\visually_lossless_jpeg2000\modifiedkakadu\coresys\transform\multi_transform.cpp
;	COMDAT ?is_line_precise@kd_multi_synthesis@@UAE_NH@Z
_TEXT	SEGMENT
_comp_idx$ = 8						; size = 4
?is_line_precise@kd_multi_synthesis@@UAE_NH@Z PROC	; kd_multi_synthesis::is_line_precise, COMDAT
; _this$ = ecx

; 1193 : {

	push	ebp
	mov	ebp, esp

; 1194 :   if ((output_collection == NULL) ||
; 1195 :       (comp_idx < 0) || (comp_idx >= output_collection->num_components))

	mov	eax, DWORD PTR [ecx+28]
	test	eax, eax
	je	SHORT $LN3@is_line_pr
	mov	ecx, DWORD PTR _comp_idx$[ebp]
	test	ecx, ecx
	js	SHORT $LN3@is_line_pr
	cmp	ecx, DWORD PTR [eax]
	jge	SHORT $LN3@is_line_pr

; 1197 :   kd_multi_line *line = output_collection->components[comp_idx];
; 1198 :   return line->need_precise;

	mov	eax, DWORD PTR [eax+4]
	mov	eax, DWORD PTR [eax+ecx*4]
	mov	al, BYTE PTR [eax+34]

; 1199 : }

	pop	ebp
	ret	4
$LN3@is_line_pr:

; 1196 :     return false;

	xor	al, al

; 1199 : }

	pop	ebp
	ret	4
?is_line_precise@kd_multi_synthesis@@UAE_NH@Z ENDP	; kd_multi_synthesis::is_line_precise
_TEXT	ENDS
; Function compile flags: /Ogtp
; File e:\study\jpeg2000\visually_lossless_jpeg2000\modifiedkakadu\coresys\transform\multi_transform.cpp
;	COMDAT ?get_line@kd_multi_synthesis@@UAEPAVkdu_line_buf@@HPAVkdu_thread_env@@@Z
_TEXT	SEGMENT
_comp_idx$ = 8						; size = 4
_env$ = 12						; size = 4
?get_line@kd_multi_synthesis@@UAEPAVkdu_line_buf@@HPAVkdu_thread_env@@@Z PROC ; kd_multi_synthesis::get_line, COMDAT
; _this$ = ecx

; 1001 : {

	push	ebp
	mov	ebp, esp

; 1002 :   assert((comp_idx >= 0) && (comp_idx < output_collection->num_components));
; 1003 :   kd_multi_line *line =
; 1004 :     output_collection->components[comp_idx];

	mov	eax, DWORD PTR _comp_idx$[ebp]
	push	esi
	mov	esi, ecx
	push	edi

; 1005 :   kdu_line_buf *result =
; 1006 :     get_line(line,output_row_counters[comp_idx],env);

	push	DWORD PTR _env$[ebp]
	lea	edi, DWORD PTR [eax*4]
	mov	eax, DWORD PTR [esi+28]
	mov	eax, DWORD PTR [eax+4]
	mov	edx, DWORD PTR [edi+eax]
	mov	eax, DWORD PTR [esi+80]
	push	DWORD PTR [eax+edi]
	push	edx
	call	?get_line@kd_multi_synthesis@@AAEPAVkdu_line_buf@@PAUkd_multi_line@@HPAVkdu_thread_env@@@Z ; kd_multi_synthesis::get_line

; 1007 :   if (result != NULL)

	test	eax, eax
	je	SHORT $LN2@get_line

; 1008 :     output_row_counters[comp_idx]++;

	mov	ecx, DWORD PTR [esi+80]
	inc	DWORD PTR [ecx+edi]
$LN2@get_line:
	pop	edi
	pop	esi

; 1009 : 
; 1010 :   return result;
; 1011 : }

	pop	ebp
	ret	8
?get_line@kd_multi_synthesis@@UAEPAVkdu_line_buf@@HPAVkdu_thread_env@@@Z ENDP ; kd_multi_synthesis::get_line
_TEXT	ENDS
; Function compile flags: /Ogtp
; File e:\study\jpeg2000\visually_lossless_jpeg2000\modifiedkakadu\coresys\transform\multi_transform.cpp
;	COMDAT ?get_size@kd_multi_synthesis@@UAE?AUkdu_coords@@H@Z
_TEXT	SEGMENT
___$ReturnUdt$ = 8					; size = 4
_comp_idx$ = 12						; size = 4
?get_size@kd_multi_synthesis@@UAE?AUkdu_coords@@H@Z PROC ; kd_multi_synthesis::get_size, COMDAT
; _this$ = ecx

; 990  : {

	push	ebp
	mov	ebp, esp

; 991  :   assert((comp_idx >= 0) && (comp_idx < output_collection->num_components));
; 992  :   return output_collection->components[comp_idx]->size;

	mov	eax, DWORD PTR [ecx+28]
	mov	ecx, DWORD PTR [eax+4]
	mov	eax, DWORD PTR _comp_idx$[ebp]
	mov	edx, DWORD PTR [ecx+eax*4]
	mov	eax, DWORD PTR ___$ReturnUdt$[ebp]
	mov	ecx, DWORD PTR [edx+12]
	mov	DWORD PTR [eax], ecx
	mov	ecx, DWORD PTR [edx+16]
	mov	DWORD PTR [eax+4], ecx

; 993  : }

	pop	ebp
	ret	8
?get_size@kd_multi_synthesis@@UAE?AUkdu_coords@@H@Z ENDP ; kd_multi_synthesis::get_size
_TEXT	ENDS
; Function compile flags: /Ogtp
; File e:\study\jpeg2000\visually_lossless_jpeg2000\modifiedkakadu\coresys\transform\multi_transform.cpp
; File e:\study\jpeg2000\visually_lossless_jpeg2000\modifiedkakadu\coresys\common\kdu_sample_processing.h
; File e:\study\jpeg2000\visually_lossless_jpeg2000\modifiedkakadu\coresys\transform\multi_transform.cpp
; File e:\study\jpeg2000\visually_lossless_jpeg2000\modifiedkakadu\coresys\common\kdu_sample_processing.h
; File e:\study\jpeg2000\visually_lossless_jpeg2000\modifiedkakadu\coresys\transform\multi_transform.cpp
; File e:\study\jpeg2000\visually_lossless_jpeg2000\modifiedkakadu\coresys\common\kdu_sample_processing.h
; File e:\study\jpeg2000\visually_lossless_jpeg2000\modifiedkakadu\coresys\transform\multi_transform.cpp
; File e:\study\jpeg2000\visually_lossless_jpeg2000\modifiedkakadu\coresys\common\kdu_sample_processing.h
; File e:\study\jpeg2000\visually_lossless_jpeg2000\modifiedkakadu\coresys\transform\multi_transform.cpp
; File e:\study\jpeg2000\visually_lossless_jpeg2000\modifiedkakadu\coresys\common\kdu_sample_processing.h
; File e:\study\jpeg2000\visually_lossless_jpeg2000\modifiedkakadu\coresys\transform\multi_transform.cpp
;	COMDAT ?create@kd_multi_synthesis@@QAE_JVkdu_codestream@@Vkdu_tile@@_N22HPAVkdu_thread_env@@PAUkdu_thread_queue@@2@Z
_TEXT	SEGMENT
$T1 = -8						; size = 4
$T2 = -4						; size = 4
_codestream$ = 8					; size = 4
_tile$ = 12						; size = 4
_force_precise$ = 16					; size = 1
$T3 = 16						; size = 4
_skip_ycc$ = 20						; size = 1
_tc$4 = 20						; size = 4
tv405 = 24						; size = 4
_want_fastest$ = 24					; size = 1
_result$2$ = 28						; size = 4
_n$1$ = 28						; size = 4
_processing_stripe_height$ = 28				; size = 4
_env$ = 32						; size = 4
_result$1$ = 36						; size = 4
_res$5 = 36						; size = 4
_env_queue$ = 36					; size = 4
_queue$1$ = 40						; size = 4
_double_buffering$ = 40					; size = 1
tv404 = 40						; size = 4
?create@kd_multi_synthesis@@QAE_JVkdu_codestream@@Vkdu_tile@@_N22HPAVkdu_thread_env@@PAUkdu_thread_queue@@2@Z PROC ; kd_multi_synthesis::create, COMDAT
; _this$ = ecx

; 937  : {

	push	ebp
	mov	ebp, esp
	sub	esp, 8
	push	ebx

; 938  :   construct(codestream,tile,force_precise,skip_ycc,want_fastest,

	mov	ebx, DWORD PTR _env$[ebp]
	push	esi
	push	edi
	push	DWORD PTR _double_buffering$[ebp]
	mov	edi, ecx
	push	DWORD PTR _env_queue$[ebp]
	push	ebx
	push	DWORD PTR _processing_stripe_height$[ebp]
	lea	ecx, DWORD PTR [edi+4]
	push	DWORD PTR _want_fastest$[ebp]
	push	DWORD PTR _skip_ycc$[ebp]
	push	DWORD PTR _force_precise$[ebp]
	push	DWORD PTR _tile$[ebp]
	push	DWORD PTR _codestream$[ebp]
	call	?construct@kd_multi_transform@@IAEXVkdu_codestream@@Vkdu_tile@@_N22HPAVkdu_thread_env@@PAUkdu_thread_queue@@2@Z ; kd_multi_transform::construct

; 943  :   for (n=0; n < codestream_collection->num_components; n++)

	mov	eax, DWORD PTR [edi+24]
	mov	DWORD PTR _n$1$[ebp], 0
	cmp	DWORD PTR [eax], 0
	jle	$LN3@create

; 938  :   construct(codestream,tile,force_precise,skip_ycc,want_fastest,

	xor	ecx, ecx
	mov	DWORD PTR tv405[ebp], ecx
$LL4@create:

; 944  :     {
; 945  :       kd_multi_component *comp = codestream_components + n;

	mov	esi, DWORD PTR [edi+20]
	add	esi, ecx

; 946  :       kdu_thread_queue *queue = (env==NULL)?NULL:comp->env_queue;

	test	ebx, ebx
	jne	SHORT $LN16@create
	mov	DWORD PTR _queue$1$[ebp], ebx
	jmp	SHORT $LN17@create
$LN16@create:
	mov	eax, DWORD PTR [esi+8]
	mov	DWORD PTR _queue$1$[ebp], eax
$LN17@create:

; 947  :       kdu_tile_comp tc = tile.access_component(comp->comp_idx);

	push	DWORD PTR [esi+4]
	lea	eax, DWORD PTR _tc$4[ebp]
	push	eax
	lea	ecx, DWORD PTR _tile$[ebp]
	call	?access_component@kdu_tile@@QAE?AVkdu_tile_comp@@H@Z ; kdu_tile::access_component

; 948  :       kdu_resolution res = tc.access_resolution();

	lea	eax, DWORD PTR _res$5[ebp]
	push	eax
	lea	ecx, DWORD PTR _tc$4[ebp]
	call	?access_resolution@kdu_tile_comp@@QAE?AVkdu_resolution@@XZ ; kdu_tile_comp::access_resolution

; 949  :       if (res.which() == 0)

	lea	ecx, DWORD PTR _res$5[ebp]
	call	?which@kdu_resolution@@QAEHXZ		; kdu_resolution::which
	test	eax, eax
	jne	SHORT $LN11@create

; 950  :         comp->pull_ifc = kdu_decoder(res.access_subband(LL_BAND),&allocator,

	push	eax
	lea	eax, DWORD PTR $T3[ebp]
	push	eax
	lea	ecx, DWORD PTR _res$5[ebp]
	call	?access_subband@kdu_resolution@@QAE?AVkdu_subband@@H@Z ; kdu_resolution::access_subband
	push	DWORD PTR _queue$1$[ebp]
	cmp	BYTE PTR [esi+46], 0
	push	ebx
	push	0
	push	ecx
	sete	cl
	mov	DWORD PTR [esp], 1065353216		; 3f800000H
	movzx	ecx, cl
	push	ecx
	lea	ecx, DWORD PTR [edi+36]
	push	ecx
	push	DWORD PTR [eax]
	lea	ecx, DWORD PTR $T2[ebp]
	call	??0kdu_decoder@@QAE@Vkdu_subband@@PAVkdu_sample_allocator@@_NMHPAVkdu_thread_env@@PAUkdu_thread_queue@@@Z ; kdu_decoder::kdu_decoder

; 951  :                                      !(comp->line.need_precise),1.0F,
; 952  :                                      0,env,queue);
; 953  :       else

	jmp	SHORT $LN39@create
$LN11@create:

; 954  :         comp->pull_ifc = kdu_synthesis(res,&allocator,

	push	DWORD PTR _queue$1$[ebp]
	cmp	BYTE PTR [esi+46], 0
	push	ebx
	push	ecx
	sete	al
	mov	DWORD PTR [esp], 1065353216		; 3f800000H
	movzx	eax, al
	lea	ecx, DWORD PTR $T1[ebp]
	push	eax
	lea	eax, DWORD PTR [edi+36]
	push	eax
	push	DWORD PTR _res$5[ebp]
	call	??0kdu_synthesis@@QAE@Vkdu_resolution@@PAVkdu_sample_allocator@@_NMPAVkdu_thread_env@@PAUkdu_thread_queue@@@Z ; kdu_synthesis::kdu_synthesis
$LN39@create:
; File e:\study\jpeg2000\visually_lossless_jpeg2000\modifiedkakadu\coresys\common\kdu_sample_processing.h

; 2053 :   { state = rhs.state; return *this; }

	mov	eax, DWORD PTR [eax]
; File e:\study\jpeg2000\visually_lossless_jpeg2000\modifiedkakadu\coresys\transform\multi_transform.cpp

; 943  :   for (n=0; n < codestream_collection->num_components; n++)

	mov	edx, DWORD PTR _n$1$[ebp]
	mov	ecx, DWORD PTR tv405[ebp]
	inc	edx
; File e:\study\jpeg2000\visually_lossless_jpeg2000\modifiedkakadu\coresys\common\kdu_sample_processing.h

; 2053 :   { state = rhs.state; return *this; }

	mov	DWORD PTR [esi+104], eax
; File e:\study\jpeg2000\visually_lossless_jpeg2000\modifiedkakadu\coresys\transform\multi_transform.cpp

; 943  :   for (n=0; n < codestream_collection->num_components; n++)

	add	ecx, 112				; 00000070H
	mov	eax, DWORD PTR [edi+24]
	mov	DWORD PTR _n$1$[ebp], edx
	mov	DWORD PTR tv405[ebp], ecx
	cmp	edx, DWORD PTR [eax]
	jl	$LL4@create
$LN3@create:

; 955  :                                        !(comp->line.need_precise),1.0F,
; 956  :                                        env,queue);
; 957  :     }
; 958  : 
; 959  :   create_resources();

	lea	ecx, DWORD PTR [edi+4]
	call	?create_resources@kd_multi_transform@@IAEXXZ ; kd_multi_transform::create_resources

; 960  : 
; 961  :   output_row_counters = new int[output_collection->num_components];

	mov	eax, DWORD PTR [edi+28]
	xor	ecx, ecx
	mov	edx, 4
	mov	eax, DWORD PTR [eax]
	mul	edx
	seto	cl
	neg	ecx
	or	ecx, eax
	push	ecx
	call	??_U@YAPAXI@Z				; operator new[]
	mov	DWORD PTR [edi+80], eax

; 962  :   for (n=0; n < output_collection->num_components; n++)

	xor	ecx, ecx
	mov	eax, DWORD PTR [edi+28]
	add	esp, 4
	cmp	DWORD PTR [eax], ecx
	jle	SHORT $LN6@create
$LL7@create:

; 963  :     output_row_counters[n] = 0;

	mov	eax, DWORD PTR [edi+80]
	mov	DWORD PTR [eax+ecx*4], 0
	inc	ecx
	mov	eax, DWORD PTR [edi+28]
	cmp	ecx, DWORD PTR [eax]
	jl	SHORT $LL7@create
$LN6@create:

; 964  : 
; 965  :   kdu_long result = allocator.get_size();
; 966  :   for (n=0; n < codestream_collection->num_components; n++)

	mov	ecx, DWORD PTR [edi+24]
	xor	ebx, ebx
	mov	eax, DWORD PTR [edi+48]
	cdq
	mov	DWORD PTR _result$1$[ebp], eax
	mov	DWORD PTR _result$2$[ebp], edx
	cmp	DWORD PTR [ecx], ebx
	jle	SHORT $LN9@create
; File e:\study\jpeg2000\visually_lossless_jpeg2000\modifiedkakadu\coresys\common\kdu_sample_processing.h

; 248  :         return buffer_size;

	xor	ecx, ecx
	mov	DWORD PTR tv404[ebp], ecx
	npad	6
$LL10@create:
; File e:\study\jpeg2000\visually_lossless_jpeg2000\modifiedkakadu\coresys\transform\multi_transform.cpp

; 969  :       kd_multi_component *comp = codestream_components + n;

	mov	esi, DWORD PTR [edi+20]
; File e:\study\jpeg2000\visually_lossless_jpeg2000\modifiedkakadu\coresys\common\kdu_sample_processing.h

; 739  :         state->start(env);

	push	DWORD PTR _env$[ebp]
; File e:\study\jpeg2000\visually_lossless_jpeg2000\modifiedkakadu\coresys\transform\multi_transform.cpp

; 969  :       kd_multi_component *comp = codestream_components + n;

	add	esi, ecx
; File e:\study\jpeg2000\visually_lossless_jpeg2000\modifiedkakadu\coresys\common\kdu_sample_processing.h

; 739  :         state->start(env);

	mov	ecx, DWORD PTR [esi+104]
	mov	eax, DWORD PTR [ecx]
	call	DWORD PTR [eax+4]
; File e:\study\jpeg2000\visually_lossless_jpeg2000\modifiedkakadu\coresys\transform\multi_transform.cpp

; 971  :       if (comp->double_buffering)

	cmp	BYTE PTR [esi+72], 0
	je	SHORT $LN8@create

; 972  :         {
; 973  :           comp->first_row_in_progress = 0;
; 974  :           comp->num_rows_in_progress = comp->max_available_rows;

	mov	ecx, DWORD PTR [esi+92]
	mov	DWORD PTR [esi+84], 0
	mov	DWORD PTR [esi+88], ecx

; 976  :           assert(remaining_lines >= 0);
; 977  :           if (comp->num_rows_in_progress > 0)

	test	ecx, ecx
	jle	SHORT $LN8@create

; 975  :           int remaining_lines = comp->line.size.y - comp->num_rows_in_progress;

	mov	eax, DWORD PTR [esi+24]
	sub	eax, ecx

; 978  :             env->add_jobs(comp->env_queue,1,(remaining_lines==0));

	mov	ecx, DWORD PTR _env$[ebp]
	push	0
	sete	al
	movzx	eax, al
	push	eax
	push	1
	push	DWORD PTR [esi+8]
	call	?add_jobs@kdu_thread_entity@@QAEXPAUkdu_thread_queue@@H_NI@Z ; kdu_thread_entity::add_jobs
$LN8@create:

; 964  : 
; 965  :   kdu_long result = allocator.get_size();
; 966  :   for (n=0; n < codestream_collection->num_components; n++)

	mov	eax, DWORD PTR [edi+24]
	inc	ebx
	mov	ecx, DWORD PTR tv404[ebp]
	add	ecx, 112				; 00000070H
	mov	DWORD PTR tv404[ebp], ecx
	cmp	ebx, DWORD PTR [eax]
	jl	SHORT $LL10@create

; 979  :         }
; 980  :     }
; 981  :   return result;

	mov	eax, DWORD PTR _result$1$[ebp]
	mov	edx, DWORD PTR _result$2$[ebp]
$LN9@create:
	pop	edi
	pop	esi
	pop	ebx

; 982  : }

	mov	esp, ebp
	pop	ebp
	ret	36					; 00000024H
?create@kd_multi_synthesis@@QAE_JVkdu_codestream@@Vkdu_tile@@_N22HPAVkdu_thread_env@@PAUkdu_thread_queue@@2@Z ENDP ; kd_multi_synthesis::create
_TEXT	ENDS
; Function compile flags: /Ogtp
; File e:\study\jpeg2000\visually_lossless_jpeg2000\modifiedkakadu\coresys\transform\multi_transform.cpp
;	COMDAT ?terminate_queues@kd_multi_synthesis@@UAEXPAVkdu_thread_env@@@Z
_TEXT	SEGMENT
_env$ = 8						; size = 4
?terminate_queues@kd_multi_synthesis@@UAEXPAVkdu_thread_env@@@Z PROC ; kd_multi_synthesis::terminate_queues, COMDAT
; _this$ = ecx

; 919  : {

	push	ebp
	mov	ebp, esp
	mov	eax, ecx

; 920  :   if (env != NULL)

	mov	ecx, DWORD PTR _env$[ebp]
	test	ecx, ecx
	je	SHORT $LN2@terminate_

; 921  :     {
; 922  :       assert((env_queue != NULL) &&
; 923  :              (codestream_components[0].env_queue != NULL));
; 924  :       env->terminate(env_queue,true);

	push	0
	push	1
	push	DWORD PTR [eax+60]
	call	?terminate@kdu_thread_entity@@QAE_NPAUkdu_thread_queue@@_NPAH@Z ; kdu_thread_entity::terminate
$LN2@terminate_:

; 925  :     }
; 926  : }

	pop	ebp
	ret	4
?terminate_queues@kd_multi_synthesis@@UAEXPAVkdu_thread_env@@@Z ENDP ; kd_multi_synthesis::terminate_queues
_TEXT	ENDS
; Function compile flags: /Ogtp
; File e:\study\jpeg2000\visually_lossless_jpeg2000\modifiedkakadu\coresys\transform\multi_transform.cpp
; File e:\study\jpeg2000\visually_lossless_jpeg2000\modifiedkakadu\coresys\common\kdu_sample_processing.h
; File e:\study\jpeg2000\visually_lossless_jpeg2000\modifiedkakadu\coresys\transform\multi_transform.cpp
;	COMDAT ??1kd_multi_synthesis@@UAE@XZ
_TEXT	SEGMENT
??1kd_multi_synthesis@@UAE@XZ PROC			; kd_multi_synthesis::~kd_multi_synthesis, COMDAT
; _this$ = ecx

; 908  : {

	push	esi
	mov	esi, ecx
	push	edi

; 909  :   if (output_row_counters != NULL)

	mov	eax, DWORD PTR [esi+80]
	mov	DWORD PTR [esi], OFFSET ??_7kd_multi_synthesis@@6Bkd_multi_synthesis_base@@@
	mov	DWORD PTR [esi+4], OFFSET ??_7kd_multi_synthesis@@6Bkd_multi_transform@@@
	test	eax, eax
	je	SHORT $LN2@kd_multi_s

; 910  :     delete[] output_row_counters;

	push	eax
	call	??_V@YAXPAX@Z				; operator delete[]
	add	esp, 4
$LN2@kd_multi_s:

; 911  : }

	lea	ecx, DWORD PTR [esi+4]
	call	??1kd_multi_transform@@UAE@XZ		; kd_multi_transform::~kd_multi_transform
	pop	edi
; File e:\study\jpeg2000\visually_lossless_jpeg2000\modifiedkakadu\coresys\common\kdu_sample_processing.h

; 1659 :     virtual ~kd_multi_synthesis_base() { return; }

	mov	DWORD PTR [esi], OFFSET ??_7kd_multi_synthesis_base@@6B@
	pop	esi
; File e:\study\jpeg2000\visually_lossless_jpeg2000\modifiedkakadu\coresys\transform\multi_transform.cpp

; 911  : }

	ret	0
??1kd_multi_synthesis@@UAE@XZ ENDP			; kd_multi_synthesis::~kd_multi_synthesis
_TEXT	ENDS
; Function compile flags: /Ogtp
; File e:\study\jpeg2000\visually_lossless_jpeg2000\modifiedkakadu\coresys\transform\multi_transform_local.h
; File e:\study\jpeg2000\visually_lossless_jpeg2000\modifiedkakadu\coresys\common\kdu_sample_processing.h
; File e:\study\jpeg2000\visually_lossless_jpeg2000\modifiedkakadu\coresys\transform\multi_transform_local.h
;	COMDAT ??0kd_multi_synthesis@@QAE@XZ
_TEXT	SEGMENT
_this$ = -4						; size = 4
??0kd_multi_synthesis@@QAE@XZ PROC			; kd_multi_synthesis::kd_multi_synthesis, COMDAT
; _this$ = ecx

; 801  :     kd_multi_synthesis() { output_row_counters=NULL; }

	push	ebp
	mov	ebp, esp
	push	ecx

; 737  :       {

	mov	DWORD PTR [ecx+4], OFFSET ??_7kd_multi_transform@@6B@

; 801  :     kd_multi_synthesis() { output_row_counters=NULL; }

	mov	eax, ecx
; File e:\study\jpeg2000\visually_lossless_jpeg2000\modifiedkakadu\coresys\common\kdu_sample_processing.h

; 150  :       { bytes_reserved = bytes_used = buffer_size = 0;

	mov	DWORD PTR [ecx+48], 0
	mov	DWORD PTR [ecx+44], 0
	mov	DWORD PTR [ecx+40], 0

; 151  :         pre_creation_phase=true; buffer = buf_handle = NULL; }

	mov	BYTE PTR [ecx+36], 1
	mov	DWORD PTR [ecx+56], 0
	mov	DWORD PTR [ecx+52], 0
; File e:\study\jpeg2000\visually_lossless_jpeg2000\modifiedkakadu\coresys\transform\multi_transform_local.h

; 738  :         use_ycc=false; xform_blocks=block_tail=NULL;

	mov	BYTE PTR [ecx+8], 0
	mov	DWORD PTR [ecx+16], 0
	mov	DWORD PTR [ecx+12], 0

; 739  :         codestream_collection=output_collection=NULL;

	mov	DWORD PTR [ecx+28], 0
	mov	DWORD PTR [ecx+24], 0

; 740  :         constant_output_lines=NULL; codestream_components = NULL;

	mov	DWORD PTR [ecx+32], 0
	mov	DWORD PTR [ecx+20], 0

; 741  :         env_queue = NULL;  max_scratch_ints = max_scratch_floats = 0;

	mov	DWORD PTR [ecx+60], 0
	mov	DWORD PTR [ecx+72], 0
	mov	DWORD PTR [ecx+64], 0

; 742  :         scratch_ints=NULL;  scratch_floats=NULL;

	mov	DWORD PTR [ecx+68], 0
	mov	DWORD PTR [ecx+76], 0

; 801  :     kd_multi_synthesis() { output_row_counters=NULL; }

	mov	DWORD PTR _this$[ebp], ecx
	mov	DWORD PTR [ecx], OFFSET ??_7kd_multi_synthesis@@6Bkd_multi_synthesis_base@@@
	mov	DWORD PTR [ecx+4], OFFSET ??_7kd_multi_synthesis@@6Bkd_multi_transform@@@
	mov	DWORD PTR [ecx+80], 0
	mov	esp, ebp
	pop	ebp
	ret	0
??0kd_multi_synthesis@@QAE@XZ ENDP			; kd_multi_synthesis::kd_multi_synthesis
_TEXT	ENDS
; Function compile flags: /Ogtp
;	COMDAT ??_Gkd_multi_transform@@UAEPAXI@Z
_TEXT	SEGMENT
___flags$ = 8						; size = 4
??_Gkd_multi_transform@@UAEPAXI@Z PROC			; kd_multi_transform::`scalar deleting destructor', COMDAT
; _this$ = ecx
	push	ebp
	mov	ebp, esp
	push	esi
	mov	esi, ecx
	call	??1kd_multi_transform@@UAE@XZ		; kd_multi_transform::~kd_multi_transform
	test	BYTE PTR ___flags$[ebp], 1
	je	SHORT $LN4@scalar
	push	76					; 0000004cH
	push	esi
	call	??3@YAXPAXI@Z				; operator delete
	add	esp, 8
$LN4@scalar:
	mov	eax, esi
	pop	esi
	pop	ebp
	ret	4
??_Gkd_multi_transform@@UAEPAXI@Z ENDP			; kd_multi_transform::`scalar deleting destructor'
_TEXT	ENDS
; Function compile flags: /Ogtp
; File e:\study\jpeg2000\visually_lossless_jpeg2000\modifiedkakadu\coresys\transform\multi_transform.cpp
; File e:\study\jpeg2000\visually_lossless_jpeg2000\modifiedkakadu\coresys\common\kdu_compressed.h
; File e:\study\jpeg2000\visually_lossless_jpeg2000\modifiedkakadu\coresys\transform\multi_transform.cpp
; File e:\study\jpeg2000\visually_lossless_jpeg2000\modifiedkakadu\coresys\common\kdu_compressed.h
; File e:\study\jpeg2000\visually_lossless_jpeg2000\modifiedkakadu\coresys\transform\multi_transform.cpp
; File e:\study\jpeg2000\visually_lossless_jpeg2000\modifiedkakadu\coresys\common\kdu_compressed.h
; File e:\study\jpeg2000\visually_lossless_jpeg2000\modifiedkakadu\coresys\transform\multi_transform.cpp
; File e:\study\jpeg2000\visually_lossless_jpeg2000\modifiedkakadu\coresys\common\kdu_compressed.h
; File e:\study\jpeg2000\visually_lossless_jpeg2000\modifiedkakadu\coresys\transform\multi_transform.cpp
; File e:\study\jpeg2000\visually_lossless_jpeg2000\modifiedkakadu\coresys\common\kdu_compressed.h
; File e:\study\jpeg2000\visually_lossless_jpeg2000\modifiedkakadu\coresys\transform\multi_transform.cpp
; File e:\study\jpeg2000\visually_lossless_jpeg2000\modifiedkakadu\coresys\common\kdu_compressed.h
; File e:\study\jpeg2000\visually_lossless_jpeg2000\modifiedkakadu\coresys\transform\multi_transform.cpp
; File e:\study\jpeg2000\visually_lossless_jpeg2000\modifiedkakadu\coresys\common\kdu_compressed.h
; File e:\study\jpeg2000\visually_lossless_jpeg2000\modifiedkakadu\coresys\transform\multi_transform.cpp
; File e:\study\jpeg2000\visually_lossless_jpeg2000\modifiedkakadu\coresys\common\kdu_compressed.h
; File e:\study\jpeg2000\visually_lossless_jpeg2000\modifiedkakadu\coresys\transform\multi_transform.cpp
; File e:\study\jpeg2000\visually_lossless_jpeg2000\modifiedkakadu\coresys\common\kdu_compressed.h
; File e:\study\jpeg2000\visually_lossless_jpeg2000\modifiedkakadu\coresys\transform\multi_transform.cpp
; File e:\study\jpeg2000\visually_lossless_jpeg2000\modifiedkakadu\coresys\common\kdu_messaging.h
; File e:\study\jpeg2000\visually_lossless_jpeg2000\modifiedkakadu\coresys\transform\multi_transform.cpp
; File e:\study\jpeg2000\visually_lossless_jpeg2000\modifiedkakadu\coresys\common\kdu_messaging.h
; File e:\study\jpeg2000\visually_lossless_jpeg2000\modifiedkakadu\coresys\transform\multi_transform.cpp
; File e:\study\jpeg2000\visually_lossless_jpeg2000\modifiedkakadu\coresys\common\kdu_messaging.h
; File e:\study\jpeg2000\visually_lossless_jpeg2000\modifiedkakadu\coresys\transform\multi_transform.cpp
; File e:\study\jpeg2000\visually_lossless_jpeg2000\modifiedkakadu\coresys\common\kdu_messaging.h
; File e:\study\jpeg2000\visually_lossless_jpeg2000\modifiedkakadu\coresys\transform\multi_transform.cpp
;	COMDAT ?propagate_knowledge@kd_multi_transform@@AAE_N_N@Z
_TEXT	SEGMENT
_e$2 = -92						; size = 20
_e$3 = -72						; size = 20
tv1331 = -52						; size = 4
tv1322 = -48						; size = 4
tv1279 = -44						; size = 4
_block$1$ = -44						; size = 4
tv1282 = -40						; size = 4
_have_unknown_input_bit_depth$4 = -40			; size = 1
_have_unknown_output_bit_depth$5 = -36			; size = 1
tv1390 = -32						; size = 4
tv1389 = -32						; size = 4
tv1366 = -32						; size = 4
_n$3$ = -32						; size = 4
_this$1$ = -32						; size = 4
tv1353 = -28						; size = 4
tv1350 = -28						; size = 4
tv1317 = -28						; size = 4
tv1285 = -28						; size = 4
_n$1$ = -28						; size = 4
tv1342 = -24						; size = 4
tv1355 = -20						; size = 4
tv1344 = -20						; size = 4
_n$2$ = -20						; size = 4
_found_bit_depth_inconsistency$1$ = -15			; size = 1
_have_xform_size$1$ = -14				; size = 1
_found_size_inconsistency$1$ = -13			; size = 1
__$EHRec$ = -12						; size = 12
_force_precise$ = 8					; size = 1
?propagate_knowledge@kd_multi_transform@@AAE_N_N@Z PROC	; kd_multi_transform::propagate_knowledge, COMDAT
; _this$ = ecx

; 565  : {

	push	ebp
	mov	ebp, esp
	push	-1
	push	__ehhandler$?propagate_knowledge@kd_multi_transform@@AAE_N_N@Z
	mov	eax, DWORD PTR fs:0
	push	eax
	sub	esp, 80					; 00000050H
	push	ebx
	push	esi
	push	edi
	mov	eax, DWORD PTR ___security_cookie
	xor	eax, ebp
	push	eax
	lea	eax, DWORD PTR __$EHRec$[ebp]
	mov	DWORD PTR fs:0, eax
	mov	eax, ecx
	mov	DWORD PTR _this$1$[ebp], eax

; 566  :   int n;
; 567  :   kd_multi_block *block;
; 568  :   bool any_change = false;
; 569  :   bool found_size_inconsistency=false;

	xor	cl, cl

; 570  :   bool found_bit_depth_inconsistency=false;
; 571  : 
; 572  :   if (use_ycc)

	mov	DWORD PTR tv1342[ebp], 1
	xor	bl, bl
	mov	BYTE PTR _found_size_inconsistency$1$[ebp], cl
	mov	DWORD PTR tv1344[ebp], ebx
	mov	BYTE PTR _found_bit_depth_inconsistency$1$[ebp], cl
	cmp	BYTE PTR [eax+4], cl
	je	$LN149@propagate_

; 573  :     { // Ensure consistency amongst the first 3 components in the codestream
; 574  :       // collection.
; 575  :       assert(codestream_collection->num_components >= 3);
; 576  :       kd_multi_line **lines = codestream_collection->components;

	mov	eax, DWORD PTR [eax+20]

; 577  :       bool reversible=false, irreversible=false, precise=force_precise;

	xor	dl, dl

; 578  :       for (n=0; n < 3; n++)
; 579  :         {
; 580  :           if (lines[n]->reversible)
; 581  :             reversible = true;
; 582  :           if (lines[n]->need_irreversible)

	movzx	edx, dl
	mov	edi, DWORD PTR [eax+4]
	xor	al, al
	movzx	ecx, al
	mov	esi, DWORD PTR [edi]
	cmp	BYTE PTR [esi+32], al
	mov	eax, 1
	cmovne	ecx, eax
	cmp	BYTE PTR [esi+33], bl

; 583  :             irreversible = true;
; 584  :           if (lines[n]->need_precise)

	movzx	ebx, BYTE PTR _force_precise$[ebp]
	cmovne	edx, eax
	movzx	ecx, cl
	cmp	BYTE PTR [esi+34], 0
	movzx	edx, dl
	cmovne	ebx, eax
	mov	eax, DWORD PTR [edi+4]
	movzx	ebx, bl
	cmp	BYTE PTR [eax+32], 0
	cmovne	ecx, DWORD PTR tv1342[ebp]
	cmp	BYTE PTR [eax+33], 0
	movzx	ecx, cl
	cmovne	edx, DWORD PTR tv1342[ebp]
	cmp	BYTE PTR [eax+34], 0
	mov	eax, 1
	movzx	edx, dl
	cmovne	ebx, eax
	mov	eax, DWORD PTR [edi+8]
	movzx	ebx, bl
	cmp	BYTE PTR [eax+32], 0
	cmovne	ecx, DWORD PTR tv1342[ebp]
	cmp	BYTE PTR [eax+33], 0
	mov	DWORD PTR tv1279[ebp], ecx
	cmovne	edx, DWORD PTR tv1342[ebp]
	cmp	BYTE PTR [eax+34], 0
	mov	eax, 1

; 585  :             precise = true;
; 586  :         }
; 587  :       for (n=0; n < 3; n++)
; 588  :         {
; 589  :           lines[n]->reversible = reversible;

	mov	BYTE PTR [esi+32], cl
	cmovne	ebx, eax
	mov	DWORD PTR tv1282[ebp], edx

; 590  :           lines[n]->need_irreversible = irreversible;

	mov	eax, DWORD PTR [edi]
	mov	DWORD PTR tv1285[ebp], ebx
	mov	BYTE PTR [eax+33], dl

; 591  :           lines[n]->need_precise = precise;

	mov	eax, DWORD PTR [edi]
	mov	BYTE PTR [eax+34], bl

; 592  :           if (lines[n]->size != lines[0]->size)

	mov	ecx, DWORD PTR [edi]
; File e:\study\jpeg2000\visually_lossless_jpeg2000\modifiedkakadu\coresys\common\kdu_compressed.h

; 258  :       { return (x!=rhs.x) || (y!=rhs.y); }

	mov	eax, DWORD PTR [ecx+16]
	cmp	eax, eax
	jne	SHORT $LN72@propagate_
	mov	eax, DWORD PTR [ecx+12]
	cmp	eax, eax
	je	SHORT $LN167@propagate_
$LN72@propagate_:
; File e:\study\jpeg2000\visually_lossless_jpeg2000\modifiedkakadu\coresys\transform\multi_transform.cpp

; 593  :             found_size_inconsistency = true;

	mov	cl, 1
	mov	BYTE PTR _found_size_inconsistency$1$[ebp], cl
	jmp	SHORT $LN5@propagate_
$LN167@propagate_:
	mov	cl, BYTE PTR _found_size_inconsistency$1$[ebp]
$LN5@propagate_:

; 585  :             precise = true;
; 586  :         }
; 587  :       for (n=0; n < 3; n++)
; 588  :         {
; 589  :           lines[n]->reversible = reversible;

	mov	eax, DWORD PTR [edi+4]
	mov	ebx, DWORD PTR tv1279[ebp]
	mov	BYTE PTR [eax+32], bl

; 590  :           lines[n]->need_irreversible = irreversible;

	mov	eax, DWORD PTR [edi+4]
	mov	BYTE PTR [eax+33], dl

; 591  :           lines[n]->need_precise = precise;

	mov	eax, DWORD PTR [edi+4]
	mov	edx, DWORD PTR tv1285[ebp]
	mov	BYTE PTR [eax+34], dl

; 592  :           if (lines[n]->size != lines[0]->size)

	mov	esi, DWORD PTR [edi+4]
	mov	edx, DWORD PTR [edi]
; File e:\study\jpeg2000\visually_lossless_jpeg2000\modifiedkakadu\coresys\common\kdu_compressed.h

; 258  :       { return (x!=rhs.x) || (y!=rhs.y); }

	mov	eax, DWORD PTR [esi+16]
	cmp	eax, DWORD PTR [edx+16]
	jne	SHORT $LN143@propagate_
	mov	eax, DWORD PTR [esi+12]
	cmp	eax, DWORD PTR [edx+12]
	je	SHORT $LN145@propagate_
$LN143@propagate_:
; File e:\study\jpeg2000\visually_lossless_jpeg2000\modifiedkakadu\coresys\transform\multi_transform.cpp

; 593  :             found_size_inconsistency = true;

	mov	cl, 1
	mov	BYTE PTR _found_size_inconsistency$1$[ebp], cl
$LN145@propagate_:

; 590  :           lines[n]->need_irreversible = irreversible;

	mov	eax, DWORD PTR [edi+8]
	mov	edx, DWORD PTR tv1282[ebp]
	mov	BYTE PTR [eax+32], bl
	mov	eax, DWORD PTR [edi+8]
	mov	BYTE PTR [eax+33], dl

; 591  :           lines[n]->need_precise = precise;

	mov	eax, DWORD PTR [edi+8]
	mov	edx, DWORD PTR tv1285[ebp]
	mov	BYTE PTR [eax+34], dl

; 592  :           if (lines[n]->size != lines[0]->size)

	mov	esi, DWORD PTR [edi+8]
	mov	edx, DWORD PTR [edi]
; File e:\study\jpeg2000\visually_lossless_jpeg2000\modifiedkakadu\coresys\common\kdu_compressed.h

; 258  :       { return (x!=rhs.x) || (y!=rhs.y); }

	mov	eax, DWORD PTR [esi+16]
	cmp	eax, DWORD PTR [edx+16]
	jne	SHORT $LN147@propagate_
	mov	eax, DWORD PTR [esi+12]
	cmp	eax, DWORD PTR [edx+12]
	je	SHORT $LN166@propagate_
$LN147@propagate_:
; File e:\study\jpeg2000\visually_lossless_jpeg2000\modifiedkakadu\coresys\transform\multi_transform.cpp

; 593  :             found_size_inconsistency = true;

	mov	cl, 1
	mov	BYTE PTR _found_size_inconsistency$1$[ebp], cl
$LN166@propagate_:
	mov	eax, DWORD PTR _this$1$[ebp]
	mov	ebx, DWORD PTR tv1344[ebp]
$LN149@propagate_:

; 594  :         }
; 595  :     }
; 596  : 
; 597  :   for (block=xform_blocks;

	mov	esi, DWORD PTR [eax+8]
	mov	DWORD PTR _block$1$[ebp], esi

; 598  :        (block != NULL) && !found_size_inconsistency;

	test	esi, esi
	je	$LN9@propagate_
$LL10@propagate_:
	test	cl, cl
	jne	$LN156@propagate_

; 600  :     {
; 601  :       if (block->is_null_transform)
; 602  :         { // These pass components through individually; they have no size
; 603  :           // of their own.
; 604  :           assert(block->num_dependencies <= block->num_components);
; 605  :               // The `kd_multi_null_block::initialize' function should have
; 606  :               // made this condition hold.
; 607  :           for (n=0; n < block->num_components; n++)

	xor	edx, edx
	cmp	BYTE PTR [esi+4], dl
	je	$LN31@propagate_
	mov	DWORD PTR _n$1$[ebp], edx
	cmp	DWORD PTR [esi+8], edx
	jle	$LN8@propagate_
	xor	ecx, ecx
	mov	DWORD PTR tv1355[ebp], ecx
$LL13@propagate_:

; 608  :             {
; 609  :               kd_multi_line *line = block->components + n;

	mov	eax, DWORD PTR [esi+12]
	add	eax, ecx

; 610  :               if (force_precise)

	cmp	BYTE PTR _force_precise$[ebp], 0
	je	SHORT $LN33@propagate_

; 611  :                 line->need_precise = true;

	mov	BYTE PTR [eax+34], 1
$LN33@propagate_:

; 612  :               if (!line->is_constant)

	cmp	BYTE PTR [eax+35], 0
	jne	$LN11@propagate_

; 613  :                 {
; 614  :                   kd_multi_line *dep = block->dependencies[n];

	mov	ecx, DWORD PTR [esi+20]
	mov	edx, DWORD PTR [ecx+edx*4]

; 615  :                   if (dep->need_precise != line->need_precise)

	mov	cl, BYTE PTR [edx+34]
	cmp	cl, BYTE PTR [eax+34]
	je	SHORT $LN35@propagate_

; 616  :                     {
; 617  :                       any_change = true;

	mov	bl, 1

; 618  :                       line->need_precise = dep->need_precise = true;

	mov	BYTE PTR [edx+34], bl
	mov	BYTE PTR [eax+34], bl
$LN35@propagate_:

; 619  :                     }
; 620  :                   if (dep->need_irreversible != line->need_irreversible)

	mov	cl, BYTE PTR [edx+33]
	cmp	cl, BYTE PTR [eax+33]
	je	SHORT $LN36@propagate_

; 621  :                     {
; 622  :                       any_change = true;

	mov	bl, 1

; 623  :                       line->need_irreversible = dep->need_irreversible = true;

	mov	BYTE PTR [edx+33], bl
	mov	BYTE PTR [eax+33], bl
$LN36@propagate_:

; 624  :                     }
; 625  :                   if (dep->reversible != line->reversible)

	mov	cl, BYTE PTR [edx+32]
	cmp	cl, BYTE PTR [eax+32]
	je	SHORT $LN37@propagate_

; 626  :                     {
; 627  :                       any_change = true;

	mov	bl, 1

; 628  :                       line->reversible = dep->reversible = true;

	mov	BYTE PTR [edx+32], bl
	mov	BYTE PTR [eax+32], bl
$LN37@propagate_:
; File e:\study\jpeg2000\visually_lossless_jpeg2000\modifiedkakadu\coresys\common\kdu_compressed.h

; 258  :       { return (x!=rhs.x) || (y!=rhs.y); }

	mov	ecx, DWORD PTR [edx+16]
	cmp	ecx, DWORD PTR [eax+16]
	jne	SHORT $LN76@propagate_
	mov	ecx, DWORD PTR [edx+12]
	cmp	ecx, DWORD PTR [eax+12]
	je	SHORT $LN42@propagate_
$LN76@propagate_:
; File e:\study\jpeg2000\visually_lossless_jpeg2000\modifiedkakadu\coresys\transform\multi_transform.cpp

; 633  :                       if ((dep->size.x == 0) && (dep->size.y == 0))

	cmp	DWORD PTR [edx+16], 0
	mov	bl, 1
	jne	SHORT $LN39@propagate_
	cmp	DWORD PTR [edx+12], 0
	jne	SHORT $LN39@propagate_

; 634  :                         dep->size = line->size;

	mov	ecx, DWORD PTR [eax+12]
	mov	DWORD PTR [edx+12], ecx
	mov	ecx, DWORD PTR [eax+16]
	mov	DWORD PTR [edx+16], ecx
	jmp	SHORT $LN42@propagate_
$LN39@propagate_:

; 635  :                       else if ((line->size.x == 0) && (line->size.y == 0))

	cmp	DWORD PTR [eax+16], 0
	jne	SHORT $LN41@propagate_
	cmp	DWORD PTR [eax+12], 0
	jne	SHORT $LN41@propagate_

; 636  :                         line->size = dep->size;

	mov	ecx, DWORD PTR [edx+12]
	mov	DWORD PTR [eax+12], ecx
	mov	ecx, DWORD PTR [edx+16]
	mov	DWORD PTR [eax+16], ecx

; 637  :                       else

	jmp	SHORT $LN42@propagate_
$LN41@propagate_:

; 638  :                         found_size_inconsistency = true;

	mov	BYTE PTR _found_size_inconsistency$1$[ebp], 1
$LN42@propagate_:

; 639  :                     }
; 640  :                   if (dep->bit_depth != line->bit_depth)

	mov	edi, DWORD PTR [edx+36]
	mov	ecx, DWORD PTR [eax+36]
	cmp	edi, ecx
	je	SHORT $LN11@propagate_

; 641  :                     {
; 642  :                       any_change = true;

	mov	bl, 1

; 643  :                       if (dep->bit_depth == 0)

	test	edi, edi
	jne	SHORT $LN44@propagate_

; 644  :                         dep->bit_depth = line->bit_depth;

	mov	DWORD PTR [edx+36], ecx
	jmp	SHORT $LN11@propagate_
$LN44@propagate_:

; 645  :                       else if (line->bit_depth == 0)

	test	ecx, ecx
	jne	SHORT $LN46@propagate_

; 646  :                         line->bit_depth = dep->bit_depth;

	mov	DWORD PTR [eax+36], edi

; 647  :                       else

	jmp	SHORT $LN11@propagate_
$LN46@propagate_:

; 648  :                         found_bit_depth_inconsistency = true;

	mov	BYTE PTR _found_bit_depth_inconsistency$1$[ebp], 1
$LN11@propagate_:

; 600  :     {
; 601  :       if (block->is_null_transform)
; 602  :         { // These pass components through individually; they have no size
; 603  :           // of their own.
; 604  :           assert(block->num_dependencies <= block->num_components);
; 605  :               // The `kd_multi_null_block::initialize' function should have
; 606  :               // made this condition hold.
; 607  :           for (n=0; n < block->num_components; n++)

	mov	eax, DWORD PTR _n$1$[ebp]
	add	DWORD PTR tv1355[ebp], 60		; 0000003cH
	inc	eax
	mov	edx, eax
	mov	ecx, DWORD PTR tv1355[ebp]
	mov	DWORD PTR _n$1$[ebp], eax
	cmp	eax, DWORD PTR [esi+8]
	jl	$LL13@propagate_

; 649  :                     }
; 650  :                 }
; 651  :             }
; 652  :         }
; 653  :       else

	jmp	$LN169@propagate_
$LN31@propagate_:

; 654  :         { // Regular block transform; hi/lo precision and size of all
; 655  :           // components manipulated by the transform must be consistent.
; 656  :           bool xform_needs_precise = force_precise;

	mov	cl, BYTE PTR _force_precise$[ebp]

; 659  :           bool have_unknown_input_bit_depth=false;

	xor	al, al
	mov	DWORD PTR tv1322[ebp], eax
; File e:\study\jpeg2000\visually_lossless_jpeg2000\modifiedkakadu\coresys\common\kdu_compressed.h

; 209  :     kdu_coords() { x = y = 0; }

	xor	edi, edi
; File e:\study\jpeg2000\visually_lossless_jpeg2000\modifiedkakadu\coresys\transform\multi_transform.cpp

; 659  :           bool have_unknown_input_bit_depth=false;

	mov	BYTE PTR _have_unknown_input_bit_depth$4[ebp], al

; 660  :           bool have_unknown_output_bit_depth=false;

	mov	DWORD PTR tv1331[ebp], eax
	mov	BYTE PTR _have_unknown_output_bit_depth$5[ebp], al

; 661  :           kd_multi_line *line;
; 662  :           for (n=0; n < block->num_dependencies; n++)

	mov	eax, DWORD PTR [esi+16]
	mov	DWORD PTR tv1317[ebp], ecx
	mov	BYTE PTR _have_xform_size$1$[ebp], 0
	test	eax, eax
	jle	SHORT $LN15@propagate_

; 663  :             {
; 664  :               if ((line = block->dependencies[n]) == NULL)

	mov	ebx, DWORD PTR tv1322[ebp]
	mov	esi, DWORD PTR [esi+20]
	mov	DWORD PTR tv1390[ebp], eax
$LL16@propagate_:
	mov	eax, DWORD PTR [esi]
	test	eax, eax
	je	SHORT $LN14@propagate_

; 665  :                 continue;
; 666  :               if (line->need_precise)

	cmp	BYTE PTR [eax+34], 0
	movzx	ecx, cl
	cmovne	ecx, DWORD PTR tv1342[ebp]
; File e:\study\jpeg2000\visually_lossless_jpeg2000\modifiedkakadu\coresys\common\kdu_compressed.h

; 258  :       { return (x!=rhs.x) || (y!=rhs.y); }

	cmp	DWORD PTR [eax+16], edi
	jne	SHORT $LN82@propagate_
	cmp	DWORD PTR [eax+12], edx
	je	SHORT $LN50@propagate_
$LN82@propagate_:
; File e:\study\jpeg2000\visually_lossless_jpeg2000\modifiedkakadu\coresys\transform\multi_transform.cpp

; 668  :               if ((line->size != xform_size) && !have_xform_size)

	cmp	BYTE PTR _have_xform_size$1$[ebp], 0
	jne	SHORT $LN50@propagate_

; 669  :                 { xform_size = line->size;  have_xform_size = true; }

	mov	edx, DWORD PTR [eax+12]
	mov	edi, DWORD PTR [eax+16]
	mov	BYTE PTR _have_xform_size$1$[ebp], 1
$LN50@propagate_:

; 670  :               if (line->bit_depth == 0)

	cmp	DWORD PTR [eax+36], 0
	mov	eax, 1
	movzx	ebx, bl
	cmove	ebx, eax
	mov	BYTE PTR _have_unknown_input_bit_depth$4[ebp], bl
$LN14@propagate_:

; 661  :           kd_multi_line *line;
; 662  :           for (n=0; n < block->num_dependencies; n++)

	add	esi, 4
	sub	DWORD PTR tv1390[ebp], 1
	jne	SHORT $LL16@propagate_
	mov	esi, DWORD PTR _block$1$[ebp]
	mov	ebx, DWORD PTR tv1344[ebp]
	mov	DWORD PTR tv1317[ebp], ecx
$LN15@propagate_:

; 671  :                 have_unknown_input_bit_depth = true;
; 672  :             }
; 673  :           for (n=0; n < block->num_components; n++)

	mov	eax, DWORD PTR [esi+8]
	mov	DWORD PTR tv1389[ebp], eax
	test	eax, eax
	jle	SHORT $LN18@propagate_

; 674  :             {
; 675  :               line = block->components + n;

	mov	ecx, DWORD PTR [esi+12]
	mov	eax, DWORD PTR tv1317[ebp]
	add	ecx, 12					; 0000000cH
	mov	ebx, DWORD PTR tv1331[ebp]
	npad	4
$LL19@propagate_:

; 676  :               if (line->need_precise)

	cmp	BYTE PTR [ecx+22], 0
	movzx	eax, al
	cmovne	eax, DWORD PTR tv1342[ebp]
; File e:\study\jpeg2000\visually_lossless_jpeg2000\modifiedkakadu\coresys\common\kdu_compressed.h

; 258  :       { return (x!=rhs.x) || (y!=rhs.y); }

	cmp	DWORD PTR [ecx+4], edi
	jne	SHORT $LN86@propagate_
	cmp	DWORD PTR [ecx], edx
	je	SHORT $LN53@propagate_
$LN86@propagate_:
; File e:\study\jpeg2000\visually_lossless_jpeg2000\modifiedkakadu\coresys\transform\multi_transform.cpp

; 678  :               if ((line->size != xform_size) && !have_xform_size)

	cmp	BYTE PTR _have_xform_size$1$[ebp], 0
	jne	SHORT $LN53@propagate_

; 679  :                 { xform_size = line->size;  have_xform_size = true; }

	mov	edx, DWORD PTR [ecx]
	mov	edi, DWORD PTR [ecx+4]
	mov	BYTE PTR _have_xform_size$1$[ebp], 1
$LN53@propagate_:

; 680  :               if (line->bit_depth == 0)

	cmp	DWORD PTR [ecx+24], 0
	movzx	ebx, bl
	cmove	ebx, DWORD PTR tv1342[ebp]
	add	ecx, 60					; 0000003cH
	sub	DWORD PTR tv1389[ebp], 1
	mov	BYTE PTR _have_unknown_output_bit_depth$5[ebp], bl
	jne	SHORT $LL19@propagate_
	mov	ebx, DWORD PTR tv1344[ebp]
	mov	ecx, eax
	mov	DWORD PTR tv1317[ebp], eax
$LN18@propagate_:

; 681  :                 have_unknown_output_bit_depth = true;
; 682  :             }
; 683  :           for (n=0; n < block->num_dependencies; n++)

	mov	eax, DWORD PTR [esi+16]
	mov	DWORD PTR _n$2$[ebp], 0
	test	eax, eax
	jle	SHORT $LN21@propagate_
$LL22@propagate_:

; 684  :             {
; 685  :               if ((line = block->dependencies[n]) == NULL)

	mov	ecx, DWORD PTR _n$2$[ebp]
	mov	eax, DWORD PTR [esi+20]
	mov	eax, DWORD PTR [eax+ecx*4]
	mov	ecx, DWORD PTR tv1317[ebp]
	test	eax, eax
	je	SHORT $LN20@propagate_

; 686  :                 continue;
; 687  :               if (line->need_precise != xform_needs_precise)

	cmp	BYTE PTR [eax+34], cl
	je	SHORT $LN56@propagate_

; 688  :                 { any_change = true; line->need_precise = true; }

	mov	bl, 1
	mov	BYTE PTR [eax+34], bl
$LN56@propagate_:
; File e:\study\jpeg2000\visually_lossless_jpeg2000\modifiedkakadu\coresys\common\kdu_compressed.h

; 258  :       { return (x!=rhs.x) || (y!=rhs.y); }

	cmp	DWORD PTR [eax+16], edi
	jne	SHORT $LN90@propagate_
	cmp	DWORD PTR [eax+12], edx
	je	SHORT $LN20@propagate_
$LN90@propagate_:
; File e:\study\jpeg2000\visually_lossless_jpeg2000\modifiedkakadu\coresys\transform\multi_transform.cpp

; 693  :                   if ((line->size.x == 0) && (line->size.y == 0))

	cmp	DWORD PTR [eax+16], 0
	mov	bl, 1
	jne	SHORT $LN58@propagate_
	cmp	DWORD PTR [eax+12], 0
	jne	SHORT $LN58@propagate_

; 694  :                     line->size = xform_size;

	mov	DWORD PTR [eax+12], edx
	mov	DWORD PTR [eax+16], edi

; 695  :                   else

	jmp	SHORT $LN20@propagate_
$LN58@propagate_:

; 696  :                     found_size_inconsistency = true;

	mov	BYTE PTR _found_size_inconsistency$1$[ebp], 1
$LN20@propagate_:

; 681  :                 have_unknown_output_bit_depth = true;
; 682  :             }
; 683  :           for (n=0; n < block->num_dependencies; n++)

	mov	eax, DWORD PTR _n$2$[ebp]
	inc	eax
	mov	DWORD PTR _n$2$[ebp], eax
	cmp	eax, DWORD PTR [esi+16]
	jl	SHORT $LL22@propagate_
$LN21@propagate_:

; 697  :                 }
; 698  :             }
; 699  :           for (n=0; n < block->num_components; n++)

	cmp	DWORD PTR [esi+8], 0
	mov	DWORD PTR _n$3$[ebp], 0
	jle	SHORT $LN24@propagate_
	mov	DWORD PTR tv1350[ebp], 0
	npad	2
$LL25@propagate_:

; 700  :             {
; 701  :               line = block->components + n;

	mov	eax, DWORD PTR [esi+12]
	add	eax, DWORD PTR tv1350[ebp]

; 702  :               if (line->need_precise != xform_needs_precise)

	cmp	BYTE PTR [eax+34], cl
	je	SHORT $LN60@propagate_

; 703  :                 { any_change = true; line->need_precise = true; }

	mov	bl, 1
	mov	BYTE PTR [eax+34], bl
$LN60@propagate_:
; File e:\study\jpeg2000\visually_lossless_jpeg2000\modifiedkakadu\coresys\common\kdu_compressed.h

; 258  :       { return (x!=rhs.x) || (y!=rhs.y); }

	cmp	DWORD PTR [eax+16], edi
	jne	SHORT $LN94@propagate_
	cmp	DWORD PTR [eax+12], edx
	je	SHORT $LN23@propagate_
$LN94@propagate_:
; File e:\study\jpeg2000\visually_lossless_jpeg2000\modifiedkakadu\coresys\transform\multi_transform.cpp

; 708  :                   if ((line->size.x == 0) && (line->size.y == 0))

	cmp	DWORD PTR [eax+16], 0
	mov	bl, 1
	jne	SHORT $LN62@propagate_
	cmp	DWORD PTR [eax+12], 0
	jne	SHORT $LN62@propagate_

; 709  :                     line->size = xform_size;

	mov	DWORD PTR [eax+12], edx
	mov	DWORD PTR [eax+16], edi

; 710  :                   else

	jmp	SHORT $LN23@propagate_
$LN62@propagate_:

; 711  :                     found_size_inconsistency = true;

	mov	BYTE PTR _found_size_inconsistency$1$[ebp], 1
$LN23@propagate_:

; 697  :                 }
; 698  :             }
; 699  :           for (n=0; n < block->num_components; n++)

	mov	eax, DWORD PTR _n$3$[ebp]
	add	DWORD PTR tv1350[ebp], 60		; 0000003cH
	inc	eax
	mov	DWORD PTR _n$3$[ebp], eax
	cmp	eax, DWORD PTR [esi+8]
	jl	SHORT $LL25@propagate_
$LN24@propagate_:

; 712  :                 }
; 713  :             }
; 714  :           if (block->propagate_bit_depths(have_unknown_input_bit_depth,

	mov	eax, DWORD PTR [esi]
	mov	ecx, esi
	push	DWORD PTR _have_unknown_output_bit_depth$5[ebp]
	push	DWORD PTR _have_unknown_input_bit_depth$4[ebp]
	mov	eax, DWORD PTR [eax+12]
	call	eax
	test	al, al
	movzx	ebx, bl
	mov	edx, 1
	cmovne	ebx, edx
$LN169@propagate_:
	mov	cl, BYTE PTR _found_size_inconsistency$1$[ebp]
	mov	DWORD PTR tv1344[ebp], ebx
$LN8@propagate_:

; 599  :        block=block->next)

	mov	esi, DWORD PTR [esi+32]
	mov	DWORD PTR _block$1$[ebp], esi
	test	esi, esi
	jne	$LL10@propagate_
$LN9@propagate_:

; 715  :                                           have_unknown_output_bit_depth))
; 716  :             any_change = true;
; 717  :         }
; 718  :     }
; 719  : 
; 720  :   if (found_size_inconsistency)

	test	cl, cl
	je	SHORT $LN65@propagate_
$LN156@propagate_:

; 721  :     { KDU_ERROR(e,0x25080500); e <<

	push	OFFSET ??_C@_0BE@KMIJLGEL@Kakadu?5Core?5Error?3?6?$AA@
	lea	ecx, DWORD PTR _e$3[ebp]
	call	??0kdu_error@@QAE@PBD@Z			; kdu_error::kdu_error
; File e:\study\jpeg2000\visually_lossless_jpeg2000\modifiedkakadu\coresys\common\kdu_messaging.h

; 257  :       { put_text(string); return *this; }

	mov	eax, DWORD PTR _e$3[ebp]
	lea	ecx, DWORD PTR _e$3[ebp]
	push	OFFSET ??_C@_0CCJ@OBHDBNBL@Cannot?5implement?5multi?9component@
; File e:\study\jpeg2000\visually_lossless_jpeg2000\modifiedkakadu\coresys\transform\multi_transform.cpp

; 721  :     { KDU_ERROR(e,0x25080500); e <<

	mov	DWORD PTR __$EHRec$[ebp+8], 0
; File e:\study\jpeg2000\visually_lossless_jpeg2000\modifiedkakadu\coresys\common\kdu_messaging.h

; 257  :       { put_text(string); return *this; }

	call	DWORD PTR [eax+8]
; File e:\study\jpeg2000\visually_lossless_jpeg2000\modifiedkakadu\coresys\transform\multi_transform.cpp

; 731  :     }

	lea	ecx, DWORD PTR _e$3[ebp]
	mov	DWORD PTR __$EHRec$[ebp+8], -1
	call	??1kdu_error@@UAE@XZ			; kdu_error::~kdu_error
$LN65@propagate_:

; 732  : 
; 733  :   if (found_bit_depth_inconsistency)

	cmp	BYTE PTR _found_bit_depth_inconsistency$1$[ebp], 0
	je	SHORT $LN165@propagate_

; 734  :     { KDU_ERROR(e,0x22080500); e <<

	push	OFFSET ??_C@_0BE@KMIJLGEL@Kakadu?5Core?5Error?3?6?$AA@
	lea	ecx, DWORD PTR _e$2[ebp]
	call	??0kdu_error@@QAE@PBD@Z			; kdu_error::kdu_error
; File e:\study\jpeg2000\visually_lossless_jpeg2000\modifiedkakadu\coresys\common\kdu_messaging.h

; 257  :       { put_text(string); return *this; }

	mov	edx, DWORD PTR _e$2[ebp]
	lea	ecx, DWORD PTR _e$2[ebp]
	push	OFFSET ??_C@_0BDP@OMPOBFOO@Part?92?5codestream?5declares?5a?5cod@
; File e:\study\jpeg2000\visually_lossless_jpeg2000\modifiedkakadu\coresys\transform\multi_transform.cpp

; 734  :     { KDU_ERROR(e,0x22080500); e <<

	mov	DWORD PTR __$EHRec$[ebp+8], 1
; File e:\study\jpeg2000\visually_lossless_jpeg2000\modifiedkakadu\coresys\common\kdu_messaging.h

; 257  :       { put_text(string); return *this; }

	call	DWORD PTR [edx+8]
; File e:\study\jpeg2000\visually_lossless_jpeg2000\modifiedkakadu\coresys\transform\multi_transform.cpp

; 741  :     }

	lea	ecx, DWORD PTR _e$2[ebp]
	call	??1kdu_error@@UAE@XZ			; kdu_error::~kdu_error
$LN165@propagate_:

; 742  : 
; 743  :   return any_change;

	mov	al, bl

; 744  : }

	mov	ecx, DWORD PTR __$EHRec$[ebp]
	mov	DWORD PTR fs:0, ecx
	pop	ecx
	pop	edi
	pop	esi
	pop	ebx
	mov	esp, ebp
	pop	ebp
	ret	4
_TEXT	ENDS
;	COMDAT text$x
text$x	SEGMENT
__unwindfunclet$?propagate_knowledge@kd_multi_transform@@AAE_N_N@Z$0:
	lea	ecx, DWORD PTR _e$3[ebp]
	jmp	??1kdu_error@@UAE@XZ			; kdu_error::~kdu_error
__unwindfunclet$?propagate_knowledge@kd_multi_transform@@AAE_N_N@Z$1:
	lea	ecx, DWORD PTR _e$2[ebp]
	jmp	??1kdu_error@@UAE@XZ			; kdu_error::~kdu_error
__ehhandler$?propagate_knowledge@kd_multi_transform@@AAE_N_N@Z:
	mov	edx, DWORD PTR [esp+8]
	lea	eax, DWORD PTR [edx+12]
	mov	ecx, DWORD PTR [edx-96]
	xor	ecx, eax
	call	@__security_check_cookie@4
	mov	eax, OFFSET __ehfuncinfo$?propagate_knowledge@kd_multi_transform@@AAE_N_N@Z
	jmp	___CxxFrameHandler3
text$x	ENDS
?propagate_knowledge@kd_multi_transform@@AAE_N_N@Z ENDP	; kd_multi_transform::propagate_knowledge
; Function compile flags: /Ogtp
; File e:\study\jpeg2000\visually_lossless_jpeg2000\modifiedkakadu\coresys\transform\multi_transform.cpp
; File e:\study\jpeg2000\visually_lossless_jpeg2000\modifiedkakadu\coresys\common\kdu_messaging.h
; File e:\study\jpeg2000\visually_lossless_jpeg2000\modifiedkakadu\coresys\transform\multi_transform.cpp
; File e:\study\jpeg2000\visually_lossless_jpeg2000\modifiedkakadu\coresys\common\kdu_messaging.h
; File e:\study\jpeg2000\visually_lossless_jpeg2000\modifiedkakadu\coresys\transform\multi_transform.cpp
; File e:\study\jpeg2000\visually_lossless_jpeg2000\modifiedkakadu\coresys\common\kdu_sample_processing.h
; File e:\study\jpeg2000\visually_lossless_jpeg2000\modifiedkakadu\coresys\transform\multi_transform.cpp
; File e:\study\jpeg2000\visually_lossless_jpeg2000\modifiedkakadu\coresys\common\kdu_sample_processing.h
; File e:\study\jpeg2000\visually_lossless_jpeg2000\modifiedkakadu\coresys\transform\multi_transform.cpp
; File e:\study\jpeg2000\visually_lossless_jpeg2000\modifiedkakadu\coresys\common\kdu_sample_processing.h
; File e:\study\jpeg2000\visually_lossless_jpeg2000\modifiedkakadu\coresys\transform\multi_transform.cpp
; File e:\study\jpeg2000\visually_lossless_jpeg2000\modifiedkakadu\coresys\transform\multi_transform_local.h
; File e:\study\jpeg2000\visually_lossless_jpeg2000\modifiedkakadu\coresys\transform\multi_transform.cpp
; File e:\study\jpeg2000\visually_lossless_jpeg2000\modifiedkakadu\coresys\common\kdu_sample_processing.h
; File e:\study\jpeg2000\visually_lossless_jpeg2000\modifiedkakadu\coresys\transform\multi_transform_local.h
; File e:\study\jpeg2000\visually_lossless_jpeg2000\modifiedkakadu\coresys\transform\multi_transform.cpp
;	COMDAT ?create_resources@kd_multi_transform@@IAEXXZ
_TEXT	SEGMENT
_e$2 = -60						; size = 20
tv1161 = -40						; size = 4
tv1149 = -40						; size = 4
_n$4$ = -40						; size = 4
tv1274 = -36						; size = 4
tv1234 = -36						; size = 4
tv1233 = -36						; size = 4
_comp$1$ = -36						; size = 4
tv1230 = -32						; size = 4
_k$1$ = -32						; size = 4
_block$2$ = -32						; size = 4
_n$6$ = -32						; size = 4
_n$1$ = -32						; size = 4
tv1231 = -28						; size = 4
tv1228 = -28						; size = 4
_n$5$ = -28						; size = 4
tv1229 = -24						; size = 4
tv1227 = -24						; size = 4
_this$1$ = -20						; size = 4
_this$1$ = -16						; size = 4
_line$1$ = -16						; size = 4
_line$1$ = -16						; size = 4
tv1137 = -16						; size = 4
__$EHRec$ = -12						; size = 12
?create_resources@kd_multi_transform@@IAEXXZ PROC	; kd_multi_transform::create_resources, COMDAT
; _this$ = ecx

; 752  : {

	push	ebp
	mov	ebp, esp
	push	-1
	push	__ehhandler$?create_resources@kd_multi_transform@@IAEXXZ
	mov	eax, DWORD PTR fs:0
	push	eax
	sub	esp, 48					; 00000030H
	push	ebx
	push	esi
	push	edi
	mov	eax, DWORD PTR ___security_cookie
	xor	eax, ebp
	push	eax
	lea	eax, DWORD PTR __$EHRec$[ebp]
	mov	DWORD PTR fs:0, eax
	mov	edi, ecx
	mov	DWORD PTR _this$1$[ebp], edi

; 757  :   for (n=0; n < codestream_collection->num_components; n++)

	mov	eax, DWORD PTR [edi+20]
	xor	ebx, ebx
	mov	cl, 1
	mov	DWORD PTR _n$1$[ebp], ebx
	mov	DWORD PTR tv1137[ebp], ecx
	cmp	DWORD PTR [eax], ebx
	jle	$LN3@create_res

; 753  :   int n;
; 754  :   kd_multi_block *block;
; 755  : 
; 756  :   bool reversibility_consistent = true;

	xor	edx, edx
	mov	DWORD PTR tv1231[ebp], edx
$LL4@create_res:

; 758  :     {
; 759  :       kd_multi_component *comp = codestream_components + n;

	mov	esi, DWORD PTR [edi+16]

; 760  :       assert(codestream_collection->components[n] == &(comp->line));
; 761  :       if (comp->line.reversible != !comp->line.need_irreversible)

	xor	ecx, ecx
	add	esi, edx
	mov	edx, DWORD PTR tv1137[ebp]
	movzx	edx, dl
	mov	DWORD PTR tv1137[ebp], edx
	cmp	BYTE PTR [esi+45], cl
	movzx	eax, BYTE PTR [esi+44]
	sete	cl
	xor	edx, edx
	cmp	eax, ecx
	mov	ecx, DWORD PTR tv1137[ebp]
	cmovne	ecx, edx
	mov	DWORD PTR tv1137[ebp], ecx

; 762  :         reversibility_consistent = false;
; 763  :       for (int k=0; k < comp->num_buffer_rows; k++)

	cmp	DWORD PTR [esi+96], edx
	jle	SHORT $LN2@create_res
	lea	ecx, DWORD PTR [edi+32]
	xor	ebx, ebx
	mov	DWORD PTR tv1274[ebp], ecx
	mov	edi, edx
	npad	3
$LL7@create_res:

; 764  :         comp->buffer[k].pre_create(&allocator,comp->line.size.x,

	cmp	BYTE PTR [esi+46], 0
	push	2
	push	2
	sete	al
	movzx	eax, al
	push	eax
	movzx	eax, BYTE PTR [esi+44]
	push	eax
	push	DWORD PTR [esi+28]
	push	ecx
	mov	ecx, DWORD PTR [esi+100]
	add	ecx, ebx
	call	?pre_create@kdu_line_buf@@QAEXPAVkdu_sample_allocator@@H_N1HH@Z ; kdu_line_buf::pre_create
	mov	ecx, DWORD PTR tv1274[ebp]
	inc	edi
	add	ebx, 12					; 0000000cH
	cmp	edi, DWORD PTR [esi+96]
	jl	SHORT $LL7@create_res
	mov	edi, DWORD PTR _this$1$[ebp]
	mov	ecx, DWORD PTR tv1137[ebp]
	mov	ebx, DWORD PTR _n$1$[ebp]
$LN2@create_res:

; 757  :   for (n=0; n < codestream_collection->num_components; n++)

	mov	eax, DWORD PTR [edi+20]
	inc	ebx
	mov	edx, DWORD PTR tv1231[ebp]
	add	edx, 112				; 00000070H
	mov	DWORD PTR _n$1$[ebp], ebx
	mov	DWORD PTR tv1231[ebp], edx
	cmp	ebx, DWORD PTR [eax]
	jl	$LL4@create_res
$LN3@create_res:

; 765  :                                    comp->line.reversible,
; 766  :                                    !comp->line.need_precise);
; 767  :     }
; 768  :   for (block=xform_blocks; block != NULL; block=block->next)

	mov	ebx, DWORD PTR [edi+8]
	test	ebx, ebx
	je	$LN9@create_res
	npad	6
$LL10@create_res:

; 769  :     for (n=0; n < block->num_components; n++)

	xor	edi, edi
	cmp	DWORD PTR [ebx+8], edi
	jle	SHORT $LN8@create_res
	xor	eax, eax
	mov	DWORD PTR tv1230[ebp], eax
	npad	4
$LL13@create_res:

; 770  :       {
; 771  :         kd_multi_line *line = block->components + n;

	mov	esi, DWORD PTR [ebx+12]

; 772  :         if (line->reversible != !line->need_irreversible)

	xor	edx, edx
	add	esi, eax
	movzx	ecx, cl
	mov	DWORD PTR tv1149[ebp], 0
	cmp	BYTE PTR [esi+33], dl
	mov	al, BYTE PTR [esi+32]
	mov	DWORD PTR tv1233[ebp], eax
	sete	dl
	movzx	eax, al
	cmp	eax, edx
	cmovne	ecx, DWORD PTR tv1149[ebp]

; 773  :           reversibility_consistent = false;
; 774  :         if (line->bypass == NULL)

	cmp	DWORD PTR [esi+48], 0
	mov	DWORD PTR tv1137[ebp], ecx
	jne	SHORT $LN11@create_res

; 775  :           line->line.pre_create(&allocator,line->size.x,

	cmp	BYTE PTR [esi+34], 0
	mov	ecx, esi
	push	2
	push	2
	sete	al
	movzx	eax, al
	push	eax
	push	DWORD PTR tv1233[ebp]
	mov	eax, DWORD PTR _this$1$[ebp]
	push	DWORD PTR [esi+16]
	add	eax, 32					; 00000020H
	push	eax
	call	?pre_create@kdu_line_buf@@QAEXPAVkdu_sample_allocator@@H_N1HH@Z ; kdu_line_buf::pre_create
	mov	ecx, DWORD PTR tv1137[ebp]
$LN11@create_res:

; 769  :     for (n=0; n < block->num_components; n++)

	mov	eax, DWORD PTR tv1230[ebp]
	inc	edi
	add	eax, 60					; 0000003cH
	mov	DWORD PTR tv1230[ebp], eax
	cmp	edi, DWORD PTR [ebx+8]
	jl	SHORT $LL13@create_res
$LN8@create_res:

; 765  :                                    comp->line.reversible,
; 766  :                                    !comp->line.need_precise);
; 767  :     }
; 768  :   for (block=xform_blocks; block != NULL; block=block->next)

	mov	ebx, DWORD PTR [ebx+32]
	test	ebx, ebx
	jne	SHORT $LL10@create_res
	mov	edi, DWORD PTR _this$1$[ebp]
$LN9@create_res:

; 776  :                                 line->reversible,!line->need_precise);
; 777  :       }
; 778  :   for (n=0; n < output_collection->num_components; n++)

	mov	eax, DWORD PTR [edi+24]
	xor	ebx, ebx
	cmp	DWORD PTR [eax], ebx
	jle	SHORT $LN15@create_res
$LL16@create_res:

; 779  :     {
; 780  :       kd_multi_line *line = output_collection->components[n];

	mov	eax, DWORD PTR [eax+4]

; 781  :       if (line->reversible != !line->need_irreversible)

	xor	edx, edx
	movzx	ecx, cl
	mov	DWORD PTR tv1161[ebp], 0
	mov	esi, DWORD PTR [eax+ebx*4]
	cmp	BYTE PTR [esi+33], dl
	mov	al, BYTE PTR [esi+32]
	mov	DWORD PTR tv1234[ebp], eax
	sete	dl
	movzx	eax, al
	cmp	eax, edx
	cmovne	ecx, DWORD PTR tv1161[ebp]

; 782  :         reversibility_consistent = false;
; 783  :       if ((line->bypass == NULL) && (line->block == NULL) &&

	cmp	DWORD PTR [esi+48], 0
	mov	DWORD PTR tv1137[ebp], ecx
	jne	SHORT $LN14@create_res
	cmp	DWORD PTR [esi+52], 0
	jne	SHORT $LN14@create_res
	cmp	DWORD PTR [esi+56], 0
	jge	SHORT $LN14@create_res

; 784  :           (line->collection_idx < 0))
; 785  :         line->line.pre_create(&allocator,line->size.x,

	cmp	BYTE PTR [esi+34], 0
	mov	ecx, esi
	push	2
	push	2
	sete	al
	movzx	eax, al
	push	eax
	push	DWORD PTR tv1234[ebp]
	lea	eax, DWORD PTR [edi+32]
	push	DWORD PTR [esi+16]
	push	eax
	call	?pre_create@kdu_line_buf@@QAEXPAVkdu_sample_allocator@@H_N1HH@Z ; kdu_line_buf::pre_create
	mov	ecx, DWORD PTR tv1137[ebp]
$LN14@create_res:

; 776  :                                 line->reversible,!line->need_precise);
; 777  :       }
; 778  :   for (n=0; n < output_collection->num_components; n++)

	mov	eax, DWORD PTR [edi+24]
	inc	ebx
	cmp	ebx, DWORD PTR [eax]
	jl	SHORT $LL16@create_res
$LN15@create_res:

; 786  :                               line->reversible,!line->need_precise);
; 787  :     }
; 788  : 
; 789  :   if (!reversibility_consistent)

	test	cl, cl
	jne	SHORT $LN37@create_res

; 790  :     { KDU_ERROR(e,0x23080501); e <<

	push	OFFSET ??_C@_0BE@KMIJLGEL@Kakadu?5Core?5Error?3?6?$AA@
	lea	ecx, DWORD PTR _e$2[ebp]
	call	??0kdu_error@@QAE@PBD@Z			; kdu_error::kdu_error
; File e:\study\jpeg2000\visually_lossless_jpeg2000\modifiedkakadu\coresys\common\kdu_messaging.h

; 257  :       { put_text(string); return *this; }

	mov	eax, DWORD PTR _e$2[ebp]
	lea	ecx, DWORD PTR _e$2[ebp]
	push	OFFSET ??_C@_0DGI@MLEJMJIK@Cannot?5implement?5multi?9component@
; File e:\study\jpeg2000\visually_lossless_jpeg2000\modifiedkakadu\coresys\transform\multi_transform.cpp

; 790  :     { KDU_ERROR(e,0x23080501); e <<

	mov	DWORD PTR __$EHRec$[ebp+8], 0
; File e:\study\jpeg2000\visually_lossless_jpeg2000\modifiedkakadu\coresys\common\kdu_messaging.h

; 257  :       { put_text(string); return *this; }

	call	DWORD PTR [eax+8]
; File e:\study\jpeg2000\visually_lossless_jpeg2000\modifiedkakadu\coresys\transform\multi_transform.cpp

; 806  :     }

	lea	ecx, DWORD PTR _e$2[ebp]
	mov	DWORD PTR __$EHRec$[ebp+8], -1
	call	??1kdu_error@@UAE@XZ			; kdu_error::~kdu_error
$LN37@create_res:
; File e:\study\jpeg2000\visually_lossless_jpeg2000\modifiedkakadu\coresys\common\kdu_sample_processing.h

; 192  :         if (bytes_reserved > buffer_size)

	mov	eax, DWORD PTR [edi+36]
	mov	BYTE PTR [edi+32], 0
	cmp	eax, DWORD PTR [edi+44]
	jle	SHORT $LN48@create_res

; 193  :           { // Otherwise, use the previously allocated buffer.
; 194  :             buffer_size = bytes_reserved;

	mov	DWORD PTR [edi+44], eax

; 195  :             if (buf_handle != NULL) delete[] buf_handle;

	mov	eax, DWORD PTR [edi+52]
	test	eax, eax
	je	SHORT $LN47@create_res
	push	eax
	call	??_V@YAXPAX@Z				; operator delete[]
	add	esp, 4
$LN47@create_res:

; 196  :             buffer = buf_handle = new kdu_byte[buffer_size+24];

	mov	eax, DWORD PTR [edi+44]
	add	eax, 24					; 00000018H
	push	eax
	call	??_U@YAPAXI@Z				; operator new[]
	add	esp, 4
	mov	DWORD PTR [edi+52], eax
	mov	DWORD PTR [edi+48], eax

; 197  :             if (_addr_to_kdu_int32(buffer) & 8)

	test	al, 8
	je	SHORT $LN48@create_res

; 198  :               buffer += 8; // Align on 16-byte boundary

	add	eax, 8
	mov	DWORD PTR [edi+48], eax
$LN48@create_res:
; File e:\study\jpeg2000\visually_lossless_jpeg2000\modifiedkakadu\coresys\transform\multi_transform.cpp

; 810  :   for (n=0; n < codestream_collection->num_components; n++)

	mov	eax, DWORD PTR [edi+20]
	xor	edx, edx
	mov	DWORD PTR _n$4$[ebp], edx
	cmp	DWORD PTR [eax], edx
	jle	$LN18@create_res
	xor	eax, eax
	mov	DWORD PTR tv1228[ebp], eax
	npad	10
$LL19@create_res:

; 811  :     {
; 812  :       kd_multi_component *comp = codestream_components + n;

	mov	ecx, DWORD PTR [edi+16]
	add	ecx, eax

; 813  :       for (int k=0; k < comp->num_buffer_rows; k++)

	mov	DWORD PTR _k$1$[ebp], 0
	mov	DWORD PTR _comp$1$[ebp], ecx
	cmp	DWORD PTR [ecx+96], 0
	jle	$LN17@create_res

; 811  :     {
; 812  :       kd_multi_component *comp = codestream_components + n;

	xor	eax, eax
	mov	DWORD PTR tv1229[ebp], eax
	npad	2
$LL22@create_res:

; 814  :         comp->buffer[k].create();

	mov	ecx, DWORD PTR [ecx+100]
	add	ecx, eax
	mov	DWORD PTR _this$1$[ebp], ecx
; File e:\study\jpeg2000\visually_lossless_jpeg2000\modifiedkakadu\coresys\common\kdu_sample_processing.h

; 370  :         if (!pre_created)

	cmp	BYTE PTR [ecx+7], 0
	je	SHORT $LN20@create_res

; 371  :           return;
; 372  :         pre_created = false;
; 373  :         if (flags & KD_LINE_BUF_SHORTS)
; 374  :           buf16 = allocator->alloc16(buf_before,width+buf_after);

	mov	ebx, DWORD PTR [ecx+8]
	movzx	edi, BYTE PTR [ecx+4]
	test	BYTE PTR [ecx+6], 2
	mov	BYTE PTR [ecx+7], 0

; 218  :         after = (after+7)&~7; // Round up to nearest multiple of 16 bytes.
; 219  :         kdu_sample16 *result = (kdu_sample16 *)(buffer+bytes_used);
; 220  :         result += before; bytes_used += (before+after)<<1;

	mov	edx, DWORD PTR [ebx+8]
	mov	eax, DWORD PTR [ebx+16]

; 371  :           return;
; 372  :         pre_created = false;
; 373  :         if (flags & KD_LINE_BUF_SHORTS)
; 374  :           buf16 = allocator->alloc16(buf_before,width+buf_after);

	movzx	ecx, BYTE PTR [ecx+5]
	je	SHORT $LN52@create_res

; 199  :           }
; 200  :         assert((bytes_reserved == 0) || (buffer != NULL));
; 201  :       }
; 202  :     kdu_sample16 *alloc16(int before, int after)
; 203  :       {
; 204  :       /* [SYNOPSIS]
; 205  :            Allocate an array with space for `before' entries prior to the
; 206  :            returned pointer and `after' entries after the returned pointer
; 207  :            (including the entry to which the pointer refers).  The returned
; 208  :            pointer is guaranteed to be aligned on a 16-byte boundary.
; 209  :            The pointer may be interpreted as the location of an array which
; 210  :            can accept signed indices, n, in the range -`before' <= n < `after'.
; 211  :            [//]
; 212  :            Before calling this function, you must have pre-allocated sufficient
; 213  :            space through calls to `pre_alloc' and you must have called the
; 214  :            `finalize' member function.
; 215  :       */
; 216  :         assert(!pre_creation_phase);
; 217  :         before = (before+7)&~7; // Round up to nearest multiple of 16 bytes.

	add	edi, 7
	and	edi, -8					; fffffff8H

; 218  :         after = (after+7)&~7; // Round up to nearest multiple of 16 bytes.
; 219  :         kdu_sample16 *result = (kdu_sample16 *)(buffer+bytes_used);
; 220  :         result += before; bytes_used += (before+after)<<1;

	lea	esi, DWORD PTR [eax+edi*2]
	mov	eax, DWORD PTR _this$1$[ebp]
	add	esi, edx
	mov	eax, DWORD PTR [eax]
	add	eax, 7
	add	eax, ecx
	and	eax, -8					; fffffff8H
	add	eax, edi
	lea	eax, DWORD PTR [edx+eax*2]

; 375  :         else

	jmp	SHORT $LN122@create_res
$LN52@create_res:

; 221  :         assert(bytes_used <= bytes_reserved);
; 222  :         return result;
; 223  :       }
; 224  :     kdu_sample32 *alloc32(int before, int after)
; 225  :       {
; 226  :       /* [SYNOPSIS]
; 227  :            Same as `alloc16', except that it allocates storage for arrays of
; 228  :            32-bit quantities.  Again, the returned pointer is guaranteed to
; 229  :            be aligned on a 16-byte boundary.
; 230  :       */
; 231  :         assert(!pre_creation_phase);
; 232  :         before = (before+3)&~3; // Round up to nearest multiple of 16 bytes.

	add	edi, 3
	and	edi, -4					; fffffffcH

; 233  :         after = (after+3)&~3; // Round up to nearest multiple of 16 bytes.
; 234  :         kdu_sample32 *result = (kdu_sample32 *)(buffer+bytes_used);
; 235  :         result += before; bytes_used += (before+after)<<2;

	lea	esi, DWORD PTR [eax+edi*4]
	mov	eax, DWORD PTR _this$1$[ebp]
	add	esi, edx
	mov	eax, DWORD PTR [eax]
	add	eax, 3
	add	eax, ecx
	and	eax, -4					; fffffffcH
	add	eax, edi
	lea	eax, DWORD PTR [edx+eax*4]
$LN122@create_res:
	mov	DWORD PTR [ebx+8], eax

; 376  :           buf32 = allocator->alloc32(buf_before,width+buf_after);

	mov	eax, DWORD PTR _this$1$[ebp]
	mov	DWORD PTR [eax+8], esi
	mov	eax, DWORD PTR tv1229[ebp]
$LN20@create_res:
; File e:\study\jpeg2000\visually_lossless_jpeg2000\modifiedkakadu\coresys\transform\multi_transform.cpp

; 813  :       for (int k=0; k < comp->num_buffer_rows; k++)

	mov	edx, DWORD PTR _comp$1$[ebp]
	add	eax, 12					; 0000000cH
	mov	ecx, DWORD PTR _k$1$[ebp]
	inc	ecx
	mov	DWORD PTR tv1229[ebp], eax
	mov	DWORD PTR _k$1$[ebp], ecx
	cmp	ecx, DWORD PTR [edx+96]
	mov	ecx, edx
	jl	$LL22@create_res
	mov	edi, DWORD PTR _this$1$[ebp]
	mov	edx, DWORD PTR _n$4$[ebp]
	mov	eax, DWORD PTR tv1228[ebp]
$LN17@create_res:

; 810  :   for (n=0; n < codestream_collection->num_components; n++)

	add	eax, 112				; 00000070H
	inc	edx
	mov	DWORD PTR tv1228[ebp], eax
	mov	eax, DWORD PTR [edi+20]
	mov	DWORD PTR _n$4$[ebp], edx
	cmp	edx, DWORD PTR [eax]
	mov	eax, DWORD PTR tv1228[ebp]
	jl	$LL19@create_res
$LN18@create_res:

; 815  :     }
; 816  :   for (block=xform_blocks; block != NULL; block=block->next)

	mov	esi, DWORD PTR [edi+8]
	mov	DWORD PTR _block$2$[ebp], esi
	test	esi, esi
	je	$LN24@create_res
	npad	5
$LL25@create_res:

; 817  :     for (n=0; n < block->num_components; n++)

	xor	ebx, ebx
	mov	DWORD PTR _n$5$[ebp], ebx
	cmp	DWORD PTR [esi+8], ebx
	jle	$LN23@create_res
	xor	edi, edi
	mov	DWORD PTR tv1227[ebp], edi
$LL28@create_res:

; 818  :       {
; 819  :         kd_multi_line *line = block->components + n;

	mov	ecx, DWORD PTR [esi+12]
	add	ecx, edi
	mov	DWORD PTR _line$1$[ebp], ecx

; 820  :         if (line->bypass == NULL)

	cmp	DWORD PTR [ecx+48], 0
	jne	$LN26@create_res
; File e:\study\jpeg2000\visually_lossless_jpeg2000\modifiedkakadu\coresys\common\kdu_sample_processing.h

; 370  :         if (!pre_created)

	cmp	BYTE PTR [ecx+7], 0
	je	SHORT $LN62@create_res

; 371  :           return;
; 372  :         pre_created = false;
; 373  :         if (flags & KD_LINE_BUF_SHORTS)
; 374  :           buf16 = allocator->alloc16(buf_before,width+buf_after);

	mov	ebx, DWORD PTR [ecx+8]
	movzx	edi, BYTE PTR [ecx+4]
	test	BYTE PTR [ecx+6], 2
	mov	BYTE PTR [ecx+7], 0

; 218  :         after = (after+7)&~7; // Round up to nearest multiple of 16 bytes.
; 219  :         kdu_sample16 *result = (kdu_sample16 *)(buffer+bytes_used);
; 220  :         result += before; bytes_used += (before+after)<<1;

	mov	edx, DWORD PTR [ebx+8]
	mov	eax, DWORD PTR [ebx+16]

; 371  :           return;
; 372  :         pre_created = false;
; 373  :         if (flags & KD_LINE_BUF_SHORTS)
; 374  :           buf16 = allocator->alloc16(buf_before,width+buf_after);

	movzx	ecx, BYTE PTR [ecx+5]
	je	SHORT $LN61@create_res

; 199  :           }
; 200  :         assert((bytes_reserved == 0) || (buffer != NULL));
; 201  :       }
; 202  :     kdu_sample16 *alloc16(int before, int after)
; 203  :       {
; 204  :       /* [SYNOPSIS]
; 205  :            Allocate an array with space for `before' entries prior to the
; 206  :            returned pointer and `after' entries after the returned pointer
; 207  :            (including the entry to which the pointer refers).  The returned
; 208  :            pointer is guaranteed to be aligned on a 16-byte boundary.
; 209  :            The pointer may be interpreted as the location of an array which
; 210  :            can accept signed indices, n, in the range -`before' <= n < `after'.
; 211  :            [//]
; 212  :            Before calling this function, you must have pre-allocated sufficient
; 213  :            space through calls to `pre_alloc' and you must have called the
; 214  :            `finalize' member function.
; 215  :       */
; 216  :         assert(!pre_creation_phase);
; 217  :         before = (before+7)&~7; // Round up to nearest multiple of 16 bytes.

	add	edi, 7
	and	edi, -8					; fffffff8H

; 218  :         after = (after+7)&~7; // Round up to nearest multiple of 16 bytes.
; 219  :         kdu_sample16 *result = (kdu_sample16 *)(buffer+bytes_used);
; 220  :         result += before; bytes_used += (before+after)<<1;

	lea	esi, DWORD PTR [eax+edi*2]
	mov	eax, DWORD PTR _line$1$[ebp]
	add	esi, edx
	mov	eax, DWORD PTR [eax]
	add	eax, 7
	add	eax, ecx
	and	eax, -8					; fffffff8H
	add	eax, edi
	lea	eax, DWORD PTR [edx+eax*2]

; 375  :         else

	jmp	SHORT $LN123@create_res
$LN61@create_res:

; 221  :         assert(bytes_used <= bytes_reserved);
; 222  :         return result;
; 223  :       }
; 224  :     kdu_sample32 *alloc32(int before, int after)
; 225  :       {
; 226  :       /* [SYNOPSIS]
; 227  :            Same as `alloc16', except that it allocates storage for arrays of
; 228  :            32-bit quantities.  Again, the returned pointer is guaranteed to
; 229  :            be aligned on a 16-byte boundary.
; 230  :       */
; 231  :         assert(!pre_creation_phase);
; 232  :         before = (before+3)&~3; // Round up to nearest multiple of 16 bytes.

	add	edi, 3
	and	edi, -4					; fffffffcH

; 233  :         after = (after+3)&~3; // Round up to nearest multiple of 16 bytes.
; 234  :         kdu_sample32 *result = (kdu_sample32 *)(buffer+bytes_used);
; 235  :         result += before; bytes_used += (before+after)<<2;

	lea	esi, DWORD PTR [eax+edi*4]
	mov	eax, DWORD PTR _line$1$[ebp]
	add	esi, edx
	mov	eax, DWORD PTR [eax]
	add	eax, 3
	add	eax, ecx
	and	eax, -4					; fffffffcH
	add	eax, edi
	lea	eax, DWORD PTR [edx+eax*4]
$LN123@create_res:

; 376  :           buf32 = allocator->alloc32(buf_before,width+buf_after);

	mov	ecx, DWORD PTR _line$1$[ebp]
	mov	edi, DWORD PTR tv1227[ebp]

; 233  :         after = (after+3)&~3; // Round up to nearest multiple of 16 bytes.
; 234  :         kdu_sample32 *result = (kdu_sample32 *)(buffer+bytes_used);
; 235  :         result += before; bytes_used += (before+after)<<2;

	mov	DWORD PTR [ebx+8], eax
	mov	ebx, DWORD PTR _n$5$[ebp]

; 376  :           buf32 = allocator->alloc32(buf_before,width+buf_after);

	mov	DWORD PTR [ecx+8], esi
	mov	esi, DWORD PTR _block$2$[ebp]
$LN62@create_res:
; File e:\study\jpeg2000\visually_lossless_jpeg2000\modifiedkakadu\coresys\transform\multi_transform.cpp

; 823  :             if (line->is_constant)

	cmp	BYTE PTR [ecx+35], 0
	je	SHORT $LN26@create_res
; File e:\study\jpeg2000\visually_lossless_jpeg2000\modifiedkakadu\coresys\transform\multi_transform_local.h

; 92   :     void initialize() { reset(rev_offset,irrev_offset); }

	movss	xmm0, DWORD PTR [ecx+44]
	push	ecx
	movss	DWORD PTR [esp], xmm0
	push	DWORD PTR [ecx+40]
	call	?reset@kd_multi_line@@QAEXHM@Z		; kd_multi_line::reset
$LN26@create_res:
; File e:\study\jpeg2000\visually_lossless_jpeg2000\modifiedkakadu\coresys\transform\multi_transform.cpp

; 817  :     for (n=0; n < block->num_components; n++)

	inc	ebx
	add	edi, 60					; 0000003cH
	mov	DWORD PTR _n$5$[ebp], ebx
	mov	DWORD PTR tv1227[ebp], edi
	cmp	ebx, DWORD PTR [esi+8]
	jl	$LL28@create_res
$LN23@create_res:

; 815  :     }
; 816  :   for (block=xform_blocks; block != NULL; block=block->next)

	mov	esi, DWORD PTR [esi+32]
	mov	DWORD PTR _block$2$[ebp], esi
	test	esi, esi
	jne	$LL25@create_res
	mov	edi, DWORD PTR _this$1$[ebp]
$LN24@create_res:

; 827  :   for (n=0; n < output_collection->num_components; n++)

	mov	eax, DWORD PTR [edi+24]
	xor	ebx, ebx
	mov	DWORD PTR _n$6$[ebp], ebx
	cmp	DWORD PTR [eax], ebx
	jle	$LN30@create_res
$LL31@create_res:

; 828  :     {
; 829  :       kd_multi_line *line = output_collection->components[n];

	mov	eax, DWORD PTR [eax+4]
	mov	ecx, DWORD PTR [eax+ebx*4]
	mov	DWORD PTR _line$1$[ebp], ecx

; 830  :       if ((line->bypass == NULL) && (line->block == NULL) &&

	cmp	DWORD PTR [ecx+48], 0
	jne	$LN29@create_res
	cmp	DWORD PTR [ecx+52], 0
	jne	$LN29@create_res
	cmp	DWORD PTR [ecx+56], 0
	jge	$LN29@create_res
; File e:\study\jpeg2000\visually_lossless_jpeg2000\modifiedkakadu\coresys\common\kdu_sample_processing.h

; 370  :         if (!pre_created)

	cmp	BYTE PTR [ecx+7], 0
	je	SHORT $LN73@create_res

; 371  :           return;
; 372  :         pre_created = false;
; 373  :         if (flags & KD_LINE_BUF_SHORTS)
; 374  :           buf16 = allocator->alloc16(buf_before,width+buf_after);

	mov	ebx, DWORD PTR [ecx+8]
	movzx	edi, BYTE PTR [ecx+4]
	test	BYTE PTR [ecx+6], 2
	mov	BYTE PTR [ecx+7], 0

; 218  :         after = (after+7)&~7; // Round up to nearest multiple of 16 bytes.
; 219  :         kdu_sample16 *result = (kdu_sample16 *)(buffer+bytes_used);
; 220  :         result += before; bytes_used += (before+after)<<1;

	mov	edx, DWORD PTR [ebx+8]
	mov	eax, DWORD PTR [ebx+16]

; 371  :           return;
; 372  :         pre_created = false;
; 373  :         if (flags & KD_LINE_BUF_SHORTS)
; 374  :           buf16 = allocator->alloc16(buf_before,width+buf_after);

	movzx	ecx, BYTE PTR [ecx+5]
	je	SHORT $LN72@create_res

; 199  :           }
; 200  :         assert((bytes_reserved == 0) || (buffer != NULL));
; 201  :       }
; 202  :     kdu_sample16 *alloc16(int before, int after)
; 203  :       {
; 204  :       /* [SYNOPSIS]
; 205  :            Allocate an array with space for `before' entries prior to the
; 206  :            returned pointer and `after' entries after the returned pointer
; 207  :            (including the entry to which the pointer refers).  The returned
; 208  :            pointer is guaranteed to be aligned on a 16-byte boundary.
; 209  :            The pointer may be interpreted as the location of an array which
; 210  :            can accept signed indices, n, in the range -`before' <= n < `after'.
; 211  :            [//]
; 212  :            Before calling this function, you must have pre-allocated sufficient
; 213  :            space through calls to `pre_alloc' and you must have called the
; 214  :            `finalize' member function.
; 215  :       */
; 216  :         assert(!pre_creation_phase);
; 217  :         before = (before+7)&~7; // Round up to nearest multiple of 16 bytes.

	add	edi, 7
	and	edi, -8					; fffffff8H

; 218  :         after = (after+7)&~7; // Round up to nearest multiple of 16 bytes.
; 219  :         kdu_sample16 *result = (kdu_sample16 *)(buffer+bytes_used);
; 220  :         result += before; bytes_used += (before+after)<<1;

	lea	esi, DWORD PTR [eax+edi*2]
	mov	eax, DWORD PTR _line$1$[ebp]
	add	esi, edx
	mov	eax, DWORD PTR [eax]
	add	eax, 7
	add	eax, ecx
	and	eax, -8					; fffffff8H
	add	eax, edi
	lea	eax, DWORD PTR [edx+eax*2]

; 375  :         else

	jmp	SHORT $LN124@create_res
$LN72@create_res:

; 221  :         assert(bytes_used <= bytes_reserved);
; 222  :         return result;
; 223  :       }
; 224  :     kdu_sample32 *alloc32(int before, int after)
; 225  :       {
; 226  :       /* [SYNOPSIS]
; 227  :            Same as `alloc16', except that it allocates storage for arrays of
; 228  :            32-bit quantities.  Again, the returned pointer is guaranteed to
; 229  :            be aligned on a 16-byte boundary.
; 230  :       */
; 231  :         assert(!pre_creation_phase);
; 232  :         before = (before+3)&~3; // Round up to nearest multiple of 16 bytes.

	add	edi, 3
	and	edi, -4					; fffffffcH

; 233  :         after = (after+3)&~3; // Round up to nearest multiple of 16 bytes.
; 234  :         kdu_sample32 *result = (kdu_sample32 *)(buffer+bytes_used);
; 235  :         result += before; bytes_used += (before+after)<<2;

	lea	esi, DWORD PTR [eax+edi*4]
	mov	eax, DWORD PTR _line$1$[ebp]
	add	esi, edx
	mov	eax, DWORD PTR [eax]
	add	eax, 3
	add	eax, ecx
	and	eax, -4					; fffffffcH
	add	eax, edi
	lea	eax, DWORD PTR [edx+eax*4]
$LN124@create_res:

; 376  :           buf32 = allocator->alloc32(buf_before,width+buf_after);

	mov	ecx, DWORD PTR _line$1$[ebp]
	mov	edi, DWORD PTR _this$1$[ebp]

; 233  :         after = (after+3)&~3; // Round up to nearest multiple of 16 bytes.
; 234  :         kdu_sample32 *result = (kdu_sample32 *)(buffer+bytes_used);
; 235  :         result += before; bytes_used += (before+after)<<2;

	mov	DWORD PTR [ebx+8], eax
	mov	ebx, DWORD PTR _n$6$[ebp]

; 376  :           buf32 = allocator->alloc32(buf_before,width+buf_after);

	mov	DWORD PTR [ecx+8], esi
$LN73@create_res:
; File e:\study\jpeg2000\visually_lossless_jpeg2000\modifiedkakadu\coresys\transform\multi_transform_local.h

; 92   :     void initialize() { reset(rev_offset,irrev_offset); }

	movss	xmm0, DWORD PTR [ecx+44]
	push	ecx
	movss	DWORD PTR [esp], xmm0
	push	DWORD PTR [ecx+40]
	call	?reset@kd_multi_line@@QAEXHM@Z		; kd_multi_line::reset
$LN29@create_res:
; File e:\study\jpeg2000\visually_lossless_jpeg2000\modifiedkakadu\coresys\transform\multi_transform.cpp

; 827  :   for (n=0; n < output_collection->num_components; n++)

	mov	eax, DWORD PTR [edi+24]
	inc	ebx
	mov	DWORD PTR _n$6$[ebp], ebx
	cmp	ebx, DWORD PTR [eax]
	jl	$LL31@create_res
$LN30@create_res:

; 831  :           (line->collection_idx < 0))
; 832  :         {
; 833  :           line->line.create();
; 834  :           assert(line->is_constant);
; 835  :           line->initialize();
; 836  :         }
; 837  :     }
; 838  : }

	mov	ecx, DWORD PTR __$EHRec$[ebp]
	mov	DWORD PTR fs:0, ecx
	pop	ecx
	pop	edi
	pop	esi
	pop	ebx
	mov	esp, ebp
	pop	ebp
	ret	0
_TEXT	ENDS
;	COMDAT text$x
text$x	SEGMENT
__unwindfunclet$?create_resources@kd_multi_transform@@IAEXXZ$0:
	lea	ecx, DWORD PTR _e$2[ebp]
	jmp	??1kdu_error@@UAE@XZ			; kdu_error::~kdu_error
__ehhandler$?create_resources@kd_multi_transform@@IAEXXZ:
	mov	edx, DWORD PTR [esp+8]
	lea	eax, DWORD PTR [edx+12]
	mov	ecx, DWORD PTR [edx-64]
	xor	ecx, eax
	call	@__security_check_cookie@4
	mov	eax, OFFSET __ehfuncinfo$?create_resources@kd_multi_transform@@IAEXXZ
	jmp	___CxxFrameHandler3
text$x	ENDS
?create_resources@kd_multi_transform@@IAEXXZ ENDP	; kd_multi_transform::create_resources
; Function compile flags: /Ogtp
; File e:\study\jpeg2000\visually_lossless_jpeg2000\modifiedkakadu\coresys\transform\multi_transform.cpp
; File e:\study\jpeg2000\visually_lossless_jpeg2000\modifiedkakadu\coresys\transform\multi_transform_local.h
; File e:\study\jpeg2000\visually_lossless_jpeg2000\modifiedkakadu\coresys\transform\multi_transform.cpp
; File e:\study\jpeg2000\visually_lossless_jpeg2000\modifiedkakadu\coresys\common\kdu_compressed.h
; File e:\study\jpeg2000\visually_lossless_jpeg2000\modifiedkakadu\coresys\transform\multi_transform.cpp
; File e:\study\jpeg2000\visually_lossless_jpeg2000\modifiedkakadu\coresys\common\kdu_sample_processing.h
; File e:\study\jpeg2000\visually_lossless_jpeg2000\modifiedkakadu\coresys\transform\multi_transform.cpp
; File e:\study\jpeg2000\visually_lossless_jpeg2000\modifiedkakadu\coresys\transform\multi_transform_local.h
; File e:\study\jpeg2000\visually_lossless_jpeg2000\modifiedkakadu\coresys\transform\multi_transform.cpp
; File e:\study\jpeg2000\visually_lossless_jpeg2000\modifiedkakadu\coresys\transform\multi_transform_local.h
; File e:\study\jpeg2000\visually_lossless_jpeg2000\modifiedkakadu\coresys\transform\multi_transform.cpp
; File e:\study\jpeg2000\visually_lossless_jpeg2000\modifiedkakadu\coresys\transform\multi_transform_local.h
; File e:\study\jpeg2000\visually_lossless_jpeg2000\modifiedkakadu\coresys\transform\multi_transform.cpp
; File e:\study\jpeg2000\visually_lossless_jpeg2000\modifiedkakadu\coresys\transform\multi_transform_local.h
; File e:\study\jpeg2000\visually_lossless_jpeg2000\modifiedkakadu\coresys\transform\multi_transform.cpp
; File e:\study\jpeg2000\visually_lossless_jpeg2000\modifiedkakadu\coresys\transform\multi_transform_local.h
; File e:\study\jpeg2000\visually_lossless_jpeg2000\modifiedkakadu\coresys\transform\multi_transform.cpp
; File e:\study\jpeg2000\visually_lossless_jpeg2000\modifiedkakadu\coresys\transform\multi_transform_local.h
; File e:\study\jpeg2000\visually_lossless_jpeg2000\modifiedkakadu\coresys\transform\multi_transform.cpp
; File e:\study\jpeg2000\visually_lossless_jpeg2000\modifiedkakadu\coresys\common\kdu_sample_processing.h
; File e:\study\jpeg2000\visually_lossless_jpeg2000\modifiedkakadu\coresys\common\kdu_compressed.h
; File e:\study\jpeg2000\visually_lossless_jpeg2000\modifiedkakadu\coresys\transform\multi_transform_local.h
; File e:\study\jpeg2000\visually_lossless_jpeg2000\modifiedkakadu\coresys\transform\multi_transform.cpp
;	COMDAT ?construct@kd_multi_transform@@IAEXVkdu_codestream@@Vkdu_tile@@_N22HPAVkdu_thread_env@@PAUkdu_thread_queue@@2@Z
_TEXT	SEGMENT
_dims$2 = -88						; size = 16
_dims$3 = -72						; size = 16
_num_steps$4 = -56					; size = 4
$T5 = -56						; size = 4
$T6 = -56						; size = 4
_this$1$ = -52						; size = 4
_canvas_lim$7 = -48					; size = 4
_res$8 = -48						; size = 4
$T9 = -48						; size = 4
_tmp_comp_indices$1$ = -44				; size = 4
_canvas_min$10 = -44					; size = 4
tv2663 = -40						; size = 4
_num_levels$11 = -40					; size = 4
$T12 = -36						; size = 8
$T13 = -32						; size = 4
_num_block_inputs$ = -28				; size = 4
_num_block_outputs$ = -24				; size = 4
_num_stage_outputs$ = -20				; size = 4
_num_stage_inputs$ = -16				; size = 4
__$EHRec$ = -12						; size = 12
_codestream$ = 8					; size = 4
_tile$ = 12						; size = 4
_force_precise$ = 16					; size = 1
_num_constant_output_lines$1$ = 20			; size = 4
_tc$14 = 20						; size = 4
$T15 = 20						; size = 4
_skip_ycc$ = 20						; size = 1
_block_is_reversible$16 = 23				; size = 1
tv2660 = 24						; size = 4
tv2658 = 24						; size = 4
tv2639 = 24						; size = 4
$T17 = 24						; size = 4
_want_fastest$ = 24					; size = 1
_symmetric_ext$18 = 27					; size = 1
_dwt_coeffs$19 = 28					; size = 4
_processing_stripe_height$ = 28				; size = 4
$T20 = 32						; size = 4
_env$ = 32						; size = 4
_n$2$ = 36						; size = 4
$T21 = 36						; size = 4
$T22 = 36						; size = 4
$T23 = 36						; size = 4
$T24 = 36						; size = 4
$T25 = 36						; size = 4
$T26 = 36						; size = 4
_env_queue$ = 36					; size = 4
_double_buffering$ = 40					; size = 1
_symmetric$27 = 43					; size = 1
?construct@kd_multi_transform@@IAEXVkdu_codestream@@Vkdu_tile@@_N22HPAVkdu_thread_env@@PAUkdu_thread_queue@@2@Z PROC ; kd_multi_transform::construct, COMDAT
; _this$ = ecx

; 313  : {

	push	ebp
	mov	ebp, esp
	push	-1
	push	__ehhandler$?construct@kd_multi_transform@@IAEXVkdu_codestream@@Vkdu_tile@@_N22HPAVkdu_thread_env@@PAUkdu_thread_queue@@2@Z
	mov	eax, DWORD PTR fs:0
	push	eax
	sub	esp, 76					; 0000004cH
	push	ebx
	push	esi
	push	edi
	mov	eax, DWORD PTR ___security_cookie
	xor	eax, ebp
	push	eax
	lea	eax, DWORD PTR __$EHRec$[ebp]
	mov	DWORD PTR fs:0, eax
	mov	ebx, ecx
	mov	DWORD PTR _this$1$[ebp], ebx

; 314  :   this->use_ycc = (!skip_ycc) && tile.get_ycc();

	cmp	BYTE PTR _skip_ycc$[ebp], 0
	jne	SHORT $LN100@construct
	lea	ecx, DWORD PTR _tile$[ebp]
	call	?get_ycc@kdu_tile@@QAE_NXZ		; kdu_tile::get_ycc
	test	al, al
	je	SHORT $LN100@construct
	mov	eax, 1
	jmp	SHORT $LN101@construct
$LN100@construct:
	xor	eax, eax
$LN101@construct:

; 321  :   kd_multi_collection *collection = new kd_multi_collection;

	push	16					; 00000010H
	mov	BYTE PTR [ebx+4], al
	call	??2@YAPAXI@Z				; operator new
	mov	esi, eax
	mov	DWORD PTR $T13[ebp], eax
	add	esp, 4
	test	esi, esi
	je	SHORT $LN102@construct
; File e:\study\jpeg2000\visually_lossless_jpeg2000\modifiedkakadu\coresys\transform\multi_transform_local.h

; 614  :       { num_components=0;  components=NULL;  next=prev=NULL; }

	mov	DWORD PTR [esi], 0
	mov	DWORD PTR [esi+4], 0
	mov	DWORD PTR [esi+12], 0
	mov	DWORD PTR [esi+8], 0
; File e:\study\jpeg2000\visually_lossless_jpeg2000\modifiedkakadu\coresys\transform\multi_transform.cpp

; 321  :   kd_multi_collection *collection = new kd_multi_collection;

	jmp	SHORT $LN103@construct
$LN102@construct:
	xor	esi, esi
	mov	DWORD PTR $T13[ebp], esi
$LN103@construct:

; 322  :   codestream_collection = output_collection = collection;
; 323  :   if (!tile.get_mct_block_info(0,0,num_stage_inputs,num_stage_outputs,

	push	0
	push	0
	push	0
	push	0
	push	0
	lea	eax, DWORD PTR _num_block_outputs$[ebp]
	mov	DWORD PTR [ebx+24], esi
	push	eax
	lea	eax, DWORD PTR _num_block_inputs$[ebp]
	mov	DWORD PTR [ebx+20], esi
	push	eax
	lea	eax, DWORD PTR _num_stage_outputs$[ebp]
	push	eax
	lea	eax, DWORD PTR _num_stage_inputs$[ebp]
	push	eax
	push	0
	push	0
	lea	ecx, DWORD PTR _tile$[ebp]
	call	?get_mct_block_info@kdu_tile@@QAE_NHHAAH000PAH1PAM11@Z ; kdu_tile::get_mct_block_info

; 324  :                                num_block_inputs,num_block_outputs))
; 325  :     assert(0); // Codestream machinery always defines at least one (dummy)
; 326  :                // stage, for simplicity;
; 327  :   collection->num_components = num_stage_inputs;

	mov	eax, DWORD PTR _num_stage_inputs$[ebp]

; 328  :   collection->components = new kd_multi_line *[num_stage_inputs];

	xor	ecx, ecx
	mov	DWORD PTR [esi], eax
	mov	edx, 4
	mov	eax, DWORD PTR _num_stage_inputs$[ebp]
	mul	edx
	seto	cl
	neg	ecx
	or	ecx, eax
	push	ecx
	call	??_U@YAPAXI@Z				; operator new[]
	mov	DWORD PTR [esi+4], eax

; 329  :   codestream_components = new kd_multi_component[num_stage_inputs];

	xor	ecx, ecx
	mov	edi, DWORD PTR _num_stage_inputs$[ebp]
	mov	edx, 112				; 00000070H
	mov	eax, edi
	mov	DWORD PTR $T15[ebp], edi
	mul	edx
	seto	cl
	neg	ecx
	or	ecx, eax
	xor	eax, eax
	add	ecx, 4
	setb	al
	neg	eax
	or	eax, ecx
	push	eax
	call	??_U@YAPAXI@Z				; operator new[]
	add	esp, 8
	mov	DWORD PTR $T9[ebp], eax
	mov	DWORD PTR __$EHRec$[ebp+8], 0
	test	eax, eax
	je	SHORT $LN104@construct
	push	OFFSET ??1kd_multi_component@@UAE@XZ	; kd_multi_component::~kd_multi_component
	push	OFFSET ??0kd_multi_component@@QAE@XZ	; kd_multi_component::kd_multi_component
	push	edi
	lea	esi, DWORD PTR [eax+4]
	mov	DWORD PTR [eax], edi
	push	112					; 00000070H
	push	esi
	call	??_L@YGXPAXIIP6EX0@Z1@Z
	jmp	SHORT $LN105@construct
$LN104@construct:
	xor	esi, esi
$LN105@construct:

; 330  :   if (env != NULL)

	mov	edi, DWORD PTR _env$[ebp]

; 333  :       for (n=0; n < num_stage_inputs; n++)

	mov	eax, DWORD PTR _num_stage_inputs$[ebp]
	mov	DWORD PTR __$EHRec$[ebp+8], -1
	mov	DWORD PTR [ebx+16], esi
	test	edi, edi
	je	SHORT $LN3@construct
	mov	ecx, DWORD PTR _env_queue$[ebp]
	xor	edi, edi
	mov	DWORD PTR [ebx+56], ecx
	test	eax, eax
	jle	SHORT $LN409@construct

; 331  :     {
; 332  :       this->env_queue = env_queue;

	xor	esi, esi
$LL4@construct:

; 334  :         codestream_components[n].env_queue =

	mov	eax, DWORD PTR [ebx+16]
	push	0
	push	0
	push	OFFSET ??_C@_0BE@DHNHLPAL@component?5processor?$AA@
	push	ecx
	mov	ecx, DWORD PTR _env$[ebp]
	add	eax, esi
	push	eax
	call	?add_queue@kdu_thread_entity@@QAEPAUkdu_thread_queue@@PAVkdu_worker@@PAU2@PBD_J@Z ; kdu_thread_entity::add_queue
	mov	ecx, DWORD PTR [ebx+16]
	inc	edi
	mov	DWORD PTR [ecx+esi+8], eax
	add	esi, 112				; 00000070H
	mov	eax, DWORD PTR _num_stage_inputs$[ebp]
	mov	ecx, DWORD PTR _env_queue$[ebp]
	cmp	edi, eax
	jl	SHORT $LL4@construct
$LN409@construct:
	mov	edi, DWORD PTR _env$[ebp]
$LN3@construct:

; 335  :           env->add_queue(codestream_components+n,env_queue,
; 336  :                          "component processor");
; 337  :     }
; 338  :   int *tmp_comp_indices = get_scratch_ints(num_stage_inputs);

	push	eax
	mov	ecx, ebx
	call	?get_scratch_ints@kd_multi_transform@@QAEPAHH@Z ; kd_multi_transform::get_scratch_ints

; 339  :   tile.get_mct_block_info(0,0,num_stage_inputs,num_stage_outputs,

	push	eax
	push	0
	push	0
	push	0
	push	0
	mov	DWORD PTR _tmp_comp_indices$1$[ebp], eax
	lea	ecx, DWORD PTR _tile$[ebp]
	lea	eax, DWORD PTR _num_block_outputs$[ebp]
	push	eax
	lea	eax, DWORD PTR _num_block_inputs$[ebp]
	push	eax
	lea	eax, DWORD PTR _num_stage_outputs$[ebp]
	push	eax
	lea	eax, DWORD PTR _num_stage_inputs$[ebp]
	push	eax
	push	0
	push	0
	call	?get_mct_block_info@kdu_tile@@QAE_NHHAAH000PAH1PAM11@Z ; kdu_tile::get_mct_block_info

; 340  :                           num_block_inputs,num_block_outputs,
; 341  :                           NULL,NULL,NULL,NULL,tmp_comp_indices);
; 342  :   for (n=0; n < num_stage_inputs; n++)

	xor	edx, edx
	mov	DWORD PTR _n$2$[ebp], edx
	cmp	DWORD PTR _num_stage_inputs$[ebp], edx
	jle	$LN6@construct

; 335  :           env->add_queue(codestream_components+n,env_queue,
; 336  :                          "component processor");
; 337  :     }
; 338  :   int *tmp_comp_indices = get_scratch_ints(num_stage_inputs);

	xor	eax, eax
	mov	DWORD PTR tv2663[ebp], eax
	npad	7
$LL7@construct:

; 343  :     {
; 344  :       kd_multi_component *comp = codestream_components + n;

	mov	esi, DWORD PTR [ebx+16]
	add	esi, eax

; 345  :       comp->comp_idx = tmp_comp_indices[n];

	mov	eax, DWORD PTR _tmp_comp_indices$1$[ebp]
	mov	eax, DWORD PTR [eax+edx*4]

; 346  :       collection->components[n] = &(comp->line);

	lea	ecx, DWORD PTR [esi+12]
	mov	DWORD PTR [esi+4], eax
	mov	eax, DWORD PTR $T13[ebp]
	mov	eax, DWORD PTR [eax+4]
	mov	DWORD PTR [eax+edx*4], ecx

; 347  :       comp->line.collection_idx = n;
; 348  :       kdu_tile_comp tc =
; 349  :         tile.access_component(comp->comp_idx);

	lea	eax, DWORD PTR _tc$14[ebp]
	push	DWORD PTR [esi+4]
	lea	ecx, DWORD PTR _tile$[ebp]
	mov	DWORD PTR [esi+68], edx
	push	eax
	call	?access_component@kdu_tile@@QAE?AVkdu_tile_comp@@H@Z ; kdu_tile::access_component

; 350  :       if (tc.get_reversible())

	lea	ecx, DWORD PTR _tc$14[ebp]
	call	?get_reversible@kdu_tile_comp@@QAE_NXZ	; kdu_tile_comp::get_reversible
	test	al, al
	je	SHORT $LN63@construct

; 351  :         comp->line.reversible = true;

	mov	BYTE PTR [esi+44], 1

; 352  :       else

	jmp	SHORT $LN64@construct
$LN63@construct:

; 353  :         comp->line.need_irreversible = true;

	mov	BYTE PTR [esi+45], 1
$LN64@construct:

; 354  : 
; 355  :       if (force_precise)

	cmp	BYTE PTR _force_precise$[ebp], 0
	je	SHORT $LN65@construct

; 356  :         comp->line.need_precise = true;

	mov	BYTE PTR [esi+46], 1
	jmp	SHORT $LN70@construct
$LN65@construct:

; 357  :       else if (tc.get_bit_depth(true) <= 16)

	push	1
	lea	ecx, DWORD PTR _tc$14[ebp]
	call	?get_bit_depth@kdu_tile_comp@@QAEH_N@Z	; kdu_tile_comp::get_bit_depth
	cmp	eax, 16					; 00000010H
	jg	SHORT $LN67@construct

; 358  :         comp->line.need_precise = false;

	mov	BYTE PTR [esi+46], 0
	jmp	SHORT $LN70@construct
$LN67@construct:

; 359  :       else if (comp->line.reversible)

	cmp	BYTE PTR [esi+44], 0
	je	SHORT $LN69@construct

; 360  :         comp->line.need_precise = true;

	mov	BYTE PTR [esi+46], 1

; 361  :       else

	jmp	SHORT $LN70@construct
$LN69@construct:

; 362  :         comp->line.need_precise = !want_fastest;

	cmp	BYTE PTR _want_fastest$[ebp], 0
	sete	al
	mov	BYTE PTR [esi+46], al
$LN70@construct:

; 363  : 
; 364  :       comp->line.bit_depth = tc.get_bit_depth(false);

	push	0
	lea	ecx, DWORD PTR _tc$14[ebp]
	call	?get_bit_depth@kdu_tile_comp@@QAEH_N@Z	; kdu_tile_comp::get_bit_depth
	mov	DWORD PTR [esi+48], eax

; 365  :       kdu_resolution res = tc.access_resolution();

	lea	ecx, DWORD PTR _tc$14[ebp]
	lea	eax, DWORD PTR _res$8[ebp]
	push	eax
	call	?access_resolution@kdu_tile_comp@@QAE?AVkdu_resolution@@XZ ; kdu_tile_comp::access_resolution

; 366  :       kdu_dims dims; res.get_dims(dims);

	lea	eax, DWORD PTR _dims$3[ebp]
	xorps	xmm0, xmm0
	push	eax
	lea	ecx, DWORD PTR _res$8[ebp]
	movups	XMMWORD PTR _dims$3[ebp], xmm0
	call	?get_dims@kdu_resolution@@QAEXAAUkdu_dims@@@Z ; kdu_resolution::get_dims

; 367  :       comp->line.size = dims.size;

	mov	eax, DWORD PTR _dims$3[ebp+8]
	mov	DWORD PTR [esi+24], eax
	mov	eax, DWORD PTR _dims$3[ebp+12]
	mov	DWORD PTR [esi+28], eax

; 368  :       comp->double_buffering =

	test	edi, edi
	je	SHORT $LN106@construct
	mov	ecx, edi
	call	?get_num_threads@kdu_thread_entity@@QAEHXZ ; kdu_thread_entity::get_num_threads
	cmp	eax, 2
	jl	SHORT $LN106@construct
	cmp	DWORD PTR _num_stage_inputs$[ebp], 2
	jl	SHORT $LN106@construct
; File e:\study\jpeg2000\visually_lossless_jpeg2000\modifiedkakadu\coresys\common\kdu_compressed.h

; 380  :       { return ((size.x>0)&&(size.y>0))?false:true; }

	cmp	DWORD PTR _dims$3[ebp+12], 0
	jle	SHORT $LN106@construct
	cmp	DWORD PTR _dims$3[ebp+8], 0
	jle	SHORT $LN106@construct
; File e:\study\jpeg2000\visually_lossless_jpeg2000\modifiedkakadu\coresys\transform\multi_transform.cpp

; 368  :       comp->double_buffering =

	mov	al, BYTE PTR _double_buffering$[ebp]
	jmp	SHORT $LN107@construct
$LN106@construct:
	xor	al, al
$LN107@construct:

; 369  :         ((env==NULL) || (env->get_num_threads() < 2) ||
; 370  :          (num_stage_inputs < 2) || !dims)?false:double_buffering;
; 371  :       comp->max_available_rows=comp->num_buffer_rows=processing_stripe_height;

	mov	ecx, DWORD PTR _processing_stripe_height$[ebp]
	mov	BYTE PTR [esi+72], al
	mov	DWORD PTR [esi+96], ecx
	mov	DWORD PTR [esi+92], ecx

; 372  :       if (comp->double_buffering)

	test	al, al
	je	SHORT $LN71@construct

; 373  :         comp->num_buffer_rows *= 2;

	lea	eax, DWORD PTR [ecx+ecx]
	mov	DWORD PTR [esi+96], eax
	jmp	SHORT $LN73@construct
$LN71@construct:

; 374  :       else if (env != NULL)

	test	edi, edi
	je	SHORT $LN73@construct

; 375  :         env->add_jobs(comp->env_queue,0,true); // Make it clear that no jobs

	push	0
	push	1
	push	0
	push	DWORD PTR [esi+8]
	mov	ecx, edi
	call	?add_jobs@kdu_thread_entity@@QAEXPAUkdu_thread_queue@@H_NI@Z ; kdu_thread_entity::add_jobs
$LN73@construct:

; 376  :                                                // will be added to this queue.
; 377  :       if (comp->num_buffer_rows > comp->line.size.y)

	mov	eax, DWORD PTR [esi+24]
	cmp	DWORD PTR [esi+96], eax
	jle	SHORT $LN75@construct

; 378  :         {
; 379  :           comp->num_buffer_rows = comp->line.size.y;
; 380  :           comp->max_available_rows = comp->num_buffer_rows;
; 381  :           if (comp->double_buffering)

	cmp	BYTE PTR [esi+72], 0
	mov	DWORD PTR [esi+96], eax
	mov	DWORD PTR [esi+92], eax
	je	SHORT $LN75@construct

; 382  :             comp->max_available_rows = (comp->num_buffer_rows+1)>>1;

	inc	eax
	sar	eax, 1
	mov	DWORD PTR [esi+92], eax
$LN75@construct:

; 384  :       comp->buffer = new kdu_line_buf[comp->num_buffer_rows];

	mov	edi, DWORD PTR [esi+96]
	xor	ecx, ecx
	mov	eax, edi
	mov	DWORD PTR $T6[ebp], edi
	mov	edx, 12					; 0000000cH
	mul	edx
	seto	cl
	neg	ecx
	or	ecx, eax
	push	ecx
	call	??_U@YAPAXI@Z				; operator new[]
	add	esp, 4
	mov	DWORD PTR $T5[ebp], eax
	test	eax, eax
	je	SHORT $LN108@construct
	test	edi, edi
	je	SHORT $LN109@construct
	lea	ecx, DWORD PTR [eax+7]
	npad	1
$LL151@construct:
; File e:\study\jpeg2000\visually_lossless_jpeg2000\modifiedkakadu\coresys\common\kdu_sample_processing.h

; 386  :         width=0; flags=0; pre_created=false;

	mov	DWORD PTR [ecx-7], 0
	lea	ecx, DWORD PTR [ecx+12]
	mov	WORD PTR [ecx-13], 0

; 387  :         allocator=NULL; buf16=NULL; buf32=NULL;

	mov	DWORD PTR [ecx-11], 0
	sub	edi, 1
	jne	SHORT $LL151@construct
; File e:\study\jpeg2000\visually_lossless_jpeg2000\modifiedkakadu\coresys\transform\multi_transform.cpp

; 384  :       comp->buffer = new kdu_line_buf[comp->num_buffer_rows];

	jmp	SHORT $LN109@construct
$LN108@construct:
	xor	eax, eax
$LN109@construct:

; 340  :                           num_block_inputs,num_block_outputs,
; 341  :                           NULL,NULL,NULL,NULL,tmp_comp_indices);
; 342  :   for (n=0; n < num_stage_inputs; n++)

	mov	edx, DWORD PTR _n$2$[ebp]
	mov	edi, DWORD PTR _env$[ebp]
	inc	edx

; 384  :       comp->buffer = new kdu_line_buf[comp->num_buffer_rows];

	mov	DWORD PTR [esi+100], eax
	mov	eax, DWORD PTR tv2663[ebp]
	add	eax, 112				; 00000070H
	mov	DWORD PTR _n$2$[ebp], edx
	mov	DWORD PTR tv2663[ebp], eax
	cmp	edx, DWORD PTR _num_stage_inputs$[ebp]
	jl	$LL7@construct
$LN6@construct:

; 385  :     }
; 386  : 
; 387  :   // Now configure the remaining component collections and transform blocks.
; 388  :   int s, b;
; 389  :   kd_multi_block *block;
; 390  :   for (s=0; tile.get_mct_block_info(s,0,num_stage_inputs,num_stage_outputs,

	xor	edi, edi
	lea	eax, DWORD PTR _num_block_outputs$[ebp]
	push	edi
	push	edi
	push	edi
	push	edi
	push	edi
	push	eax
	lea	eax, DWORD PTR _num_block_inputs$[ebp]
	push	eax
	lea	eax, DWORD PTR _num_stage_outputs$[ebp]
	push	eax
	lea	eax, DWORD PTR _num_stage_inputs$[ebp]
	push	eax
	push	edi
	push	edi
	lea	ecx, DWORD PTR _tile$[ebp]
	call	?get_mct_block_info@kdu_tile@@QAE_NHHAAH000PAH1PAM11@Z ; kdu_tile::get_mct_block_info
	test	al, al
	je	$LN9@construct
$LL10@construct:

; 394  :       collection = new kd_multi_collection;

	push	16					; 00000010H
	call	??2@YAPAXI@Z				; operator new
	mov	esi, eax
	mov	DWORD PTR $T20[ebp], eax
	add	esp, 4
	mov	DWORD PTR $T26[ebp], esi
	test	esi, esi
	je	SHORT $LN110@construct
; File e:\study\jpeg2000\visually_lossless_jpeg2000\modifiedkakadu\coresys\transform\multi_transform_local.h

; 614  :       { num_components=0;  components=NULL;  next=prev=NULL; }

	mov	DWORD PTR [esi], 0
	mov	DWORD PTR [esi+4], 0
	mov	DWORD PTR [esi+12], 0
	mov	DWORD PTR [esi+8], 0
; File e:\study\jpeg2000\visually_lossless_jpeg2000\modifiedkakadu\coresys\transform\multi_transform.cpp

; 394  :       collection = new kd_multi_collection;

	jmp	SHORT $LN111@construct
$LN110@construct:
	xor	esi, esi
	mov	DWORD PTR $T20[ebp], esi
$LN111@construct:

; 395  :       collection->prev = output_collection;

	mov	eax, DWORD PTR [ebx+24]

; 396  :       output_collection = output_collection->next = collection;
; 397  :       collection->num_components = num_stage_outputs;
; 398  :       collection->components = new kd_multi_line *[num_stage_outputs];

	xor	ecx, ecx
	mov	DWORD PTR [esi+12], eax
	mov	edx, 4
	mov	eax, DWORD PTR [ebx+24]
	mov	DWORD PTR [eax+8], esi
	mov	eax, DWORD PTR _num_stage_outputs$[ebp]
	mov	DWORD PTR [ebx+24], esi
	mov	DWORD PTR [esi], eax
	mov	eax, DWORD PTR _num_stage_outputs$[ebp]
	mul	edx
	seto	cl
	neg	ecx
	or	ecx, eax
	push	ecx
	call	??_U@YAPAXI@Z				; operator new[]

; 399  :       for (n=0; n < num_stage_outputs; n++)

	xor	ecx, ecx
	mov	DWORD PTR [esi+4], eax
	add	esp, 4
	cmp	DWORD PTR _num_stage_outputs$[ebp], ecx
	jle	SHORT $LN12@construct
	npad	6
$LL13@construct:

; 400  :         collection->components[n] = NULL;

	mov	eax, DWORD PTR [esi+4]
	mov	DWORD PTR [eax+ecx*4], 0
	inc	ecx
	cmp	ecx, DWORD PTR _num_stage_outputs$[ebp]
	jl	SHORT $LL13@construct
$LN12@construct:

; 401  : 
; 402  :       b = 0;

	xor	esi, esi
$LL16@construct:

; 403  :       do {
; 404  :           bool block_is_reversible, symmetric, symmetric_ext;
; 405  :           int num_levels, canvas_min, canvas_lim, num_steps;
; 406  :           const float *dwt_coeffs;
; 407  : 
; 408  :           if (tile.get_mct_matrix_info(s,b))

	push	0
	push	esi
	push	edi
	lea	ecx, DWORD PTR _tile$[ebp]
	call	?get_mct_matrix_info@kdu_tile@@QAE_NHHPAM@Z ; kdu_tile::get_mct_matrix_info
	test	al, al
	je	SHORT $LN76@construct

; 409  :             block = new kd_multi_matrix_block;

	push	64					; 00000040H
	call	??2@YAPAXI@Z				; operator new
	mov	ecx, eax
	add	esp, 4
	mov	DWORD PTR $T25[ebp], ecx
	test	ecx, ecx
	je	$LN120@construct
; File e:\study\jpeg2000\visually_lossless_jpeg2000\modifiedkakadu\coresys\transform\multi_transform_local.h

; 374  :       {

	mov	DWORD PTR [ecx], OFFSET ??_7kd_multi_matrix_block@@6B@

; 375  :         is_null_transform = false;

	mov	BYTE PTR [ecx+4], 0

; 376  :         coefficients = inverse_coefficients = NULL;

	mov	DWORD PTR [ecx+44], 0
	mov	DWORD PTR [ecx+40], 0

; 377  :         short_coefficients = NULL;  short_accumulator = NULL;  work = NULL;

	mov	DWORD PTR [ecx+48], 0
	mov	DWORD PTR [ecx+52], 0
	mov	DWORD PTR [ecx+60], 0
; File e:\study\jpeg2000\visually_lossless_jpeg2000\modifiedkakadu\coresys\transform\multi_transform.cpp

; 409  :             block = new kd_multi_matrix_block;

	jmp	$LN411@construct
$LN76@construct:

; 410  :           else if (tile.get_mct_rxform_info(s,b))

	push	0
	push	0
	push	esi
	push	edi
	lea	ecx, DWORD PTR _tile$[ebp]
	call	?get_mct_rxform_info@kdu_tile@@QAE_NHHPAH0@Z ; kdu_tile::get_mct_rxform_info
	test	al, al
	je	SHORT $LN78@construct

; 411  :             block = new kd_multi_rxform_block;

	push	48					; 00000030H
	call	??2@YAPAXI@Z				; operator new
	mov	ecx, eax
	add	esp, 4
	mov	DWORD PTR $T24[ebp], ecx
	test	ecx, ecx
	je	$LN120@construct
; File e:\study\jpeg2000\visually_lossless_jpeg2000\modifiedkakadu\coresys\transform\multi_transform_local.h

; 424  :       {

	mov	DWORD PTR [ecx], OFFSET ??_7kd_multi_rxform_block@@6B@

; 425  :         is_null_transform = false;

	mov	BYTE PTR [ecx+4], 0

; 426  :         coefficients = NULL;  accumulator = NULL;

	mov	DWORD PTR [ecx+40], 0
	mov	DWORD PTR [ecx+44], 0
; File e:\study\jpeg2000\visually_lossless_jpeg2000\modifiedkakadu\coresys\transform\multi_transform.cpp

; 411  :             block = new kd_multi_rxform_block;

	jmp	$LN411@construct
$LN78@construct:

; 412  :           else if (tile.get_mct_dependency_info(s,b,block_is_reversible))

	push	0
	push	0
	push	0
	push	0
	push	0
	lea	eax, DWORD PTR _block_is_reversible$16[ebp]
	push	eax
	push	esi
	push	edi
	lea	ecx, DWORD PTR _tile$[ebp]
	call	?get_mct_dependency_info@kdu_tile@@QAE_NHHAA_NPAM1PAH22@Z ; kdu_tile::get_mct_dependency_info
	test	al, al
	je	SHORT $LN80@construct

; 413  :             block = new kd_multi_dependency_block(block_is_reversible);

	push	76					; 0000004cH
	call	??2@YAPAXI@Z				; operator new
	mov	ecx, eax
	add	esp, 4
	mov	DWORD PTR $T23[ebp], ecx
	test	ecx, ecx
	je	$LN120@construct
	mov	al, BYTE PTR _block_is_reversible$16[ebp]
; File e:\study\jpeg2000\visually_lossless_jpeg2000\modifiedkakadu\coresys\transform\multi_transform_local.h

; 454  :       {

	mov	DWORD PTR [ecx], OFFSET ??_7kd_multi_dependency_block@@6B@

; 455  :         is_null_transform=false;  this->is_reversible = is_reversible;

	mov	BYTE PTR [ecx+4], 0
	mov	BYTE PTR [ecx+40], al

; 456  :         num_coeffs=0; short_matrix=NULL;  short_downshift=0; accumulator=NULL;

	mov	DWORD PTR [ecx+44], 0
	mov	DWORD PTR [ecx+64], 0
	mov	DWORD PTR [ecx+68], 0
	mov	DWORD PTR [ecx+72], 0

; 457  :         i_matrix = i_offsets = NULL;  f_matrix = f_offsets = NULL;

	mov	DWORD PTR [ecx+52], 0
	mov	DWORD PTR [ecx+48], 0
	mov	DWORD PTR [ecx+60], 0
	mov	DWORD PTR [ecx+56], 0
; File e:\study\jpeg2000\visually_lossless_jpeg2000\modifiedkakadu\coresys\transform\multi_transform.cpp

; 414  :           else if (tile.get_mct_dwt_info(s,b,block_is_reversible,

	jmp	$LN411@construct
$LN80@construct:

; 415  :                                          num_levels,canvas_min,canvas_lim,
; 416  :                                          num_steps,symmetric,symmetric_ext,
; 417  :                                          dwt_coeffs) != NULL)

	push	0
	push	0
	lea	eax, DWORD PTR _dwt_coeffs$19[ebp]
	push	eax
	lea	eax, DWORD PTR _symmetric_ext$18[ebp]
	push	eax
	lea	eax, DWORD PTR _symmetric$27[ebp]
	push	eax
	lea	eax, DWORD PTR _num_steps$4[ebp]
	push	eax
	lea	eax, DWORD PTR _canvas_lim$7[ebp]
	push	eax
	lea	eax, DWORD PTR _canvas_min$10[ebp]
	push	eax
	lea	eax, DWORD PTR _num_levels$11[ebp]
	push	eax
	lea	eax, DWORD PTR _block_is_reversible$16[ebp]
	push	eax
	push	esi
	push	edi
	lea	ecx, DWORD PTR _tile$[ebp]
	call	?get_mct_dwt_info@kdu_tile@@QAEPBUkdu_kernel_step_info@@HHAA_NAAH11100AAPBMPAH3@Z ; kdu_tile::get_mct_dwt_info
	test	eax, eax
	je	SHORT $LN82@construct

; 418  :             block = new kd_multi_dwt_block();

	push	80					; 00000050H
	call	??2@YAPAXI@Z				; operator new
	mov	ecx, eax
	add	esp, 4
	mov	DWORD PTR $T22[ebp], ecx
	test	ecx, ecx
	je	$LN120@construct
; File e:\study\jpeg2000\visually_lossless_jpeg2000\modifiedkakadu\coresys\transform\multi_transform_local.h

; 559  :       {

	mov	DWORD PTR [ecx], OFFSET ??_7kd_multi_dwt_block@@6B@

; 560  :         is_null_transform=false;  num_levels=0;  levels=NULL;

	mov	BYTE PTR [ecx+4], 0
	mov	DWORD PTR [ecx+40], 0
	mov	DWORD PTR [ecx+44], 0

; 561  :         num_steps=max_step_length=0;  steps=NULL;

	mov	DWORD PTR [ecx+72], 0
	mov	DWORD PTR [ecx+52], 0
	mov	DWORD PTR [ecx+56], 0

; 562  :         num_coefficients=0;  f_coefficients=NULL;  i_coefficients=NULL;

	mov	DWORD PTR [ecx+60], 0
	mov	DWORD PTR [ecx+64], 0
	mov	DWORD PTR [ecx+68], 0

; 563  :         src_bufs32 = NULL;  assert(src_bufs16 == NULL);

	mov	DWORD PTR [ecx+76], 0
; File e:\study\jpeg2000\visually_lossless_jpeg2000\modifiedkakadu\coresys\transform\multi_transform.cpp

; 419  :           else

	jmp	SHORT $LN411@construct
$LN82@construct:

; 420  :             block = new kd_multi_null_block();

	push	40					; 00000028H
	call	??2@YAPAXI@Z				; operator new
	mov	ecx, eax
	add	esp, 4
	mov	DWORD PTR $T21[ebp], ecx
	test	ecx, ecx
	je	SHORT $LN120@construct
; File e:\study\jpeg2000\visually_lossless_jpeg2000\modifiedkakadu\coresys\transform\multi_transform_local.h

; 358  :       { is_null_transform = true; }

	mov	DWORD PTR [ecx], OFFSET ??_7kd_multi_null_block@@6B@
	mov	BYTE PTR [ecx+4], 1
$LN411@construct:

; 91   :       }
; 92   :     void initialize() { reset(rev_offset,irrev_offset); }
; 93   :       /* Do not call this function until after the `line' member has been
; 94   :          created.  Sets the line's contents equal to the value of the
; 95   :          `rev_offset' or `irrev_offset' member, depending on the
; 96   :          `reversible' flag.  Normally, this function need only be called
; 97   :          if `is_constant' is true. */
; 98   :     void reset(int rev_off, float irrev_off);
; 99   :       /* Sets the contents of the line to `rev_off' if it has a reversible
; 100  :          representation, else `irrev_off'. */
; 101  :     void apply_offset(int rev_off, float irrev_off);
; 102  :       /* Adds the offset defined by `rev_off' or `irrev_off', whichever
; 103  :          is appropriate, to the embedded `line's sample values.  Ignores the
; 104  :          internal `rev_offset' and `irrev_offset' members, although these may
; 105  :          well be the values used to derive the `rev_off' and `irrev_off'
; 106  :          arguments. */
; 107  :     void copy(kd_multi_line *src, int rev_offset, float irrev_offset);
; 108  :       /* Copies the contents of `src' to the present line.  The function
; 109  :          ignores any offsets which may be recorded in either object, using
; 110  :          the offset and scaling factors supplied via the function's
; 111  :          arguments instead (of course, these may be derived from one or
; 112  :          both objects' members).  Both lines must have the same width.
; 113  :          If the target line is reversible, the source line must also be
; 114  :          reversible, the `irrev_offset' argument is ignored and `rev_offset'
; 115  :          is added to the source sample values as they are copied.  If the
; 116  :          target line is irreversible, the `rev_offset' argument is ignored
; 117  :          and `irrev_offset' is added to the source samples after applying any
; 118  :          required conversions: if the source samples are also irreversible,
; 119  :          conversion means scaling by 2^{src->bit_depth} / 2^{this->bit_depth};
; 120  :          if the source samples are reversible, conversion means scaling by
; 121  :          1 / 2^{this->bit_depth}. */
; 122  :   public: // Data
; 123  :     kdu_line_buf line;
; 124  :     kdu_coords size; // Size of intermediate component to which line belongs
; 125  :     int row_idx; // First valid row is 0 -- initialized to -1
; 126  :     int num_consumers; // See below
; 127  :     union {
; 128  :         int outstanding_consumers; // See below
; 129  :         bool waiting_for_inversion; // See below
; 130  :       };
; 131  :     bool reversible;   // True if producer or consumer needs reversible data
; 132  :     bool need_irreversible; // If producer or consumer needs irreversible data
; 133  :     bool need_precise; // If producer or consumer needs 32-bit samples
; 134  :     bool is_constant; // True if there is no generator for this line
; 135  :     int bit_depth; // 0 if not a codestream or final output component
; 136  :     int rev_offset;
; 137  :     float irrev_offset;
; 138  :     kd_multi_line *bypass; // See below
; 139  :     kd_multi_block *block;
; 140  :     int collection_idx; // See below
; 141  :   };
; 142  :   /* Notes:
; 143  :         Each `kd_multi_line' object represents a single intermediate component.
; 144  :      We describe the flow of information in terms of generators and consumers,
; 145  :      taking the perspective of the decompressor, since this is the more
; 146  :      complex case.  During compression, however, the roles of generator
; 147  :      and consumer are interchanged.
; 148  :         The line associated with an intermediate component has at most one
; 149  :      generator, but potentially multiple consumers.  Consumers include
; 150  :      transform blocks and the application, which is a consumer for
; 151  :      all final output components.  During decompression, the line cannot be
; 152  :      advanced until all consumers have finished using its contents -- i.e.,
; 153  :      until `outstanding_consumers' goes to 0.  When it does, a new line is
; 154  :      generated, `row_idx' is advanced, and `outstanding_consumers' is reset
; 155  :      to `num_consumers'.  During compression, the `outstanding_consumers'
; 156  :      member is not used.  In this case, the `waiting_for_inversion' flag is
; 157  :      involved -- it is set to true if the row identified by `row_idx' has
; 158  :      been written by a consumer, but has not yet been used by the transform
; 159  :      block.
; 160  :         If `block' is non-NULL, the line is generated by the referenced
; 161  :      transform block.  Otherwise, the line either corresponds to a
; 162  :      codestream image component or a constant component (`is_constant' is
; 163  :      true).  For codestream components, the `collection_idx' identifies the
; 164  :      index of the entry in the `kd_component_collection::components'
; 165  :      array within the codestream component collection (maintained by
; 166  :      `kd_multi_transform') which points to this line.  This is the only
; 167  :      piece of information required to pull or push a new line to the
; 168  :      relevant codestream component processing engine.  In all other cases,
; 169  :      `collection_idx' will be negative.
; 170  :         If `bypass' is non-NULL, all accesses to this line should be
; 171  :      treated as accesses to the line identified by `bypass'.  In this
; 172  :      case, all offsets are collapsed into the line referenced by `bypass'
; 173  :      so that no arithmetic is required here.  Also, in this case the
; 174  :      `line' resource remains empty.  `bypass' pointers are found during
; 175  :      a transform optimization phase; they serve principally to avoid
; 176  :      line copying when implementing null transforms.
; 177  :         Note that no line which has `is_constant' set will be bypassed.  Also
; 178  :      note that all line references found in `kd_multi_block::dependencies'
; 179  :      or `kd_multi_collection::components' arrays are adjusted to ensure that
; 180  :      they do not point to lines which have been bypassed -- they always
; 181  :      point to the lines which actually have the source data of interest.
; 182  :      This simplifies the processing of data. */
; 183  : 
; 184  : /*****************************************************************************/
; 185  : /*                              kd_multi_block                               */
; 186  : /*****************************************************************************/
; 187  : 
; 188  : class kd_multi_block {
; 189  :   public: // Member functions
; 190  :     kd_multi_block()
; 191  :       {
; 192  :         is_null_transform = true; // Changed by derived constructors
; 193  :         num_components = 0;  components = NULL;  next = prev = NULL;
; 194  :         num_dependencies = num_available_dependencies = 0; dependencies = NULL;
; 195  :         outstanding_consumers = 0;

	mov	DWORD PTR [ecx+28], 0
	mov	DWORD PTR [ecx+20], 0
	mov	DWORD PTR [ecx+16], 0
	mov	DWORD PTR [ecx+24], 0
	mov	DWORD PTR [ecx+32], 0
	mov	DWORD PTR [ecx+36], 0
	mov	DWORD PTR [ecx+12], 0
	mov	DWORD PTR [ecx+8], 0
; File e:\study\jpeg2000\visually_lossless_jpeg2000\modifiedkakadu\coresys\transform\multi_transform.cpp

; 420  :             block = new kd_multi_null_block();

