; Listing generated by Microsoft (R) Optimizing Compiler Version 19.00.23506.0 

	TITLE	E:\study\JPEG2000\visually_lossless_JPEG2000\ModifiedKakadu\coresys\parameters\params.cpp
	.686P
	.XMM
	include listing.inc
	.model	flat

INCLUDELIB MSVCRT
INCLUDELIB OLDNAMES

PUBLIC	?MULTI_RECORD@kdu_params@@1HB			; kdu_params::MULTI_RECORD
PUBLIC	?CAN_EXTRAPOLATE@kdu_params@@1HB		; kdu_params::CAN_EXTRAPOLATE
PUBLIC	?ALL_COMPONENTS@kdu_params@@1HB			; kdu_params::ALL_COMPONENTS
CONST	SEGMENT
?MULTI_RECORD@kdu_params@@1HB DD 01H			; kdu_params::MULTI_RECORD
?CAN_EXTRAPOLATE@kdu_params@@1HB DD 02H			; kdu_params::CAN_EXTRAPOLATE
?ALL_COMPONENTS@kdu_params@@1HB DD 04H			; kdu_params::ALL_COMPONENTS
CONST	ENDS
PUBLIC	??_H@YGXPAXIIP6EPAX0@Z@Z			; `vector constructor iterator'
PUBLIC	?__empty_global_delete@@YAXPAX@Z		; __empty_global_delete
PUBLIC	?__empty_global_delete@@YAXPAXI@Z		; __empty_global_delete
PUBLIC	___local_stdio_printf_options
PUBLIC	??$__vcrt_va_start_verify_argument_type@QBD@@YAXXZ ; __vcrt_va_start_verify_argument_type<char const * const>
PUBLIC	_sprintf
PUBLIC	?put_text@kdu_message@@UAEXPBG@Z		; kdu_message::put_text
PUBLIC	??6kdu_message@@QAEAAV0@H@Z			; kdu_message::operator<<
PUBLIC	?put_text@kdu_message_formatter@@UAEXPBG@Z	; kdu_message_formatter::put_text
PUBLIC	?put_text@kdu_error@@UAEXPBG@Z			; kdu_error::put_text
PUBLIC	?put_text@kdu_warning@@UAEXPBG@Z		; kdu_warning::put_text
PUBLIC	?put@kdu_output@@QAEHE@Z			; kdu_output::put
PUBLIC	?put@kdu_output@@QAEHG@Z			; kdu_output::put
PUBLIC	?put@kdu_output@@QAEHI@Z			; kdu_output::put
PUBLIC	??0kdu_params@@QAE@PBD_N1111@Z			; kdu_params::kdu_params
PUBLIC	?add_dependency@kdu_params@@IAEXPBD@Z		; kdu_params::add_dependency
PUBLIC	??1kdu_params@@UAE@XZ				; kdu_params::~kdu_params
PUBLIC	?link@kdu_params@@QAEPAV1@PAV1@HHHH@Z		; kdu_params::link
PUBLIC	?new_instance@kdu_params@@QAEPAV1@XZ		; kdu_params::new_instance
PUBLIC	?copy_from@kdu_params@@QAEXPAV1@HHHHH_N11@Z	; kdu_params::copy_from
PUBLIC	?copy_all@kdu_params@@QAEXPAV1@HH_N11@Z		; kdu_params::copy_all
PUBLIC	?access_cluster@kdu_params@@QAEPAV1@PBD@Z	; kdu_params::access_cluster
PUBLIC	?access_cluster@kdu_params@@QAEPAV1@H@Z		; kdu_params::access_cluster
PUBLIC	?access_relation@kdu_params@@QAEPAV1@HHH_N@Z	; kdu_params::access_relation
PUBLIC	?access_unique@kdu_params@@QAEPAV1@HHH@Z	; kdu_params::access_unique
PUBLIC	?define_attribute@kdu_params@@IAEXPBD00H@Z	; kdu_params::define_attribute
PUBLIC	?clear_marks@kdu_params@@QAEXXZ			; kdu_params::clear_marks
PUBLIC	?any_changes@kdu_params@@QAE_NXZ		; kdu_params::any_changes
PUBLIC	?check_typical_tile@kdu_params@@QAE_NHPBD@Z	; kdu_params::check_typical_tile
PUBLIC	?translate_marker_segment@kdu_params@@QAE_NGHQAEHH@Z ; kdu_params::translate_marker_segment
PUBLIC	?generate_marker_segments@kdu_params@@QAEHPAVkdu_output@@HH@Z ; kdu_params::generate_marker_segments
PUBLIC	?write_marker_segment@kdu_params@@MAEHPAVkdu_output@@PAV1@H@Z ; kdu_params::write_marker_segment
PUBLIC	?get@kdu_params@@QAE_NPBDHHAAH_N22@Z		; kdu_params::get
PUBLIC	?get@kdu_params@@QAE_NPBDHHAA_N_N22@Z		; kdu_params::get
PUBLIC	?get@kdu_params@@QAE_NPBDHHAAM_N22@Z		; kdu_params::get
PUBLIC	?compare@kdu_params@@QAE_NPBDHHH@Z		; kdu_params::compare
PUBLIC	?compare@kdu_params@@QAE_NPBDHH_N@Z		; kdu_params::compare
PUBLIC	?compare@kdu_params@@QAE_NPBDHHM@Z		; kdu_params::compare
PUBLIC	?set@kdu_params@@QAEXPBDHHH@Z			; kdu_params::set
PUBLIC	?set@kdu_params@@QAEXPBDHH_N@Z			; kdu_params::set
PUBLIC	?set@kdu_params@@QAEXPBDHHN@Z			; kdu_params::set
PUBLIC	?set_derived@kdu_params@@QAEXPBD@Z		; kdu_params::set_derived
PUBLIC	?parse_string@kdu_params@@QAE_NPBD@Z		; kdu_params::parse_string
PUBLIC	?parse_string@kdu_params@@QAE_NPBDH@Z		; kdu_params::parse_string
PUBLIC	?textualize_attributes@kdu_params@@QAEXAAVkdu_message@@_N@Z ; kdu_params::textualize_attributes
PUBLIC	?textualize_attributes@kdu_params@@QAEXAAVkdu_message@@HH_N@Z ; kdu_params::textualize_attributes
PUBLIC	?describe_attributes@kdu_params@@QAEXAAVkdu_message@@_N@Z ; kdu_params::describe_attributes
PUBLIC	?describe_attribute@kdu_params@@QAEXPBDAAVkdu_message@@_N@Z ; kdu_params::describe_attribute
PUBLIC	?find_string@kdu_params@@QAEPAV1@PADAAPBD@Z	; kdu_params::find_string
PUBLIC	?delete_unparsed_attribute@kdu_params@@QAEXPBD@Z ; kdu_params::delete_unparsed_attribute
PUBLIC	?custom_parse_field@kdu_params@@UAEHPBD0HAAH@Z	; kdu_params::custom_parse_field
PUBLIC	?custom_textualize_field@kdu_params@@UAEXAAVkdu_message@@PBDHH@Z ; kdu_params::custom_textualize_field
PUBLIC	?finalize@kdu_params@@UAEX_N@Z			; kdu_params::finalize
PUBLIC	?finalize_all@kdu_params@@QAEX_N@Z		; kdu_params::finalize_all
PUBLIC	?finalize_all@kdu_params@@QAEXH_N@Z		; kdu_params::finalize_all
PUBLIC	??_Ekdu_params@@UAEPAXI@Z			; kdu_params::`vector deleting destructor'
PUBLIC	??0siz_params@@QAE@XZ				; siz_params::siz_params
PUBLIC	?new_object@siz_params@@MAEPAVkdu_params@@XZ	; siz_params::new_object
PUBLIC	?finalize@siz_params@@MAEX_N@Z			; siz_params::finalize
PUBLIC	?copy_with_xforms@siz_params@@MAEXPAVkdu_params@@HH_N11@Z ; siz_params::copy_with_xforms
PUBLIC	?write_marker_segment@siz_params@@MAEHPAVkdu_output@@PAVkdu_params@@H@Z ; siz_params::write_marker_segment
PUBLIC	?check_marker_segment@siz_params@@MAE_NGHQAEAAH@Z ; siz_params::check_marker_segment
PUBLIC	?read_marker_segment@siz_params@@MAE_NGHQAEH@Z	; siz_params::read_marker_segment
PUBLIC	??_Gsiz_params@@UAEPAXI@Z			; siz_params::`scalar deleting destructor'
PUBLIC	??0mct_params@@QAE@XZ				; mct_params::mct_params
PUBLIC	?new_object@mct_params@@MAEPAVkdu_params@@XZ	; mct_params::new_object
PUBLIC	?finalize@mct_params@@MAEX_N@Z			; mct_params::finalize
PUBLIC	?copy_with_xforms@mct_params@@MAEXPAVkdu_params@@HH_N11@Z ; mct_params::copy_with_xforms
PUBLIC	?write_marker_segment@mct_params@@MAEHPAVkdu_output@@PAVkdu_params@@H@Z ; mct_params::write_marker_segment
PUBLIC	?check_marker_segment@mct_params@@MAE_NGHQAEAAH@Z ; mct_params::check_marker_segment
PUBLIC	?read_marker_segment@mct_params@@MAE_NGHQAEH@Z	; mct_params::read_marker_segment
PUBLIC	??_Gmct_params@@UAEPAXI@Z			; mct_params::`scalar deleting destructor'
PUBLIC	??0mcc_params@@QAE@XZ				; mcc_params::mcc_params
PUBLIC	?new_object@mcc_params@@MAEPAVkdu_params@@XZ	; mcc_params::new_object
PUBLIC	?finalize@mcc_params@@MAEX_N@Z			; mcc_params::finalize
PUBLIC	?copy_with_xforms@mcc_params@@MAEXPAVkdu_params@@HH_N11@Z ; mcc_params::copy_with_xforms
PUBLIC	?write_marker_segment@mcc_params@@MAEHPAVkdu_output@@PAVkdu_params@@H@Z ; mcc_params::write_marker_segment
PUBLIC	?check_marker_segment@mcc_params@@MAE_NGHQAEAAH@Z ; mcc_params::check_marker_segment
PUBLIC	?read_marker_segment@mcc_params@@MAE_NGHQAEH@Z	; mcc_params::read_marker_segment
PUBLIC	??_Gmcc_params@@UAEPAXI@Z			; mcc_params::`scalar deleting destructor'
PUBLIC	??0mco_params@@QAE@XZ				; mco_params::mco_params
PUBLIC	?new_object@mco_params@@MAEPAVkdu_params@@XZ	; mco_params::new_object
PUBLIC	?finalize@mco_params@@MAEX_N@Z			; mco_params::finalize
PUBLIC	?copy_with_xforms@mco_params@@MAEXPAVkdu_params@@HH_N11@Z ; mco_params::copy_with_xforms
PUBLIC	?write_marker_segment@mco_params@@MAEHPAVkdu_output@@PAVkdu_params@@H@Z ; mco_params::write_marker_segment
PUBLIC	?check_marker_segment@mco_params@@MAE_NGHQAEAAH@Z ; mco_params::check_marker_segment
PUBLIC	?read_marker_segment@mco_params@@MAE_NGHQAEH@Z	; mco_params::read_marker_segment
PUBLIC	??_Gmco_params@@UAEPAXI@Z			; mco_params::`scalar deleting destructor'
PUBLIC	??0atk_params@@QAE@XZ				; atk_params::atk_params
PUBLIC	?new_object@atk_params@@MAEPAVkdu_params@@XZ	; atk_params::new_object
PUBLIC	?finalize@atk_params@@MAEX_N@Z			; atk_params::finalize
PUBLIC	?copy_with_xforms@atk_params@@MAEXPAVkdu_params@@HH_N11@Z ; atk_params::copy_with_xforms
PUBLIC	?write_marker_segment@atk_params@@MAEHPAVkdu_output@@PAVkdu_params@@H@Z ; atk_params::write_marker_segment
PUBLIC	?check_marker_segment@atk_params@@MAE_NGHQAEAAH@Z ; atk_params::check_marker_segment
PUBLIC	?read_marker_segment@atk_params@@MAE_NGHQAEH@Z	; atk_params::read_marker_segment
PUBLIC	??_Gatk_params@@UAEPAXI@Z			; atk_params::`scalar deleting destructor'
PUBLIC	??0cod_params@@QAE@XZ				; cod_params::cod_params
PUBLIC	?new_object@cod_params@@MAEPAVkdu_params@@XZ	; cod_params::new_object
PUBLIC	?finalize@cod_params@@MAEX_N@Z			; cod_params::finalize
PUBLIC	?copy_with_xforms@cod_params@@MAEXPAVkdu_params@@HH_N11@Z ; cod_params::copy_with_xforms
PUBLIC	?write_marker_segment@cod_params@@MAEHPAVkdu_output@@PAVkdu_params@@H@Z ; cod_params::write_marker_segment
PUBLIC	?check_marker_segment@cod_params@@MAE_NGHQAEAAH@Z ; cod_params::check_marker_segment
PUBLIC	?read_marker_segment@cod_params@@MAE_NGHQAEH@Z	; cod_params::read_marker_segment
PUBLIC	?custom_parse_field@cod_params@@MAEHPBD0HAAH@Z	; cod_params::custom_parse_field
PUBLIC	?custom_textualize_field@cod_params@@MAEXAAVkdu_message@@PBDHH@Z ; cod_params::custom_textualize_field
PUBLIC	?is_valid_decomp_terminator@cod_params@@SA_NH@Z	; cod_params::is_valid_decomp_terminator
PUBLIC	?textualize_decomp@cod_params@@SAXQADH@Z	; cod_params::textualize_decomp
PUBLIC	?transpose_decomp@cod_params@@SAHH@Z		; cod_params::transpose_decomp
PUBLIC	?expand_decomp_bands@cod_params@@SAHHQAF@Z	; cod_params::expand_decomp_bands
PUBLIC	?get_max_decomp_levels@cod_params@@SAXHAAH0@Z	; cod_params::get_max_decomp_levels
PUBLIC	?find_suitable_ads_idx@cod_params@@AAEHXZ	; cod_params::find_suitable_ads_idx
PUBLIC	?find_suitable_dfs_idx@cod_params@@AAEHXZ	; cod_params::find_suitable_dfs_idx
PUBLIC	?derive_decomposition_structure@cod_params@@AAEXPAVkdu_params@@0@Z ; cod_params::derive_decomposition_structure
PUBLIC	?validate_ads_data@cod_params@@AAEXH@Z		; cod_params::validate_ads_data
PUBLIC	?validate_dfs_data@cod_params@@AAEXH@Z		; cod_params::validate_dfs_data
PUBLIC	??_Gcod_params@@UAEPAXI@Z			; cod_params::`scalar deleting destructor'
PUBLIC	??0ads_params@@QAE@XZ				; ads_params::ads_params
PUBLIC	?new_object@ads_params@@MAEPAVkdu_params@@XZ	; ads_params::new_object
PUBLIC	?finalize@ads_params@@MAEX_N@Z			; ads_params::finalize
PUBLIC	?copy_with_xforms@ads_params@@MAEXPAVkdu_params@@HH_N11@Z ; ads_params::copy_with_xforms
PUBLIC	?write_marker_segment@ads_params@@MAEHPAVkdu_output@@PAVkdu_params@@H@Z ; ads_params::write_marker_segment
PUBLIC	?check_marker_segment@ads_params@@MAE_NGHQAEAAH@Z ; ads_params::check_marker_segment
PUBLIC	?read_marker_segment@ads_params@@MAE_NGHQAEH@Z	; ads_params::read_marker_segment
PUBLIC	?custom_textualize_field@ads_params@@MAEXAAVkdu_message@@PBDHH@Z ; ads_params::custom_textualize_field
PUBLIC	??_Gads_params@@UAEPAXI@Z			; ads_params::`scalar deleting destructor'
PUBLIC	??0dfs_params@@QAE@XZ				; dfs_params::dfs_params
PUBLIC	?new_object@dfs_params@@MAEPAVkdu_params@@XZ	; dfs_params::new_object
PUBLIC	?finalize@dfs_params@@MAEX_N@Z			; dfs_params::finalize
PUBLIC	?copy_with_xforms@dfs_params@@MAEXPAVkdu_params@@HH_N11@Z ; dfs_params::copy_with_xforms
PUBLIC	?write_marker_segment@dfs_params@@MAEHPAVkdu_output@@PAVkdu_params@@H@Z ; dfs_params::write_marker_segment
PUBLIC	?check_marker_segment@dfs_params@@MAE_NGHQAEAAH@Z ; dfs_params::check_marker_segment
PUBLIC	?read_marker_segment@dfs_params@@MAE_NGHQAEH@Z	; dfs_params::read_marker_segment
PUBLIC	??_Gdfs_params@@UAEPAXI@Z			; dfs_params::`scalar deleting destructor'
PUBLIC	??0qcd_params@@QAE@XZ				; qcd_params::qcd_params
PUBLIC	?new_object@qcd_params@@MAEPAVkdu_params@@XZ	; qcd_params::new_object
PUBLIC	?finalize@qcd_params@@MAEX_N@Z			; qcd_params::finalize
PUBLIC	?copy_with_xforms@qcd_params@@MAEXPAVkdu_params@@HH_N11@Z ; qcd_params::copy_with_xforms
PUBLIC	?write_marker_segment@qcd_params@@MAEHPAVkdu_output@@PAVkdu_params@@H@Z ; qcd_params::write_marker_segment
PUBLIC	?check_marker_segment@qcd_params@@MAE_NGHQAEAAH@Z ; qcd_params::check_marker_segment
PUBLIC	?read_marker_segment@qcd_params@@MAE_NGHQAEH@Z	; qcd_params::read_marker_segment
PUBLIC	??_Gqcd_params@@UAEPAXI@Z			; qcd_params::`scalar deleting destructor'
PUBLIC	??0rgn_params@@QAE@XZ				; rgn_params::rgn_params
PUBLIC	?finalize@rgn_params@@MAEX_N@Z			; rgn_params::finalize
PUBLIC	?new_object@rgn_params@@MAEPAVkdu_params@@XZ	; rgn_params::new_object
PUBLIC	?copy_with_xforms@rgn_params@@MAEXPAVkdu_params@@HH_N11@Z ; rgn_params::copy_with_xforms
PUBLIC	?write_marker_segment@rgn_params@@MAEHPAVkdu_output@@PAVkdu_params@@H@Z ; rgn_params::write_marker_segment
PUBLIC	?check_marker_segment@rgn_params@@MAE_NGHQAEAAH@Z ; rgn_params::check_marker_segment
PUBLIC	?read_marker_segment@rgn_params@@MAE_NGHQAEH@Z	; rgn_params::read_marker_segment
PUBLIC	??_Grgn_params@@UAEPAXI@Z			; rgn_params::`scalar deleting destructor'
PUBLIC	??0poc_params@@QAE@XZ				; poc_params::poc_params
PUBLIC	?new_object@poc_params@@MAEPAVkdu_params@@XZ	; poc_params::new_object
PUBLIC	?copy_with_xforms@poc_params@@MAEXPAVkdu_params@@HH_N11@Z ; poc_params::copy_with_xforms
PUBLIC	?write_marker_segment@poc_params@@MAEHPAVkdu_output@@PAVkdu_params@@H@Z ; poc_params::write_marker_segment
PUBLIC	?check_marker_segment@poc_params@@MAE_NGHQAEAAH@Z ; poc_params::check_marker_segment
PUBLIC	?read_marker_segment@poc_params@@MAE_NGHQAEH@Z	; poc_params::read_marker_segment
PUBLIC	??_Gpoc_params@@UAEPAXI@Z			; poc_params::`scalar deleting destructor'
PUBLIC	??0crg_params@@QAE@XZ				; crg_params::crg_params
PUBLIC	?new_object@crg_params@@MAEPAVkdu_params@@XZ	; crg_params::new_object
PUBLIC	?copy_with_xforms@crg_params@@MAEXPAVkdu_params@@HH_N11@Z ; crg_params::copy_with_xforms
PUBLIC	?write_marker_segment@crg_params@@MAEHPAVkdu_output@@PAVkdu_params@@H@Z ; crg_params::write_marker_segment
PUBLIC	?check_marker_segment@crg_params@@MAE_NGHQAEAAH@Z ; crg_params::check_marker_segment
PUBLIC	?read_marker_segment@crg_params@@MAE_NGHQAEH@Z	; crg_params::read_marker_segment
PUBLIC	??_Gcrg_params@@UAEPAXI@Z			; crg_params::`scalar deleting destructor'
PUBLIC	??0org_params@@QAE@XZ				; org_params::org_params
PUBLIC	?new_object@org_params@@MAEPAVkdu_params@@XZ	; org_params::new_object
PUBLIC	?copy_with_xforms@org_params@@MAEXPAVkdu_params@@HH_N11@Z ; org_params::copy_with_xforms
PUBLIC	?check_marker_segment@org_params@@MAE_NGHQAEAAH@Z ; org_params::check_marker_segment
PUBLIC	?read_marker_segment@org_params@@MAE_NGHQAEH@Z	; org_params::read_marker_segment
PUBLIC	??_Gorg_params@@UAEPAXI@Z			; org_params::`scalar deleting destructor'
PUBLIC	??0kdu_kernel_step_info@@QAE@XZ			; kdu_kernel_step_info::kdu_kernel_step_info
PUBLIC	??1kdu_kernels@@QAE@XZ				; kdu_kernels::~kdu_kernels
PUBLIC	??0att_val@@QAE@XZ				; att_val::att_val
PUBLIC	??0kd_attribute@@QAE@PBD0H0@Z			; kd_attribute::kd_attribute
PUBLIC	?augment_records@kd_attribute@@QAEXH@Z		; kd_attribute::augment_records
PUBLIC	?describe@kd_attribute@@QAEXAAVkdu_message@@_N111@Z ; kd_attribute::describe
PUBLIC	?match_attribute@@YAPAUkd_attribute@@PAU1@PBD@Z	; match_attribute
PUBLIC	?_OptionsStorage@?1??__local_stdio_printf_options@@9@4_KA ; `__local_stdio_printf_options'::`2'::_OptionsStorage
PUBLIC	??_C@_02NJNOFBBI@?$CFx?$AA@			; `string'
PUBLIC	??_C@_02DPKJAMEF@?$CFd?$AA@			; `string'
PUBLIC	??_C@_02NJPGOMH@?$CFf?$AA@			; `string'
PUBLIC	__TI2PAE
PUBLIC	__CTA2PAE
PUBLIC	??_R0PAE@8					; unsigned char * `RTTI Type Descriptor'
PUBLIC	__CT??_R0PAE@84
PUBLIC	??_R0PAX@8					; void * `RTTI Type Descriptor'
PUBLIC	__CT??_R0PAX@84
PUBLIC	??_7kdu_params@@6B@				; kdu_params::`vftable'
PUBLIC	??_7siz_params@@6B@				; siz_params::`vftable'
PUBLIC	??_7mct_params@@6B@				; mct_params::`vftable'
PUBLIC	??_7mcc_params@@6B@				; mcc_params::`vftable'
PUBLIC	??_7mco_params@@6B@				; mco_params::`vftable'
PUBLIC	??_7atk_params@@6B@				; atk_params::`vftable'
PUBLIC	??_7cod_params@@6B@				; cod_params::`vftable'
PUBLIC	??_7ads_params@@6B@				; ads_params::`vftable'
PUBLIC	??_7dfs_params@@6B@				; dfs_params::`vftable'
PUBLIC	??_7qcd_params@@6B@				; qcd_params::`vftable'
PUBLIC	??_7rgn_params@@6B@				; rgn_params::`vftable'
PUBLIC	??_7poc_params@@6B@				; poc_params::`vftable'
PUBLIC	??_7crg_params@@6B@				; crg_params::`vftable'
PUBLIC	??_7org_params@@6B@				; org_params::`vftable'
PUBLIC	??_C@_0BE@KMIJLGEL@Kakadu?5Core?5Error?3?6?$AA@	; `string'
PUBLIC	??_C@_0DM@BIIABMGK@Absolute?5quantization?5step?5sizes@ ; `string'
PUBLIC	??_C@_0GM@JHCOHHHI@String?5translators?5in?5code?9strea@ ; `string'
PUBLIC	??_C@_03NONCDIOG@?3?5?$CC?$AA@			; `string'
PUBLIC	??_C@_02DAHALNEP@?$CC?4?$AA@			; `string'
PUBLIC	??_C@_0EL@BICNPJDD@String?5translators?5in?5code?9strea@ ; `string'
PUBLIC	??_C@_0CO@KGDOBALG@?5characters?5in?5length?$CB?5Problem?5e@ ; `string'
PUBLIC	??_C@_0IM@FCIPKKGG@String?5translators?5in?5code?9strea@ ; `string'
PUBLIC	??_C@_0CC@LLCJBDHK@Expected?5one?5of?5the?5identifiers?0@ ; `string'
PUBLIC	??_C@_02KEGNLNML@?0?5?$AA@			; `string'
PUBLIC	??_C@_01BJJEKLCA@?$CC?$AA@			; `string'
PUBLIC	??_C@_04FJKIFICP@?5or?5?$AA@			; `string'
PUBLIC	??_C@_0CK@HEDJDDBK@Expected?5one?5or?5more?5of?5the?5iden@ ; `string'
PUBLIC	??_C@_0BN@BJKINHLE@?$CC?0?5separated?5by?5?$GA?$HM?8?5symbols?4?$AA@ ; `string'
PUBLIC	??_C@_08IDCJHBJK@Ckernels?$AA@			; `string'
PUBLIC	??_C@_06PJGAHNDG@Ksteps?$AA@			; `string'
PUBLIC	??_C@_07KKABNIJP@Kcoeffs?$AA@			; `string'
PUBLIC	??_C@_07MIOINIMK@Cdecomp?$AA@			; `string'
PUBLIC	??_C@_0M@FADGJEKJ@Qabs_ranges?$AA@		; `string'
PUBLIC	??_C@_0L@ELEFPJIC@Qabs_steps?$AA@		; `string'
PUBLIC	__TI2CPAD
PUBLIC	__CTA2PAD
PUBLIC	??_R0PAD@8					; char * `RTTI Type Descriptor'
PUBLIC	__CT??_R0PAD@84
PUBLIC	??_C@_0EA@NIBLGMMC@Attempting?5to?5write?5multiple?5rec@ ; `string'
PUBLIC	??_C@_03KLKADAKF@?0?5?$CC?$AA@			; `string'
PUBLIC	??_C@_0CM@EMGKNDJI@?$CC?0?5which?5can?5accept?5only?5single?5@ ; `string'
PUBLIC	??_C@_02OAMGPABD@?$DN?$HL?$AA@			; `string'
PUBLIC	??_C@_03JILILBPJ@?$FL?3?$DM?$AA@		; `string'
PUBLIC	??_C@_04PONDAPIE@?$DO?$FN?$DN?$HL?$AA@		; `string'
PUBLIC	??_C@_01IHBHIGKO@?0?$AA@			; `string'
PUBLIC	??_C@_05GAGDNHHH@?$DMint?$DO?$AA@		; `string'
PUBLIC	??_C@_08KMPCOBIE@?$DMyes?1no?$DO?$AA@		; `string'
PUBLIC	??_C@_07FFCKHLFB@?$DMfloat?$DO?$AA@		; `string'
PUBLIC	??_C@_0N@LECANFFL@?$DMcustom?5int?$DO?$AA@	; `string'
PUBLIC	??_C@_05BAJLLFH@ENUM?$DM?$AA@			; `string'
PUBLIC	??_C@_01PPODPGHN@?$DO?$AA@			; `string'
PUBLIC	??_C@_06EDILFCLO@FLAGS?$DM?$AA@			; `string'
PUBLIC	??_C@_01CELHOKLL@?$HN?$AA@			; `string'
PUBLIC	??_C@_05MIHDFBBJ@?0?4?4?4?6?$AA@		; `string'
PUBLIC	??_C@_01EEMJAFIK@?6?$AA@			; `string'
PUBLIC	??_C@_01GPOEFGEJ@?7?$AA@			; `string'
PUBLIC	??_C@_0OO@BFNLONCD@Illegal?5tile?5or?5component?5indice@ ; `string'
PUBLIC	??_C@_0KB@EJFHGKHN@Call?5to?5?$GAkdu_params?3?3link?8?5speci@ ; `string'
PUBLIC	??_C@_0KA@FKBGPIEK@Call?5to?5?$GAkdu_params?3?3link?8?5speci@ ; `string'
PUBLIC	??_C@_0GD@HANNBBLP@Trying?5to?5use?5?$GAkdu_params?3?3copy_@ ; `string'
PUBLIC	??_C@_0JI@GAIBBJLH@Trying?5to?5use?5?$GAkdu_params?3?3copy_@ ; `string'
PUBLIC	??_C@_0EP@FFHPHGIF@Illegal?5attempt?5to?5modify?5a?5?$GAkdu@ ; `string'
PUBLIC	??_C@_0GC@FAEHIHF@Trying?5to?5use?5?$GAkdu_params?3?3copy_@ ; `string'
PUBLIC	??_C@_0JH@PHOILHHH@Trying?5to?5use?5?$GAkdu_params?3?3copy_@ ; `string'
PUBLIC	??_C@_0EB@KNIJAOBN@Invalid?5?$GAtile_idx?8?5supplied?5to?5?$GA@ ; `string'
PUBLIC	??_C@_0EB@JLDBDJJO@Attempt?5to?5access?5a?5code?9stream?5@ ; `string'
PUBLIC	??_C@_02LHOIKBIA@?$CC?$CB?$AA@			; `string'
PUBLIC	??_C@_0FO@BDPPHOIA@Attempt?5to?5access?5a?5code?9stream?5@ ; `string'
PUBLIC	??_C@_02JPEBCGCN@?5?$CC?$AA@			; `string'
PUBLIC	??_C@_03BMLMMEDG@?$CC?4?6?$AA@			; `string'
PUBLIC	??_C@_0BE@NMPECGEH@The?5field?5index?5is?5?$AA@	; `string'
PUBLIC	??_C@_01LFCBOECM@?4?$AA@			; `string'
PUBLIC	??_C@_0HI@GBKDDDEC@Attempting?5to?5access?5a?5floating?5@ ; `string'
PUBLIC	??_C@_0HF@JLGEHIN@Attempting?5to?5access?5a?5non?9boole@ ; `string'
PUBLIC	??_C@_0ID@NIKNNMAJ@Attempting?5to?5access?5an?5integer?5@ ; `string'
PUBLIC	??_C@_0DO@JOGJAIGA@Attempt?5to?5set?5a?5code?9stream?5att@ ; `string'
PUBLIC	??_C@_0GI@PNBMMBJE@Attempt?5to?5set?5a?5non?9tile?9specif@ ; `string'
PUBLIC	??_C@_0FL@DIDANAGC@Attempt?5to?5set?5a?5code?9stream?5att@ ; `string'
PUBLIC	??_C@_0HP@BOHKEADG@Attempting?5to?5set?5a?5floating?5poi@ ; `string'
PUBLIC	??_C@_0HN@MGKBDNAF@Attempting?5to?5set?5a?5boolean?5code@ ; `string'
PUBLIC	??_C@_0KH@JEELPMNH@Attempting?5to?5set?5a?5code?9stream?5@ ; `string'
PUBLIC	??_C@_0JJ@BKCJHECD@Attempting?5to?5set?5a?5code?9stream?5@ ; `string'
PUBLIC	??_C@_0HM@KMNJIEPO@Attempting?5to?5set?5a?5non?9boolean?5@ ; `string'
PUBLIC	??_C@_0IA@DFMOHAGA@Attempting?5to?5set?5an?5integer?5cod@ ; `string'
PUBLIC	??_C@_0BH@HIFAHFHM@Invalid?5attribute?5name?$AA@ ; `string'
PUBLIC	??_C@_03HAFDNMHA@?$CC?0?5?$AA@			; `string'
PUBLIC	??_C@_0DE@NFMHJCHA@supplied?5to?5the?5?$GAkdu_params?3?3set@ ; `string'
PUBLIC	??_C@_0BL@HMOBPPGB@Malformed?5attribute?5string?$AA@ ; `string'
PUBLIC	??_C@_03BHOAIDAL@?$CC?$CB?6?$AA@		; `string'
PUBLIC	??_C@_0CE@NNLGGFEF@White?5space?5characters?5are?5illeg@ ; `string'
PUBLIC	??_C@_09EIDFECNJ@Attribute?$AA@			; `string'
PUBLIC	??_C@_02KOPDJAMB@?$CC?5?$AA@			; `string'
PUBLIC	??_C@_0BK@DEPOJPCI@is?5missing?5parameters?3?6?6?7?$AA@ ; `string'
PUBLIC	??_C@_0GO@DPHCDBCK@?6Parameter?5values?5must?5be?5separa@ ; `string'
PUBLIC	??_C@_0DN@JMPBALKA@Malformed?5location?5specifier?5enc@ ; `string'
PUBLIC	??_C@_0NA@FLKOAPNM@Tile?5specifiers?5following?5the?5th@ ; `string'
PUBLIC	??_C@_0FE@PMHLCCDF@You?5must?5supply?5an?5index?5specifi@ ; `string'
PUBLIC	??_C@_0GI@IAODNOI@This?5type?5of?5parameter?5cannot?5be@ ; `string'
PUBLIC	??_C@_0BB@FCCGFNIO@Attribute?5string?$AA@	; `string'
PUBLIC	??_C@_0CJ@BPCCBEIL@refers?5to?5a?5non?9existent?5tile?9co@ ; `string'
PUBLIC	??_C@_0IG@JNAPNKGG@Attempt?5to?5set?5a?5non?9tile?9specif@ ; `string'
PUBLIC	??_C@_0GM@BCPIKDJF@Parameter?5values?5must?5be?5separat@ ; `string'
PUBLIC	??_C@_0BO@NIAMPCJJ@The?5supplied?5attribute?5string?$AA@ ; `string'
PUBLIC	??_C@_0JM@LMPOLJGM@refers?5to?5code?9stream?5parameters@ ; `string'
PUBLIC	??_C@_0BH@DPGABFPI@Problem?5encountered?5at?$AA@ ; `string'
PUBLIC	??_C@_0CF@KHIJHBHP@Records?5must?5be?5separated?5by?5com@ ; `string'
PUBLIC	??_C@_0DH@MBMGHEML@Attribute?5does?5not?5support?5multi@ ; `string'
PUBLIC	??_C@_0DN@ONBLBBIB@Records?5must?5be?5enclosed?5by?5curl@ ; `string'
PUBLIC	??_C@_0CE@EELOEALG@Fields?5must?5be?5separated?5by?5comm@ ; `string'
PUBLIC	??_C@_0CB@KHDANEEK@Expected?5a?5floating?5point?5field?4@ ; `string'
PUBLIC	??_C@_0BL@KODNALJB@Expected?5an?5integer?5field?4?$AA@ ; `string'
PUBLIC	??_C@_0FJ@PANFLKHK@Attempt?5to?5parse?5custom?5string?5r@ ; `string'
PUBLIC	??_C@_03ICICOMAL@yes?$AA@			; `string'
PUBLIC	??_C@_02KAJCLHKP@no?$AA@			; `string'
PUBLIC	??_C@_0EB@EHIGLBBC@Expected?5a?5boolean?5field?5identif@ ; `string'
PUBLIC	??_C@_0DM@ODMOHKAB@Opening?5brace?5for?5record?5is?5not?5@ ; `string'
PUBLIC	??_C@_01GAPBHFFA@T?$AA@				; `string'
PUBLIC	??_C@_01GFHCPBMG@C?$AA@				; `string'
PUBLIC	??_C@_01JPJNBJEM@I?$AA@				; `string'
PUBLIC	??_C@_0HL@JPCGMMAG@Attempting?5to?5textualize?5a?5code?9@ ; `string'
PUBLIC	??_C@_09GBLFFAMG@in?5field?5?$AA@		; `string'
PUBLIC	??_C@_0M@LIKKDBIM@?5of?5record?5?$AA@		; `string'
PUBLIC	??_C@_0EO@MMDBDEFI@?$CCkdu_params?3?3describe_attribute?$CC@ ; `string'
PUBLIC	??_C@_0FM@CALBKEL@Attempting?5to?5delete?5a?5non?9exist@ ; `string'
PUBLIC	??_C@_0HA@MENEFAMH@Codestream?5contains?5a?5parameter?5@ ; `string'
PUBLIC	??_C@_03GJDKGJIF@?$CC?$DL?5?$AA@		; `string'
PUBLIC	??_C@_0P@DOHDMGMJ@tile?5number?5is?$AA@		; `string'
PUBLIC	??_C@_01CLKCMJKC@?5?$AA@			; `string'
PUBLIC	??_C@_0BA@MNKEPDKJ@?5?$FLi?4e?4?0?5global?$FN?$AA@ ; `string'
PUBLIC	??_C@_0BD@MMGLAGCF@?5?$CIstarting?5from?50?$CJ?$AA@ ; `string'
PUBLIC	??_C@_02LNAEAIDO@?$DL?5?$AA@			; `string'
PUBLIC	??_C@_0BD@PIKIAENG@component?5index?5is?$AA@	; `string'
PUBLIC	??_C@_03DIBMIDDO@SIZ?$AA@			; `string'
PUBLIC	??_C@_0EB@MCBBIPAI@?$CIPROFILE0?$DN0?0PROFILE1?$DN1?0PROFILE2?$DN@ ; `string'
PUBLIC	??_C@_0GIB@OAPGMEGC@Restricted?5profile?5to?5which?5the?5@ ; `string'
PUBLIC	??_C@_08HFDHOMDN@Sprofile?$AA@			; `string'
PUBLIC	??_C@_01HMGJMAIH@B?$AA@				; `string'
PUBLIC	??_C@_0ML@FCKJPFCA@Flag?5indicating?5whether?5or?5not?5c@ ; `string'
PUBLIC	??_C@_04JNHDNPF@Scap?$AA@			; `string'
PUBLIC	??_C@_0GI@IJELGHMP@?$FLDC?$DN1?$HMVARQ?$DN2?$HMTCQ?$DN4?$HMPRECQ?$DN2048?$HMVI@ ; `string'
PUBLIC	??_C@_0DFB@NHCICMJL@Logical?5OR?5of?5any?5combination?5of@ ; `string'
PUBLIC	??_C@_0M@NJJFAENN@Sextensions?$AA@		; `string'
PUBLIC	??_C@_02FOEOGEOO@II?$AA@			; `string'
PUBLIC	??_C@_0BDP@GFLEIBAO@Canvas?5dimensions?3?5vertical?5dime@ ; `string'
PUBLIC	??_C@_05HNJHHEPH@Ssize?$AA@			; `string'
PUBLIC	??_C@_0GN@LGNONLIP@Image?5origin?5on?5canvas?3?5vertical@ ; `string'
PUBLIC	??_C@_07PEMLCIHF@Sorigin?$AA@			; `string'
PUBLIC	??_C@_0EF@BCOJOGJB@Tile?5partition?5size?3?5vertical?5di@ ; `string'
PUBLIC	??_C@_06EPMBOCAF@Stiles?$AA@			; `string'
PUBLIC	??_C@_0EM@GFLJDJGF@Tile?5origin?5on?5the?5canvas?3?5verti@ ; `string'
PUBLIC	??_C@_0N@KMIIMNEN@Stile_origin?$AA@		; `string'
PUBLIC	??_C@_0CDM@NAGNLIBN@Number?5of?5codestream?5image?5compo@ ; `string'
PUBLIC	??_C@_0M@LFKICJFJ@Scomponents?$AA@		; `string'
PUBLIC	??_C@_0DAJ@MODEBBAE@Indicates?5whether?5each?5codestrea@ ; `string'
PUBLIC	??_C@_07MGJMMJC@Ssigned?$AA@			; `string'
PUBLIC	??_C@_0CLK@EPFPBPLL@Indicates?5the?5bit?9depth?5of?5each?5@ ; `string'
PUBLIC	??_C@_0L@BADPNFGK@Sprecision?$AA@		; `string'
PUBLIC	??_C@_0BIA@NFIIFPMP@Indicates?5the?5sub?9sampling?5facto@ ; `string'
PUBLIC	??_C@_09IGDOMJM@Ssampling?$AA@			; `string'
PUBLIC	??_C@_0BGE@DJOJEOK@Indicates?5the?5dimensions?5?$CIvertic@ ; `string'
PUBLIC	??_C@_05KKKGDPEH@Sdims?$AA@			; `string'
PUBLIC	??_C@_0FFB@NCBJOMEF@Number?5of?5image?5components?5produ@ ; `string'
PUBLIC	??_C@_0M@FAIBBHLL@Mcomponents?$AA@		; `string'
PUBLIC	??_C@_0BHF@DJPMMPEM@Indicates?5whether?5each?5MCT?5outpu@ ; `string'
PUBLIC	??_C@_07GFFIOPIL@Msigned?$AA@			; `string'
PUBLIC	??_C@_0BFE@NNIAEAJM@Indicates?5the?5bit?9depth?5of?5each?5@ ; `string'
PUBLIC	??_C@_0L@OMLPDKKH@Mprecision?$AA@		; `string'
PUBLIC	??_C@_0IK@CCHOHMJN@Unable?5to?5copy?5SIZ?5parameters?0?5u@ ; `string'
PUBLIC	??_C@_0EK@BLNJMGGP@Attempting?5to?5discard?5all?5of?5the@ ; `string'
PUBLIC	??_C@_03LIMJJHMM@COD?$AA@			; `string'
PUBLIC	??_C@_0OO@EELGDABM@Cannot?5apply?5requested?5resolutio@ ; `string'
PUBLIC	??_C@_0CI@CMGIGAHL@Unable?5to?5write?5SIZ?5marker?5segme@ ; `string'
PUBLIC	??_C@_0EF@JGBMKHNL@Illegal?5number?5of?5image?5componen@ ; `string'
PUBLIC	??_C@_0FJ@POPHKFAB@Illegal?5number?5of?5MCT?5output?5com@ ; `string'
PUBLIC	??_C@_07BGFFFHMP@Clevels?$AA@			; `string'
PUBLIC	??_C@_0P@LMCGKBAC@Cuse_precincts?$AA@		; `string'
PUBLIC	??_C@_0NO@JDICNLBH@Attempting?5to?5write?5geometricall@ ; `string'
PUBLIC	??_C@_0L@KGBLICHL@Cprecincts?$AA@		; `string'
PUBLIC	??_C@_0OI@OALKHBMD@Error?5attempting?5to?5convert?5geom@ ; `string'
PUBLIC	??_C@_0JL@PMLPBNBK@Cannot?5write?5SIZ?5marker?5with?5ill@ ; `string'
PUBLIC	??_C@_0HF@BDHEFLHF@Illegal?5profile?5index?4?5?5?$CCSprofil@ ; `string'
PUBLIC	??_C@_0GO@MOMFJPHA@Unable?5to?5write?5SIZ?5marker?5segme@ ; `string'
PUBLIC	??_C@_0CB@NEMDCGAB@Illegal?5image?5sample?5bit?9depth?0?5@ ; `string'
PUBLIC	??_C@_0CP@NJAPNNOL@?4?5Legal?5range?5is?5from?51?5to?538?5bi@ ; `string'
PUBLIC	??_C@_0CK@FCLHCLL@Illegal?5component?5sub?9sampling?5f@ ; `string'
PUBLIC	??_C@_0CB@HBCCFDNA@?$HN?4?5Legal?5range?5is?5from?51?5to?5255?4@ ; `string'
PUBLIC	??_C@_0HM@MMCEOMEI@Unable?5to?5write?5CBD?5marker?5segme@ ; `string'
PUBLIC	??_C@_0CN@JHCHBCDJ@Illegal?5precision?5for?5MCT?5output@ ; `string'
PUBLIC	??_C@_0CI@CLEFFBLP@Invalid?5SIZ?5marker?5segment?5encou@ ; `string'
PUBLIC	??_C@_0DF@MIHNMLL@Malformed?5SIZ?5marker?5segment?5enc@ ; `string'
PUBLIC	??_C@_0BK@CHACHIIH@?5bytes?5were?5not?5consumed?$CB?$AA@ ; `string'
PUBLIC	??_C@_0EH@PJEAPICM@Malformed?5SIZ?5marker?5segment?5enc@ ; `string'
PUBLIC	??_C@_0DF@PNFFNEFI@Malformed?5CBD?5marker?5segment?5enc@ ; `string'
PUBLIC	??_C@_0EH@FOFCLFAN@Malformed?5CBD?5marker?5segment?5enc@ ; `string'
PUBLIC	??_C@_0JL@PLHBNPBC@Problem?5trying?5to?5finalize?5SIZ?5i@ ; `string'
PUBLIC	??_C@_0FP@HBBHOMDC@Problem?5trying?5to?5finalize?5SIZ?5i@ ; `string'
PUBLIC	??_C@_0GI@PICGKKPJ@Problem?5trying?5to?5finalize?5SIZ?5i@ ; `string'
PUBLIC	??_C@_0EA@FCCPDFNF@Image?5component?5sub?9sampling?5fac@ ; `string'
PUBLIC	??_C@_0II@DHNDEJOJ@Problem?5trying?5to?5finalize?5SIZ?5i@ ; `string'
PUBLIC	??_C@_0JH@NJJGGCNE@Problem?5trying?5to?5finalize?5SIZ?5i@ ; `string'
PUBLIC	??_C@_0KE@JLIAOLIC@Problem?5trying?5to?5finalize?5SIZ?5i@ ; `string'
PUBLIC	??_C@_0JJ@NPLIAPKO@Problem?5trying?5to?5finalize?5SIZ?5i@ ; `string'
PUBLIC	??_C@_0JH@IIBMOHD@Problem?5trying?5to?5finalize?5SIZ?5i@ ; `string'
PUBLIC	??_C@_0JO@OKOEKKHK@Problem?5trying?5to?5finalize?5SIZ?5i@ ; `string'
PUBLIC	??_C@_0JM@LALDBFDG@Problem?5trying?5to?5finalize?5SIZ?5i@ ; `string'
PUBLIC	??_C@_0HB@GIGMGNIM@Problem?5trying?5to?5finalize?5SIZ?5i@ ; `string'
PUBLIC	??_C@_0MN@GGGLGLFK@Problems?5trying?5to?5finalize?5SIZ?5@ ; `string'
PUBLIC	??_C@_0BFE@FLEIONEE@Illegal?5profile?5index?4?5?5?$CCSprofil@ ; `string'
PUBLIC	??_C@_04OONIPDNE@Cads?$AA@			; `string'
PUBLIC	??_C@_04NKICNHII@Cdfs?$AA@			; `string'
PUBLIC	??_C@_04HAOFMIPN@Catk?$AA@			; `string'
PUBLIC	??_C@_03IFCLAPBJ@ATK?$AA@			; `string'
PUBLIC	??_C@_0L@BNGLHLNI@Ksymmetric?$AA@		; `string'
PUBLIC	??_C@_0BA@JFAKJNFN@Calign_blk_last?$AA@		; `string'
PUBLIC	??_C@_0BG@JPDDDEGK@Kakadu?5Core?5Warning?3?6?$AA@ ; `string'
PUBLIC	??_C@_0IJ@LMINEOIM@Code?9stream?5profile?5had?5to?5be?5ch@ ; `string'
PUBLIC	??_C@_0NP@LDCOLEKI@Profile?5violation?5detected?4?5?5Cod@ ; `string'
PUBLIC	??_C@_0KG@LAENILL@Profile?5violation?5detected?4?5?5Cod@ ; `string'
PUBLIC	??_C@_0HP@KEPFIMCP@Profile?5violation?5detected?4?5?5Cod@ ; `string'
PUBLIC	??_C@_0JJ@ELMILGL@Profile?5violation?5detected?4?5?5Cod@ ; `string'
PUBLIC	??_C@_0JJ@DLDOMHMJ@Profile?5violation?5detected?4?5?5Cod@ ; `string'
PUBLIC	??_C@_03MNMMELJE@ORG?$AA@			; `string'
PUBLIC	??_C@_0L@CIAEHHDE@ORGgen_tlm?$AA@		; `string'
PUBLIC	??_C@_09CNLDEMAK@ORGtparts?$AA@			; `string'
PUBLIC	??_C@_0BAO@JPIFODPP@Profile?5violation?5detected?4?5?5Cod@ ; `string'
PUBLIC	??_C@_03LFCEPJHK@POC?$AA@			; `string'
PUBLIC	??_C@_06NMKHLFPN@Porder?$AA@			; `string'
PUBLIC	??_C@_0BAE@JMBBANBI@Profile?5violation?5detected?4?5?5You@ ; `string'
PUBLIC	??_C@_03BLMOALMK@MCT?$AA@			; `string'
PUBLIC	??_C@_0DPN@GBDINPGJ@Identifies?5the?5number?5of?5matrix?5@ ; `string'
PUBLIC	??_C@_0N@FIDBGNAL@Mmatrix_size?$AA@		; `string'
PUBLIC	??_C@_01BIAFAFID@F?$AA@				; `string'
PUBLIC	??_C@_0BGK@IHFIBLIK@Coefficients?5of?5the?5matrix?0?5if?5t@ ; `string'
PUBLIC	??_C@_0P@NJDNNBNG@Mmatrix_coeffs?$AA@		; `string'
PUBLIC	??_C@_0DNI@IDMIDCPL@Identifies?5the?5number?5of?5vector?5@ ; `string'
PUBLIC	??_C@_0N@EBBFOCKJ@Mvector_size?$AA@		; `string'
PUBLIC	??_C@_0BEO@GFEMDFDK@Coefficients?5of?5the?5vector?0?5if?5t@ ; `string'
PUBLIC	??_C@_0P@DIALIICI@Mvector_coeffs?$AA@		; `string'
PUBLIC	??_C@_0EBK@HDHPILKI@Identifies?5the?5total?5number?5of?5s@ ; `string'
PUBLIC	??_C@_0N@CCNKIJHO@Mtriang_size?$AA@		; `string'
PUBLIC	??_C@_0CAB@FHBPNALP@Coefficients?5of?5the?5sub?9triangul@ ; `string'
PUBLIC	??_C@_0P@CMBCAAOP@Mtriang_coeffs?$AA@		; `string'
PUBLIC	??_C@_0KN@OBNKNPAB@Failed?5to?5read?5all?5MCT?5marker?5se@ ; `string'
PUBLIC	??_C@_0JE@JFBAAJII@Illegal?5value?5?$CIanything?5?$DM?$DN?50?$CJ?5fo@ ; `string'
PUBLIC	??_C@_0OJ@PDOPGBL@It?5is?5illegal?5to?5supply?5?$GAMvector@ ; `string'
PUBLIC	??_C@_0NI@PEHFOKHE@The?5number?5of?5?$GAMmatrix_coeffs?8?0?5@ ; `string'
PUBLIC	??_C@_0BBF@IPOKLLIB@Encountered?5repeat?5or?5out?9of?9ran@ ; `string'
PUBLIC	??_C@_0BCP@HHOAMAFM@Encountered?5out?9of?9order?5?$GAZmct?8?5@ ; `string'
PUBLIC	??_C@_0EI@NNANLLPB@Malformed?5MCT?5marker?5segment?5enc@ ; `string'
PUBLIC	??_C@_0DF@BKIIOFOO@Malformed?5MCT?5marker?5segment?5enc@ ; `string'
PUBLIC	??_C@_03BOENIPFM@MCC?$AA@			; `string'
PUBLIC	??_C@_0DAF@JDFCJPDD@This?5attribute?5is?5used?5to?5descri@ ; `string'
PUBLIC	??_C@_0O@BOOPOFOH@Mstage_inputs?$AA@		; `string'
PUBLIC	??_C@_0DLG@NNDEDDPH@This?5attribute?5is?5used?5to?5descri@ ; `string'
PUBLIC	??_C@_0P@HHFGMPDO@Mstage_outputs?$AA@		; `string'
PUBLIC	??_C@_0CLK@PPHGAGLD@This?5attribute?5provides?5the?5valu@ ; `string'
PUBLIC	??_C@_0BD@ONKCHMLA@Mstage_collections?$AA@	; `string'
PUBLIC	??_C@_0CE@JIOANCKI@?$CIDEP?$DN0?0MATRIX?$DN9?0DWT?$DN3?0MAT?$DN1000?$CJI@ ; `string'
PUBLIC	??_C@_0IIP@CHGEJKJG@This?5attribute?5provides?5one?5reco@ ; `string'
PUBLIC	??_C@_0O@FPIFFAOF@Mstage_xforms?$AA@		; `string'
PUBLIC	??_C@_0MP@KPAJGLC@Illegal?5parameters?5supplied?5for?5@ ; `string'
PUBLIC	??_C@_0NA@EPMHNEKF@Illegal?5parameters?5supplied?5for?5@ ; `string'
PUBLIC	??_C@_0KN@DKKKLGFN@Malformed?5?$GAMstage_blocks?8?5attrib@ ; `string'
PUBLIC	??_C@_0BBC@MHOANFBM@Malformed?5?$GAMstage_blocks?8?5attrib@ ; `string'
PUBLIC	??_C@_0KK@DLAOAECJ@Malformed?5?$GAMstage_xforms?8?5attrib@ ; `string'
PUBLIC	??_C@_0KH@KFJPFAEH@Malformed?5?$GAMstage_xforms?8?5attrib@ ; `string'
PUBLIC	??_C@_0NL@PJCAENA@Malformed?5?$GAMstage_xforms?8?5attrib@ ; `string'
PUBLIC	??_C@_0LD@CNACCFCO@Malformed?5?$GAMstage_xforms?8?5attrib@ ; `string'
PUBLIC	??_C@_0BEB@BKBLPOMO@Encountered?5MCC?5?$CIMulti?9component@ ; `string'
PUBLIC	??_C@_0HM@HFEFAMNA@Malformed?5MCC?5marker?5segment?5enc@ ; `string'
PUBLIC	??_C@_0EI@NPIHMIKE@Malformed?5MCC?5marker?5segment?5enc@ ; `string'
PUBLIC	??_C@_0DF@LFIMCEFC@Malformed?5MCC?5marker?5segment?5enc@ ; `string'
PUBLIC	??_C@_0BIP@MNLLGAPJ@Unable?5to?5write?5MCC?5?$CIMulti?9compo@ ; `string'
PUBLIC	??_C@_0DJM@PGFFJOFI@You?5can?5no?5longer?5generate?5a?5cod@ ; `string'
PUBLIC	??_C@_03LCPIMAFA@MCO?$AA@			; `string'
PUBLIC	??_C@_0FCK@KEJNIDFA@Identifies?5the?5number?5of?5stages?5@ ; `string'
PUBLIC	??_C@_0M@BMJAMMCN@Mnum_stages?$AA@		; `string'
PUBLIC	??_C@_0BKE@DNMMMJKF@Provides?5?$GAMnum_stages?8?5records?0?5@ ; `string'
PUBLIC	??_C@_07CNNLMAHC@Mstages?$AA@			; `string'
PUBLIC	??_C@_0BCA@FMBIIPEN@Unable?5to?5modify?5the?5existing?5mu@ ; `string'
PUBLIC	??_C@_0JP@JHGJOPNH@You?5may?5not?5provide?5a?5value?5for?5@ ; `string'
PUBLIC	??_C@_0GN@BOBKGGGG@The?5number?5of?5records?5supplied?5f@ ; `string'
PUBLIC	??_C@_0DF@IOEIPGFI@Malformed?5MCO?5marker?5segment?5enc@ ; `string'
PUBLIC	??_C@_0EH@FMIBNLCC@Malformed?5MCO?5marker?5segment?5enc@ ; `string'
PUBLIC	??_C@_0EP@OLCFAFPF@Cannot?5write?5MCO?5marker?5segment?$DL@ ; `string'
PUBLIC	??_C@_0CGL@OFBGPMKE@This?5attribute?5determines?5how?5th@ ; `string'
PUBLIC	??_C@_0M@OFOCCDJH@Kreversible?$AA@		; `string'
PUBLIC	??_C@_0COP@MOCEJKKL@If?5true?0?5the?5transform?5kernel?5be@ ; `string'
PUBLIC	??_C@_0O@PBGDLPEF@?$CICON?$DN0?0SYM?$DN1?$CJ?$AA@ ; `string'
PUBLIC	??_C@_0CNF@DACPPFDL@Identifies?5the?5boundary?5extensio@ ; `string'
PUBLIC	??_C@_0L@JOGHAEOB@Kextension?$AA@		; `string'
PUBLIC	??_C@_04NENCGHGO@IIII?$AA@			; `string'
PUBLIC	??_C@_0DMN@NFEELAKF@Array?5with?5one?5entry?5for?5each?5li@ ; `string'
PUBLIC	??_C@_0CIE@OIBNHEMA@Holds?5the?5lifting?5coefficients?0?5@ ; `string'
PUBLIC	??_C@_0BIA@GBIBAJFK@Cannot?5transpose?5ATK?5marker?5segm@ ; `string'
PUBLIC	??_C@_0IK@HMACHLFE@You?5cannot?5provide?5custom?5transf@ ; `string'
PUBLIC	??_C@_0GB@HNGPDMEK@Incomplete?5?$GAKsteps?8?5record?5?$CIneed@ ; `string'
PUBLIC	??_C@_0IB@GILFGDAI@Invalid?5downshifting?5value?5?$CI3?8rd@ ; `string'
PUBLIC	??_C@_0IK@EBAJKINC@For?5irreversible?5transforms?5?$CI?$GAKr@ ; `string'
PUBLIC	??_C@_0LL@ICCFCJEB@Insufficient?5?$GAKcoeffs?8?5records?5f@ ; `string'
PUBLIC	??_C@_0LH@KFFJGFML@Too?5many?5?$GAKcoeffs?8?5records?5found@ ; `string'
PUBLIC	??_C@_0HP@IHFGAOCO@Reversible?5lifting?5steps?5defined@ ; `string'
PUBLIC	??_C@_0OH@MFIHEDLO@Invalid?5?$GAKsymmetric?8?5value?5found@ ; `string'
PUBLIC	??_C@_0GL@MACCMDJG@Cannot?5process?5ATK?5marker?5segmen@ ; `string'
PUBLIC	??_C@_0JJ@EJINJNCB@Malformed?5ATK?5marker?5segment?5enc@ ; `string'
PUBLIC	??_C@_0HD@HJBDDKNG@Cannot?5process?5ATK?5marker?5segmen@ ; `string'
PUBLIC	??_C@_0EI@CBNJBHNF@Malformed?5ATK?5marker?5segment?5enc@ ; `string'
PUBLIC	??_C@_0DF@MILOCDIO@Malformed?5ATK?5marker?5segment?5enc@ ; `string'
PUBLIC	??_C@_0DL@COILGNIP@Unable?5to?5write?5ATK?5marker?5segme@ ; `string'
PUBLIC	??_C@_0EC@DFOKDDOA@Cannot?5write?5ATK?5?$CIarbitrary?5tran@ ; `string'
PUBLIC	??_C@_0DI@KAHDNOFP@lifting?5steps?4?5?5Maximum?5number?5o@ ; `string'
PUBLIC	??_C@_0JK@FJJJODFB@Cannot?5write?5ATK?5?$CIarbitrary?5tran@ ; `string'
PUBLIC	??_C@_0JA@OGLNENPI@Cannot?5write?5ATK?5?$CIarbitrary?5tran@ ; `string'
PUBLIC	??_C@_03ELMDPBLM@QCD?$AA@			; `string'
PUBLIC	??_C@_0KP@IBLLLJAN@RGB?5to?5Luminance?9Chrominance?5con@ ; `string'
PUBLIC	??_C@_04DEPIIIHA@Cycc?$AA@			; `string'
PUBLIC	??_C@_0BA@NBBPEJNG@?$FLARRAY?$DN2?$HMDWT?$DN4?$FN?$AA@ ; `string'
PUBLIC	??_C@_0FCM@DHPAPCJF@This?5parameter?5should?5be?50?5unles@ ; `string'
PUBLIC	??_C@_04OOAAMMCO@Cmct?$AA@			; `string'
PUBLIC	??_C@_0EB@BJCCPLJM@Number?5of?5quality?5layers?4?5May?5no@ ; `string'
PUBLIC	??_C@_07BJCMAMHC@Clayers?$AA@			; `string'
PUBLIC	??_C@_0EK@NKHIFEB@Include?5SOP?5markers?5?$CIi?4e?4?0?5resyn@ ; `string'
PUBLIC	??_C@_08DAJNLNLL@Cuse_sop?$AA@			; `string'
PUBLIC	??_C@_0FG@HPJEBCAG@Include?5EPH?5markers?5?$CImarker?5end?5@ ; `string'
PUBLIC	??_C@_08NAIOMJOM@Cuse_eph?$AA@			; `string'
PUBLIC	??_C@_0CF@FILGKLGM@?$CILRCP?$DN0?0RLCP?$DN1?0RPCL?$DN2?0PCRL?$DN3?0CPR@ ; `string'
PUBLIC	??_C@_0BFK@PBIMDDLA@Default?5progression?5order?5?$CImay?5b@ ; `string'
PUBLIC	??_C@_06IKJBDDKO@Corder?$AA@			; `string'
PUBLIC	??_C@_02LBOPFCME@BB?$AA@			; `string'
PUBLIC	??_C@_0CAO@IFLBKBBI@If?5?$CCyes?$CC?0?5the?5code?9block?5partiti@ ; `string'
PUBLIC	??_C@_0FI@ILBHKDEJ@Number?5of?5wavelet?5decomposition?5@ ; `string'
PUBLIC	??_C@_0DCE@BCLFNHJE@Index?5of?5the?5ADS?5marker?5segment?5@ ; `string'
PUBLIC	??_C@_0DIF@JIOHBMHM@Index?5of?5the?5DFS?5marker?5segment?5@ ; `string'
PUBLIC	??_C@_0MDH@GKKAPHJL@Manages?5the?5information?5associat@ ; `string'
PUBLIC	??_C@_0JI@BJEOBCA@Reversible?5compression?$DP?6?7?7?$FLDefau@ ; `string'
PUBLIC	??_C@_0M@ODOOFFGJ@Creversible?$AA@		; `string'
PUBLIC	??_C@_0BH@OGDGPMGJ@?$CIW9X7?$DN0?0W5X3?$DN1?0ATK?$DN?91?$CJ?$AA@ ; `string'
PUBLIC	??_C@_0BDE@IGHHDMOK@Wavelet?5kernels?5to?5use?4?5?5The?5spe@ ; `string'
PUBLIC	??_C@_0CNA@EFIGBGL@A?5value?5of?50?5means?5that?5the?5DWT?5@ ; `string'
PUBLIC	??_C@_0HE@LHMCCMEI@Explicitly?5specify?5whether?5or?5no@ ; `string'
PUBLIC	??_C@_0BEJ@DFLAPAFH@Precinct?5dimensions?5?$CImust?5be?5pow@ ; `string'
PUBLIC	??_C@_0PA@DKDAIDMK@Nominal?5code?9block?5dimensions?5?$CIm@ ; `string'
PUBLIC	??_C@_04HAGFJFNL@Cblk?$AA@			; `string'
PUBLIC	??_C@_0DL@FGLGNEBO@?$FLBYPASS?$DN1?$HMRESET?$DN2?$HMRESTART?$DN4?$HMCAUS@ ; `string'
PUBLIC	??_C@_0GG@LCCKLEAC@Block?5coder?5mode?5switches?4?5Any?5c@ ; `string'
PUBLIC	??_C@_06EGDCPANH@Cmodes?$AA@			; `string'
PUBLIC	??_C@_0BHM@MPDDOEC@Multiplier?5for?5subband?5weighting@ ; `string'
PUBLIC	??_C@_07HDHNGJDI@Cweight?$AA@			; `string'
PUBLIC	??_C@_0CEE@FMHLHNCK@Weighting?5factors?5for?5each?5succe@ ; `string'
PUBLIC	??_C@_0N@HICBBPMC@Clev_weights?$AA@		; `string'
PUBLIC	??_C@_0FOI@OMMBBAAN@Weighting?5factors?5for?5each?5succe@ ; `string'
PUBLIC	??_C@_0O@GLALLHKC@Cband_weights?$AA@		; `string'
PUBLIC	??_C@_0HEO@NJIJCAOA@Maximum?5number?5of?5compressed?5byt@ ; `string'
PUBLIC	??_C@_0M@HKNEBDCB@Creslengths?$AA@		; `string'
PUBLIC	??_C@_0HE@NKGALBNL@Attempting?5to?5discard?5too?5many?5r@ ; `string'
PUBLIC	??_C@_0HD@OCHJAHPC@Unable?5to?5write?5COD?5marker?5segme@ ; `string'
PUBLIC	??_C@_0BLH@FGHKBOHC@Illegal?5combination?5of?5?$GAClevels?8@ ; `string'
PUBLIC	??_C@_0BEM@DMPFDMNO@Illegal?5combination?5of?5?$GAClevels?8@ ; `string'
PUBLIC	??_C@_0CD@EICILEGK@Illegal?5number?5of?5quality?5layers@ ; `string'
PUBLIC	??_C@_0BP@JIANFEOP@Illegal?5number?5of?5DWT?5levels?0?5?$AA@ ; `string'
PUBLIC	??_C@_0BK@GFANLIDL@?4?5Legal?5range?5is?50?5to?532?$CB?$AA@ ; `string'
PUBLIC	??_C@_0HM@DEKELPAG@You?5cannot?5use?5a?5Part?91?5colour?5t@ ; `string'
PUBLIC	??_C@_0JD@JKCKBNOF@You?5cannot?5use?5a?5colour?5transfor@ ; `string'
PUBLIC	??_C@_0NK@HPJJFAAC@Profile?5violation?5detected?5?$CIcode@ ; `string'
PUBLIC	??_C@_0LA@PCHBPKGD@Profile?5violation?5detected?4?5?5COD@ ; `string'
PUBLIC	??_C@_0BAB@INJJPFGA@About?5to?5write?5a?5component?9speci@ ; `string'
PUBLIC	??_C@_0BBG@KCPOGFOJ@Illegal?5?$GACkernels?8?5value?5found?5w@ ; `string'
PUBLIC	??_C@_0HN@HPMPNOPC@Illegal?5ATK?5instance?5index?5found@ ; `string'
PUBLIC	??_C@_0DD@IFOGDLHK@Maximum?5code?9block?5dimensions?5mu@ ; `string'
PUBLIC	??_C@_0HD@OIMMHFN@Maximum?5code?9block?5dimensions?5mu@ ; `string'
PUBLIC	??_C@_0CN@PBFFALNG@No?5precinct?5dimensions?5supplied?5@ ; `string'
PUBLIC	??_C@_0CP@INIGLHJN@Precinct?5dimensions?5must?5be?5exac@ ; `string'
PUBLIC	??_C@_0CJ@EGMBEELA@Precinct?5dimensions?5may?5not?5exce@ ; `string'
PUBLIC	??_C@_0EA@CJECMJPA@Malformed?5COD?5marker?5segment?5enc@ ; `string'
PUBLIC	??_C@_0EH@OJAEGGAB@Malformed?5COD?5marker?5segment?5enc@ ; `string'
PUBLIC	??_C@_0DE@LDDJFDOP@Malformed?5COC?5marker?5segment?4?5In@ ; `string'
PUBLIC	??_C@_0EH@CMJBHJJH@Malformed?5COC?5marker?5segment?5enc@ ; `string'
PUBLIC	??_C@_0DJ@BKGFKCIK@Malformed?5COD?1COC?5marker?5segment@ ; `string'
PUBLIC	??_C@_0EL@MEODJCKN@Malformed?5COD?1COC?5marker?5segment@ ; `string'
PUBLIC	??_C@_0GK@BLGJFPGL@?0?5detected?5by?5coding?5parameter?5s@ ; `string'
PUBLIC	??_C@_0HP@FAEJKEME@?0?5detected?5by?5coding?5parameter?5s@ ; `string'
PUBLIC	??_C@_03BLBGDEDA@ADS?$AA@			; `string'
PUBLIC	??_C@_0JP@NFJAKPFP@ADS?5table?5index?5encountered?5whil@ ; `string'
PUBLIC	??_C@_03CPEMBAGM@DFS?$AA@			; `string'
PUBLIC	??_C@_0JL@PNHEEPLI@DFS?5table?5index?5encountered?5whil@ ; `string'
PUBLIC	??_C@_0KB@HDNIPBLH@Unable?5to?5access?5the?5?$GAKreversibl@ ; `string'
PUBLIC	??_C@_0BAO@ECCKKNFO@Illegal?5?$GACkernels?8?5value?5found?5w@ ; `string'
PUBLIC	??_C@_0HE@FAOENAIF@Illegal?5ATK?5instance?5index?5found@ ; `string'
PUBLIC	??_C@_0BBC@GFMDHLNB@Profile?5violation?5detected?4?5?5The@ ; `string'
PUBLIC	??_C@_0KF@NKKOHPBE@Profile?5violation?5detected?4?5?5The@ ; `string'
PUBLIC	??_C@_0IK@BEGMJOLL@Profile?5violation?5detected?4?5?5Req@ ; `string'
PUBLIC	??_C@_0OO@FGOLANDB@Profile?5violation?5detected?4?5?5Req@ ; `string'
PUBLIC	??_C@_0DGO@NKGPBPEP@Profile?5violation?5may?5occur?5with@ ; `string'
PUBLIC	??_C@_0HC@OGIJFNLO@Profile?5violation?5detected?4?5?5The@ ; `string'
PUBLIC	??_C@_0BB@NIPBGPHB@?5levels?0?5though?4?$AA@	; `string'
PUBLIC	??_C@_0FM@FEAHACJA@Profile?5violation?5detected?4?5?5The@ ; `string'
PUBLIC	??_C@_0HC@MIEFLBEH@Profile?5violation?5detected?4?5?5The@ ; `string'
PUBLIC	??_C@_0BDN@MGKCOKBG@You?5are?5attempting?5to?5define?5a?5d@ ; `string'
PUBLIC	??_C@_07MCCNNBND@Ddecomp?$AA@			; `string'
PUBLIC	??_C@_05MIABAABB@DOads?$AA@			; `string'
PUBLIC	??_C@_05GNBBHKJC@DSads?$AA@			; `string'
PUBLIC	??_C@_05FJELFOMO@DSdfs?$AA@			; `string'
PUBLIC	??_C@_0BHK@LADFPGOB@Unacceptable?5interaction?5between@ ; `string'
PUBLIC	??_C@_0DH@CDDAMBJI@Encountered?5invalid?5terminal?5?$GACd@ ; `string'
PUBLIC	??_C@_04GPPIMOMJ@?$CC?4?5?5?$AA@		; `string'
PUBLIC	??_C@_0CKE@KBAACNPK@Terminal?5splitting?5styles?5must?5h@ ; `string'
PUBLIC	??_C@_0FO@DKHKMNAI@Incompatible?5?$GADSdfs?8?5and?5?$GACdecom@ ; `string'
PUBLIC	??_C@_0BHE@CMGODJOA@This?5attribute?5is?5ultimately?5set@ ; `string'
PUBLIC	??_C@_0BIG@MKJOPHKN@Number?5of?5sub?9levels?5in?5each?5suc@ ; `string'
PUBLIC	??_C@_0BC@GOBGDILI@?$CIX?$DN0?0H?$DN1?0V?$DN2?0B?$DN3?$CJ?$AA@ ; `string'
PUBLIC	??_C@_0CII@LBPCLNH@Array?5of?5splitting?5instructions?0@ ; `string'
PUBLIC	??_C@_0KK@HLPJKNOJ@The?5?$GADdecomp?8?5attribute?5may?5be?5d@ ; `string'
PUBLIC	??_C@_0CO@MBLLCAAI@Encountered?5invalid?5?$GADdecomp?8?5at@ ; `string'
PUBLIC	??_C@_04FOFDHDLH@?0?50x?$AA@			; `string'
PUBLIC	??_C@_0EH@JBFCFNFB@Malformed?5ADS?5marker?5segment?5enc@ ; `string'
PUBLIC	??_C@_0DF@KMABOOPE@Malformed?5ADS?5marker?5segment?5enc@ ; `string'
PUBLIC	??_C@_0DBH@IBFFCHEI@Describes?5the?5primary?5subband?5de@ ; `string'
PUBLIC	??_C@_0KI@NOLDCDIM@The?5?$GADSdfs?8?5attribute?5may?5be?5def@ ; `string'
PUBLIC	??_C@_0FI@CMPAFODD@Illegal?5?$GADSdfs?8?5attribute?5value?5@ ; `string'
PUBLIC	??_C@_0EH@IOANDJIM@Malformed?5DFS?5marker?5segment?5enc@ ; `string'
PUBLIC	??_C@_0DF@LFCOMKDP@Malformed?5DFS?5marker?5segment?5enc@ ; `string'
PUBLIC	??_C@_0IA@OLHAIOBI@Number?5of?5guard?5bits?5to?5prevent?5@ ; `string'
PUBLIC	??_C@_06BGIMBACE@Qguard?$AA@			; `string'
PUBLIC	??_C@_0BIH@EIAIGKMJ@Quantization?5steps?5derived?5from?5@ ; `string'
PUBLIC	??_C@_08CCOBJCLJ@Qderived?$AA@			; `string'
PUBLIC	??_C@_0KK@JJMLLFOI@Base?5step?5size?5to?5be?5used?5in?5der@ ; `string'
PUBLIC	??_C@_05LCODFIOH@Qstep?$AA@			; `string'
PUBLIC	??_C@_0DLI@DECHONMD@Absolute?5quantization?5step?5sizes@ ; `string'
PUBLIC	??_C@_0DGG@FMKFADLL@Number?5of?5range?5bits?5used?5to?5cod@ ; `string'
PUBLIC	??_C@_0FL@MPLKHCGE@Cannot?5write?5QCD?1QCC?5marker?5segm@ ; `string'
PUBLIC	??_C@_0EA@FNJKHCGL@Cannot?5write?5QCD?1QCC?5marker?5segm@ ; `string'
PUBLIC	??_C@_0HA@COCFLGOG@Cannot?5write?5QCD?1QCC?5marker?5segm@ ; `string'
PUBLIC	??_C@_0FP@CMAJFDH@Cannot?5write?5QCD?1QCC?5marker?5segm@ ; `string'
PUBLIC	??_C@_0GB@PFKIFKOG@Cannot?5write?5QCD?1QCC?5marker?5segm@ ; `string'
PUBLIC	??_C@_0FI@LONAPNHG@Cannot?5write?5QCD?1QCC?5marker?5segm@ ; `string'
PUBLIC	??_C@_0BP@OIAJENOM@Illegal?5number?5of?5guard?5bits?0?5?$AA@ ; `string'
PUBLIC	??_C@_0BO@CHOCCCME@?4?5Legal?5range?5is?5from?50?5to?57?4?$AA@ ; `string'
PUBLIC	??_C@_0NK@HGFFBJED@Profile?5violation?5detected?5?$CIcode@ ; `string'
PUBLIC	??_C@_0LA@JJEBFCFM@Profile?5violation?5detected?4?5?5QCD@ ; `string'
PUBLIC	??_C@_0FG@JFODLLGA@Insufficient?5absolute?5ranging?5pa@ ; `string'
PUBLIC	??_C@_0GI@PNGCMGM@Absolute?5ranging?5parameters?5for?5@ ; `string'
PUBLIC	??_C@_0GG@CKIKGBGG@Insufficient?5absolute?5quantizati@ ; `string'
PUBLIC	??_C@_0DG@NCOMABPP@Undefined?5style?5byte?5found?5in?5QC@ ; `string'
PUBLIC	??_C@_0EL@LJBJPKLN@Malformed?5QCD?1QCC?5marker?5segment@ ; `string'
PUBLIC	??_C@_0DJ@EBJLBPEO@Malformed?5QCD?1QCC?5marker?5segment@ ; `string'
PUBLIC	??_C@_0JH@IGLAJBAL@Trying?5to?5finalize?5quantization?5@ ; `string'
PUBLIC	??_C@_0BBO@GCINCGGG@Some?5absolute?5step?5sizes?5which?5y@ ; `string'
PUBLIC	??_C@_03KEJABOAE@RGN?$AA@			; `string'
PUBLIC	??_C@_0CHI@HKJBINKE@Region?5of?5interest?5up?9shift?5valu@ ; `string'
PUBLIC	??_C@_06LDAKCIBF@Rshift?$AA@			; `string'
PUBLIC	??_C@_0BBM@FGPIIKPE@Number?5of?5initial?5?$CIhighest?5frequ@ ; `string'
PUBLIC	??_C@_07KGEEGGHK@Rlevels?$AA@			; `string'
PUBLIC	??_C@_0DBK@IHBAFPAL@Region?5of?5interest?5significance?5@ ; `string'
PUBLIC	??_C@_07MDGMFIIN@Rweight?$AA@			; `string'
PUBLIC	??_C@_0BH@MGDBKNNO@Illegal?5ROI?5up?9shift?0?5?$AA@ ; `string'
PUBLIC	??_C@_0CA@JLDBBJDK@?4?5Legal?5range?5is?5from?50?5to?5255?$CB?$AA@ ; `string'
PUBLIC	??_C@_0JH@FLFHNCLL@Profile?5violation?5detected?4?5?5RGN@ ; `string'
PUBLIC	??_C@_0CK@MFEGEGLF@Encountered?5non?9Part1?5RGN?5marker@ ; `string'
PUBLIC	??_C@_0DF@HODFHOAP@Malformed?5RGN?5marker?5segment?5enc@ ; `string'
PUBLIC	??_C@_0EH@OLOKKCBP@Malformed?5RGN?5marker?5segment?5enc@ ; `string'
PUBLIC	??_C@_0HN@DAMJBHKE@Up?9shift?5values?5in?5the?5RGN?5marke@ ; `string'
PUBLIC	??_C@_0CD@DOBDENMB@?5in?5this?5case?0?5may?5cause?5problem@ ; `string'
PUBLIC	??_C@_0CK@KBNJDDCF@IIIII?$CILRCP?$DN0?0RLCP?$DN1?0RPCL?$DN2?0PCRL?$DN@ ; `string'
PUBLIC	??_C@_0EPM@KNAANCKO@Progression?5order?5change?5informa@ ; `string'
PUBLIC	??_C@_0EM@NECPBKCJ@Information?5required?5to?5write?5PO@ ; `string'
PUBLIC	??_C@_0MI@GKHFMGFB@Profile?5violation?5detected?4?5?5POC@ ; `string'
PUBLIC	??_C@_0PF@DBCFCBGN@Profile?5violation?5detected?4?5?5POC@ ; `string'
PUBLIC	??_C@_0BG@CGBIAPKK@Illegal?5lower?5bound?0?5?$AA@ ; `string'
PUBLIC	??_C@_0GE@OHOJBMOK@?0?5for?5resolution?5level?5indices?5i@ ; `string'
PUBLIC	??_C@_0CC@GBMHHECB@Illegal?5upper?5bound?5?$CIexclusive?$CJ?0@ ; `string'
PUBLIC	??_C@_0HG@EBOPONFH@?0?5for?5resolution?5level?5indices?5i@ ; `string'
PUBLIC	??_C@_0FK@PKCGAEDD@?0?5for?5component?5indices?5in?5progr@ ; `string'
PUBLIC	??_C@_0GM@ILNCJPIC@?0?5for?5component?5indices?5in?5progr@ ; `string'
PUBLIC	??_C@_0FG@HKJPGEGC@?0?5for?5layer?5indices?5in?5progressi@ ; `string'
PUBLIC	??_C@_0DF@CKFKOFOF@Malformed?5POC?5marker?5segment?5enc@ ; `string'
PUBLIC	??_C@_0EH@BLNGGECC@Malformed?5POC?5marker?5segment?5enc@ ; `string'
PUBLIC	??_C@_03IHBKPECM@CRG?$AA@			; `string'
PUBLIC	??_C@_02NCIKDPBM@FF?$AA@			; `string'
PUBLIC	??_C@_0CHB@BGCOENBE@Provides?5additional?5component?5re@ ; `string'
PUBLIC	??_C@_09NPOAGBMD@CRGoffset?$AA@			; `string'
PUBLIC	??_C@_0CP@EMDHCGDH@Component?5registration?5informati@ ; `string'
PUBLIC	??_C@_0CK@GJEKKMBC@Illegal?5component?5registration?5o@ ; `string'
PUBLIC	??_C@_0DA@KDCPJNDM@?$HN?4?5?5Legal?5range?5is?5from?50?40?5to?51@ ; `string'
PUBLIC	??_C@_0DF@NCKAKJE@Malformed?5CRG?5marker?5segment?5enc@ ; `string'
PUBLIC	??_C@_0EH@POKFGLCF@Malformed?5CRG?5marker?5segment?5enc@ ; `string'
PUBLIC	??_C@_0O@PEKBJBJM@?$FLR?$DN1?$HML?$DN2?$HMC?$DN4?$FN?$AA@ ; `string'
PUBLIC	??_C@_0DHD@FDALIENE@Controls?5the?5division?5of?5each?5ti@ ; `string'
PUBLIC	??_C@_0CLF@KMEJMICF@Requests?5the?5insertion?5of?5packet@ ; `string'
PUBLIC	??_C@_0L@DMGGEJHL@ORGgen_plt?$AA@		; `string'
PUBLIC	??_C@_0FAH@DOOOICPM@Requests?5the?5insertion?5of?5TLM?5?$CIt@ ; `string'
PUBLIC	??_R4kdu_params@@6B@				; kdu_params::`RTTI Complete Object Locator'
PUBLIC	??_R0?AVkdu_params@@@8				; kdu_params `RTTI Type Descriptor'
PUBLIC	??_R3kdu_params@@8				; kdu_params::`RTTI Class Hierarchy Descriptor'
PUBLIC	??_R2kdu_params@@8				; kdu_params::`RTTI Base Class Array'
PUBLIC	??_R1A@?0A@EA@kdu_params@@8			; kdu_params::`RTTI Base Class Descriptor at (0,-1,0,64)'
PUBLIC	??_R4siz_params@@6B@				; siz_params::`RTTI Complete Object Locator'
PUBLIC	??_R0?AVsiz_params@@@8				; siz_params `RTTI Type Descriptor'
PUBLIC	??_R3siz_params@@8				; siz_params::`RTTI Class Hierarchy Descriptor'
PUBLIC	??_R2siz_params@@8				; siz_params::`RTTI Base Class Array'
PUBLIC	??_R1A@?0A@EA@siz_params@@8			; siz_params::`RTTI Base Class Descriptor at (0,-1,0,64)'
PUBLIC	??_R4mct_params@@6B@				; mct_params::`RTTI Complete Object Locator'
PUBLIC	??_R0?AVmct_params@@@8				; mct_params `RTTI Type Descriptor'
PUBLIC	??_R3mct_params@@8				; mct_params::`RTTI Class Hierarchy Descriptor'
PUBLIC	??_R2mct_params@@8				; mct_params::`RTTI Base Class Array'
PUBLIC	??_R1A@?0A@EA@mct_params@@8			; mct_params::`RTTI Base Class Descriptor at (0,-1,0,64)'
PUBLIC	??_R4mcc_params@@6B@				; mcc_params::`RTTI Complete Object Locator'
PUBLIC	??_R0?AVmcc_params@@@8				; mcc_params `RTTI Type Descriptor'
PUBLIC	??_R3mcc_params@@8				; mcc_params::`RTTI Class Hierarchy Descriptor'
PUBLIC	??_R2mcc_params@@8				; mcc_params::`RTTI Base Class Array'
PUBLIC	??_R1A@?0A@EA@mcc_params@@8			; mcc_params::`RTTI Base Class Descriptor at (0,-1,0,64)'
PUBLIC	??_R4mco_params@@6B@				; mco_params::`RTTI Complete Object Locator'
PUBLIC	??_R0?AVmco_params@@@8				; mco_params `RTTI Type Descriptor'
PUBLIC	??_R3mco_params@@8				; mco_params::`RTTI Class Hierarchy Descriptor'
PUBLIC	??_R2mco_params@@8				; mco_params::`RTTI Base Class Array'
PUBLIC	??_R1A@?0A@EA@mco_params@@8			; mco_params::`RTTI Base Class Descriptor at (0,-1,0,64)'
PUBLIC	??_R4atk_params@@6B@				; atk_params::`RTTI Complete Object Locator'
PUBLIC	??_R0?AVatk_params@@@8				; atk_params `RTTI Type Descriptor'
PUBLIC	??_R3atk_params@@8				; atk_params::`RTTI Class Hierarchy Descriptor'
PUBLIC	??_R2atk_params@@8				; atk_params::`RTTI Base Class Array'
PUBLIC	??_R1A@?0A@EA@atk_params@@8			; atk_params::`RTTI Base Class Descriptor at (0,-1,0,64)'
PUBLIC	??_R4cod_params@@6B@				; cod_params::`RTTI Complete Object Locator'
PUBLIC	??_R0?AVcod_params@@@8				; cod_params `RTTI Type Descriptor'
PUBLIC	??_R3cod_params@@8				; cod_params::`RTTI Class Hierarchy Descriptor'
PUBLIC	??_R2cod_params@@8				; cod_params::`RTTI Base Class Array'
PUBLIC	??_R1A@?0A@EA@cod_params@@8			; cod_params::`RTTI Base Class Descriptor at (0,-1,0,64)'
PUBLIC	??_R4ads_params@@6B@				; ads_params::`RTTI Complete Object Locator'
PUBLIC	??_R0?AVads_params@@@8				; ads_params `RTTI Type Descriptor'
PUBLIC	??_R3ads_params@@8				; ads_params::`RTTI Class Hierarchy Descriptor'
PUBLIC	??_R2ads_params@@8				; ads_params::`RTTI Base Class Array'
PUBLIC	??_R1A@?0A@EA@ads_params@@8			; ads_params::`RTTI Base Class Descriptor at (0,-1,0,64)'
PUBLIC	??_R4dfs_params@@6B@				; dfs_params::`RTTI Complete Object Locator'
PUBLIC	??_R0?AVdfs_params@@@8				; dfs_params `RTTI Type Descriptor'
PUBLIC	??_R3dfs_params@@8				; dfs_params::`RTTI Class Hierarchy Descriptor'
PUBLIC	??_R2dfs_params@@8				; dfs_params::`RTTI Base Class Array'
PUBLIC	??_R1A@?0A@EA@dfs_params@@8			; dfs_params::`RTTI Base Class Descriptor at (0,-1,0,64)'
PUBLIC	??_R4qcd_params@@6B@				; qcd_params::`RTTI Complete Object Locator'
PUBLIC	??_R0?AVqcd_params@@@8				; qcd_params `RTTI Type Descriptor'
PUBLIC	??_R3qcd_params@@8				; qcd_params::`RTTI Class Hierarchy Descriptor'
PUBLIC	??_R2qcd_params@@8				; qcd_params::`RTTI Base Class Array'
PUBLIC	??_R1A@?0A@EA@qcd_params@@8			; qcd_params::`RTTI Base Class Descriptor at (0,-1,0,64)'
PUBLIC	??_R4rgn_params@@6B@				; rgn_params::`RTTI Complete Object Locator'
PUBLIC	??_R0?AVrgn_params@@@8				; rgn_params `RTTI Type Descriptor'
PUBLIC	??_R3rgn_params@@8				; rgn_params::`RTTI Class Hierarchy Descriptor'
PUBLIC	??_R2rgn_params@@8				; rgn_params::`RTTI Base Class Array'
PUBLIC	??_R1A@?0A@EA@rgn_params@@8			; rgn_params::`RTTI Base Class Descriptor at (0,-1,0,64)'
PUBLIC	??_R4poc_params@@6B@				; poc_params::`RTTI Complete Object Locator'
PUBLIC	??_R0?AVpoc_params@@@8				; poc_params `RTTI Type Descriptor'
PUBLIC	??_R3poc_params@@8				; poc_params::`RTTI Class Hierarchy Descriptor'
PUBLIC	??_R2poc_params@@8				; poc_params::`RTTI Base Class Array'
PUBLIC	??_R1A@?0A@EA@poc_params@@8			; poc_params::`RTTI Base Class Descriptor at (0,-1,0,64)'
PUBLIC	??_R4crg_params@@6B@				; crg_params::`RTTI Complete Object Locator'
PUBLIC	??_R0?AVcrg_params@@@8				; crg_params `RTTI Type Descriptor'
PUBLIC	??_R3crg_params@@8				; crg_params::`RTTI Class Hierarchy Descriptor'
PUBLIC	??_R2crg_params@@8				; crg_params::`RTTI Base Class Array'
PUBLIC	??_R1A@?0A@EA@crg_params@@8			; crg_params::`RTTI Base Class Descriptor at (0,-1,0,64)'
PUBLIC	??_R4org_params@@6B@				; org_params::`RTTI Complete Object Locator'
PUBLIC	??_R0?AVorg_params@@@8				; org_params `RTTI Type Descriptor'
PUBLIC	??_R3org_params@@8				; org_params::`RTTI Class Hierarchy Descriptor'
PUBLIC	??_R2org_params@@8				; org_params::`RTTI Base Class Array'
PUBLIC	??_R1A@?0A@EA@org_params@@8			; org_params::`RTTI Base Class Descriptor at (0,-1,0,64)'
PUBLIC	___isa_available_default
PUBLIC	__real@37800000
PUBLIC	__real@38d1b717
PUBLIC	__real@3a000000
PUBLIC	__real@3f000000
PUBLIC	__real@3f70000000000000
PUBLIC	__real@3f800000
PUBLIC	__real@3fe0000000000000
PUBLIC	__real@3fecccccc0000000
PUBLIC	__real@3feff7ced916872b
PUBLIC	__real@3ff0000000000000
PUBLIC	__real@3ff004189374bc6a
PUBLIC	__real@40000000
PUBLIC	__real@45000000
PUBLIC	__real@47800000
PUBLIC	__xmm@41f00000000000000000000000000000
EXTRN	??_M@YGXPAXIIP6EX0@Z@Z:PROC			; `eh vector destructor iterator'
EXTRN	__purecall:PROC
EXTRN	??2@YAPAXI@Z:PROC				; operator new
EXTRN	??3@YAXPAXI@Z:PROC				; operator delete
EXTRN	??_U@YAPAXI@Z:PROC				; operator new[]
EXTRN	??_V@YAXPAX@Z:PROC				; operator delete[]
EXTRN	??_V@YAXPAXI@Z:PROC				; operator delete[]
EXTRN	___report_rangecheckfailure:PROC
EXTRN	___std_terminate:PROC
EXTRN	__imp__strtod:PROC
EXTRN	__imp__strtol:PROC
EXTRN	__imp__strchr:PROC
EXTRN	__imp__strncmp:PROC
EXTRN	__imp____stdio_common_vsprintf:PROC
EXTRN	??0kdu_error@@QAE@PBD@Z:PROC			; kdu_error::kdu_error
EXTRN	??1kdu_error@@UAE@XZ:PROC			; kdu_error::~kdu_error
EXTRN	??0kdu_warning@@QAE@PBD@Z:PROC			; kdu_warning::kdu_warning
EXTRN	??1kdu_warning@@UAE@XZ:PROC			; kdu_warning::~kdu_warning
EXTRN	??_Esiz_params@@UAEPAXI@Z:PROC			; siz_params::`vector deleting destructor'
EXTRN	??_Emct_params@@UAEPAXI@Z:PROC			; mct_params::`vector deleting destructor'
EXTRN	??_Emcc_params@@UAEPAXI@Z:PROC			; mcc_params::`vector deleting destructor'
EXTRN	??_Emco_params@@UAEPAXI@Z:PROC			; mco_params::`vector deleting destructor'
EXTRN	??_Eatk_params@@UAEPAXI@Z:PROC			; atk_params::`vector deleting destructor'
EXTRN	??_Ecod_params@@UAEPAXI@Z:PROC			; cod_params::`vector deleting destructor'
EXTRN	??_Eads_params@@UAEPAXI@Z:PROC			; ads_params::`vector deleting destructor'
EXTRN	??_Edfs_params@@UAEPAXI@Z:PROC			; dfs_params::`vector deleting destructor'
EXTRN	??_Eqcd_params@@UAEPAXI@Z:PROC			; qcd_params::`vector deleting destructor'
EXTRN	??_Ergn_params@@UAEPAXI@Z:PROC			; rgn_params::`vector deleting destructor'
EXTRN	??_Epoc_params@@UAEPAXI@Z:PROC			; poc_params::`vector deleting destructor'
EXTRN	??_Ecrg_params@@UAEPAXI@Z:PROC			; crg_params::`vector deleting destructor'
EXTRN	??_Eorg_params@@UAEPAXI@Z:PROC			; org_params::`vector deleting destructor'
EXTRN	?init@kdu_kernels@@QAEXH_N@Z:PROC		; kdu_kernels::init
EXTRN	?init@kdu_kernels@@QAEXHPBUkdu_kernel_step_info@@PBM_N22@Z:PROC ; kdu_kernels::init
EXTRN	?get_energy_gain@kdu_kernels@@QAENHHQA_N@Z:PROC	; kdu_kernels::get_energy_gain
EXTRN	?get_bibo_gain@kdu_kernels@@QAENHHQA_N@Z:PROC	; kdu_kernels::get_bibo_gain
EXTRN	?clear@kdu_kernels@@AAEXXZ:PROC			; kdu_kernels::clear
EXTRN	?reset@kdu_kernels@@AAEXXZ:PROC			; kdu_kernels::reset
EXTRN	@__security_check_cookie@4:PROC
EXTRN	__CxxThrowException@8:PROC
EXTRN	___CxxFrameHandler3:PROC
EXTRN	__ftol2_sse:PROC
EXTRN	__libm_sse2_sqrt_precise:PROC
EXTRN	_floor:PROC
EXTRN	??_7type_info@@6B@:QWORD			; type_info::`vftable'
EXTRN	___isa_available:DWORD
EXTRN	___security_cookie:DWORD
EXTRN	__fltused:DWORD
;	COMDAT ?_OptionsStorage@?1??__local_stdio_printf_options@@9@4_KA
_BSS	SEGMENT
?_OptionsStorage@?1??__local_stdio_printf_options@@9@4_KA DQ 01H DUP (?) ; `__local_stdio_printf_options'::`2'::_OptionsStorage
_BSS	ENDS
;	COMDAT ___isa_available_default
_BSS	SEGMENT
___isa_available_default DD 01H DUP (?)
_BSS	ENDS
;	COMDAT __xmm@41f00000000000000000000000000000
CONST	SEGMENT
__xmm@41f00000000000000000000000000000 DB 00H, 00H, 00H, 00H, 00H, 00H, 00H
	DB	00H, 00H, 00H, 00H, 00H, 00H, 00H, 0f0H, 'A'
CONST	ENDS
;	COMDAT __real@47800000
CONST	SEGMENT
__real@47800000 DD 047800000r			; 65536
CONST	ENDS
;	COMDAT __real@45000000
CONST	SEGMENT
__real@45000000 DD 045000000r			; 2048
CONST	ENDS
;	COMDAT __real@40000000
CONST	SEGMENT
__real@40000000 DD 040000000r			; 2
CONST	ENDS
;	COMDAT __real@3ff004189374bc6a
CONST	SEGMENT
__real@3ff004189374bc6a DQ 03ff004189374bc6ar	; 1.001
CONST	ENDS
;	COMDAT __real@3ff0000000000000
CONST	SEGMENT
__real@3ff0000000000000 DQ 03ff0000000000000r	; 1
CONST	ENDS
;	COMDAT __real@3feff7ced916872b
CONST	SEGMENT
__real@3feff7ced916872b DQ 03feff7ced916872br	; 0.999
CONST	ENDS
;	COMDAT __real@3fecccccc0000000
CONST	SEGMENT
__real@3fecccccc0000000 DQ 03fecccccc0000000r	; 0.9
CONST	ENDS
;	COMDAT __real@3fe0000000000000
CONST	SEGMENT
__real@3fe0000000000000 DQ 03fe0000000000000r	; 0.5
CONST	ENDS
;	COMDAT __real@3f800000
CONST	SEGMENT
__real@3f800000 DD 03f800000r			; 1
CONST	ENDS
;	COMDAT __real@3f70000000000000
CONST	SEGMENT
__real@3f70000000000000 DQ 03f70000000000000r	; 0.00390625
CONST	ENDS
;	COMDAT __real@3f000000
CONST	SEGMENT
__real@3f000000 DD 03f000000r			; 0.5
CONST	ENDS
;	COMDAT __real@3a000000
CONST	SEGMENT
__real@3a000000 DD 03a000000r			; 0.000488281
CONST	ENDS
;	COMDAT __real@38d1b717
CONST	SEGMENT
__real@38d1b717 DD 038d1b717r			; 0.0001
CONST	ENDS
;	COMDAT __real@37800000
CONST	SEGMENT
__real@37800000 DD 037800000r			; 1.52588e-05
CONST	ENDS
;	COMDAT ??_R1A@?0A@EA@org_params@@8
rdata$r	SEGMENT
??_R1A@?0A@EA@org_params@@8 DD FLAT:??_R0?AVorg_params@@@8 ; org_params::`RTTI Base Class Descriptor at (0,-1,0,64)'
	DD	01H
	DD	00H
	DD	0ffffffffH
	DD	00H
	DD	040H
	DD	FLAT:??_R3org_params@@8
rdata$r	ENDS
;	COMDAT ??_R2org_params@@8
rdata$r	SEGMENT
??_R2org_params@@8 DD FLAT:??_R1A@?0A@EA@org_params@@8	; org_params::`RTTI Base Class Array'
	DD	FLAT:??_R1A@?0A@EA@kdu_params@@8
rdata$r	ENDS
;	COMDAT ??_R3org_params@@8
rdata$r	SEGMENT
??_R3org_params@@8 DD 00H				; org_params::`RTTI Class Hierarchy Descriptor'
	DD	00H
	DD	02H
	DD	FLAT:??_R2org_params@@8
rdata$r	ENDS
;	COMDAT ??_R0?AVorg_params@@@8
data$r	SEGMENT
??_R0?AVorg_params@@@8 DD FLAT:??_7type_info@@6B@	; org_params `RTTI Type Descriptor'
	DD	00H
	DB	'.?AVorg_params@@', 00H
data$r	ENDS
;	COMDAT ??_R4org_params@@6B@
rdata$r	SEGMENT
??_R4org_params@@6B@ DD 00H				; org_params::`RTTI Complete Object Locator'
	DD	00H
	DD	00H
	DD	FLAT:??_R0?AVorg_params@@@8
	DD	FLAT:??_R3org_params@@8
rdata$r	ENDS
;	COMDAT ??_R1A@?0A@EA@crg_params@@8
rdata$r	SEGMENT
??_R1A@?0A@EA@crg_params@@8 DD FLAT:??_R0?AVcrg_params@@@8 ; crg_params::`RTTI Base Class Descriptor at (0,-1,0,64)'
	DD	01H
	DD	00H
	DD	0ffffffffH
	DD	00H
	DD	040H
	DD	FLAT:??_R3crg_params@@8
rdata$r	ENDS
;	COMDAT ??_R2crg_params@@8
rdata$r	SEGMENT
??_R2crg_params@@8 DD FLAT:??_R1A@?0A@EA@crg_params@@8	; crg_params::`RTTI Base Class Array'
	DD	FLAT:??_R1A@?0A@EA@kdu_params@@8
rdata$r	ENDS
;	COMDAT ??_R3crg_params@@8
rdata$r	SEGMENT
??_R3crg_params@@8 DD 00H				; crg_params::`RTTI Class Hierarchy Descriptor'
	DD	00H
	DD	02H
	DD	FLAT:??_R2crg_params@@8
rdata$r	ENDS
;	COMDAT ??_R0?AVcrg_params@@@8
data$r	SEGMENT
??_R0?AVcrg_params@@@8 DD FLAT:??_7type_info@@6B@	; crg_params `RTTI Type Descriptor'
	DD	00H
	DB	'.?AVcrg_params@@', 00H
data$r	ENDS
;	COMDAT ??_R4crg_params@@6B@
rdata$r	SEGMENT
??_R4crg_params@@6B@ DD 00H				; crg_params::`RTTI Complete Object Locator'
	DD	00H
	DD	00H
	DD	FLAT:??_R0?AVcrg_params@@@8
	DD	FLAT:??_R3crg_params@@8
rdata$r	ENDS
;	COMDAT ??_R1A@?0A@EA@poc_params@@8
rdata$r	SEGMENT
??_R1A@?0A@EA@poc_params@@8 DD FLAT:??_R0?AVpoc_params@@@8 ; poc_params::`RTTI Base Class Descriptor at (0,-1,0,64)'
	DD	01H
	DD	00H
	DD	0ffffffffH
	DD	00H
	DD	040H
	DD	FLAT:??_R3poc_params@@8
rdata$r	ENDS
;	COMDAT ??_R2poc_params@@8
rdata$r	SEGMENT
??_R2poc_params@@8 DD FLAT:??_R1A@?0A@EA@poc_params@@8	; poc_params::`RTTI Base Class Array'
	DD	FLAT:??_R1A@?0A@EA@kdu_params@@8
rdata$r	ENDS
;	COMDAT ??_R3poc_params@@8
rdata$r	SEGMENT
??_R3poc_params@@8 DD 00H				; poc_params::`RTTI Class Hierarchy Descriptor'
	DD	00H
	DD	02H
	DD	FLAT:??_R2poc_params@@8
rdata$r	ENDS
;	COMDAT ??_R0?AVpoc_params@@@8
data$r	SEGMENT
??_R0?AVpoc_params@@@8 DD FLAT:??_7type_info@@6B@	; poc_params `RTTI Type Descriptor'
	DD	00H
	DB	'.?AVpoc_params@@', 00H
data$r	ENDS
;	COMDAT ??_R4poc_params@@6B@
rdata$r	SEGMENT
??_R4poc_params@@6B@ DD 00H				; poc_params::`RTTI Complete Object Locator'
	DD	00H
	DD	00H
	DD	FLAT:??_R0?AVpoc_params@@@8
	DD	FLAT:??_R3poc_params@@8
rdata$r	ENDS
;	COMDAT ??_R1A@?0A@EA@rgn_params@@8
rdata$r	SEGMENT
??_R1A@?0A@EA@rgn_params@@8 DD FLAT:??_R0?AVrgn_params@@@8 ; rgn_params::`RTTI Base Class Descriptor at (0,-1,0,64)'
	DD	01H
	DD	00H
	DD	0ffffffffH
	DD	00H
	DD	040H
	DD	FLAT:??_R3rgn_params@@8
rdata$r	ENDS
;	COMDAT ??_R2rgn_params@@8
rdata$r	SEGMENT
??_R2rgn_params@@8 DD FLAT:??_R1A@?0A@EA@rgn_params@@8	; rgn_params::`RTTI Base Class Array'
	DD	FLAT:??_R1A@?0A@EA@kdu_params@@8
rdata$r	ENDS
;	COMDAT ??_R3rgn_params@@8
rdata$r	SEGMENT
??_R3rgn_params@@8 DD 00H				; rgn_params::`RTTI Class Hierarchy Descriptor'
	DD	00H
	DD	02H
	DD	FLAT:??_R2rgn_params@@8
rdata$r	ENDS
;	COMDAT ??_R0?AVrgn_params@@@8
data$r	SEGMENT
??_R0?AVrgn_params@@@8 DD FLAT:??_7type_info@@6B@	; rgn_params `RTTI Type Descriptor'
	DD	00H
	DB	'.?AVrgn_params@@', 00H
data$r	ENDS
;	COMDAT ??_R4rgn_params@@6B@
rdata$r	SEGMENT
??_R4rgn_params@@6B@ DD 00H				; rgn_params::`RTTI Complete Object Locator'
	DD	00H
	DD	00H
	DD	FLAT:??_R0?AVrgn_params@@@8
	DD	FLAT:??_R3rgn_params@@8
rdata$r	ENDS
;	COMDAT ??_R1A@?0A@EA@qcd_params@@8
rdata$r	SEGMENT
??_R1A@?0A@EA@qcd_params@@8 DD FLAT:??_R0?AVqcd_params@@@8 ; qcd_params::`RTTI Base Class Descriptor at (0,-1,0,64)'
	DD	01H
	DD	00H
	DD	0ffffffffH
	DD	00H
	DD	040H
	DD	FLAT:??_R3qcd_params@@8
rdata$r	ENDS
;	COMDAT ??_R2qcd_params@@8
rdata$r	SEGMENT
??_R2qcd_params@@8 DD FLAT:??_R1A@?0A@EA@qcd_params@@8	; qcd_params::`RTTI Base Class Array'
	DD	FLAT:??_R1A@?0A@EA@kdu_params@@8
rdata$r	ENDS
;	COMDAT ??_R3qcd_params@@8
rdata$r	SEGMENT
??_R3qcd_params@@8 DD 00H				; qcd_params::`RTTI Class Hierarchy Descriptor'
	DD	00H
	DD	02H
	DD	FLAT:??_R2qcd_params@@8
rdata$r	ENDS
;	COMDAT ??_R0?AVqcd_params@@@8
data$r	SEGMENT
??_R0?AVqcd_params@@@8 DD FLAT:??_7type_info@@6B@	; qcd_params `RTTI Type Descriptor'
	DD	00H
	DB	'.?AVqcd_params@@', 00H
data$r	ENDS
;	COMDAT ??_R4qcd_params@@6B@
rdata$r	SEGMENT
??_R4qcd_params@@6B@ DD 00H				; qcd_params::`RTTI Complete Object Locator'
	DD	00H
	DD	00H
	DD	FLAT:??_R0?AVqcd_params@@@8
	DD	FLAT:??_R3qcd_params@@8
rdata$r	ENDS
;	COMDAT ??_R1A@?0A@EA@dfs_params@@8
rdata$r	SEGMENT
??_R1A@?0A@EA@dfs_params@@8 DD FLAT:??_R0?AVdfs_params@@@8 ; dfs_params::`RTTI Base Class Descriptor at (0,-1,0,64)'
	DD	01H
	DD	00H
	DD	0ffffffffH
	DD	00H
	DD	040H
	DD	FLAT:??_R3dfs_params@@8
rdata$r	ENDS
;	COMDAT ??_R2dfs_params@@8
rdata$r	SEGMENT
??_R2dfs_params@@8 DD FLAT:??_R1A@?0A@EA@dfs_params@@8	; dfs_params::`RTTI Base Class Array'
	DD	FLAT:??_R1A@?0A@EA@kdu_params@@8
rdata$r	ENDS
;	COMDAT ??_R3dfs_params@@8
rdata$r	SEGMENT
??_R3dfs_params@@8 DD 00H				; dfs_params::`RTTI Class Hierarchy Descriptor'
	DD	00H
	DD	02H
	DD	FLAT:??_R2dfs_params@@8
rdata$r	ENDS
;	COMDAT ??_R0?AVdfs_params@@@8
data$r	SEGMENT
??_R0?AVdfs_params@@@8 DD FLAT:??_7type_info@@6B@	; dfs_params `RTTI Type Descriptor'
	DD	00H
	DB	'.?AVdfs_params@@', 00H
data$r	ENDS
;	COMDAT ??_R4dfs_params@@6B@
rdata$r	SEGMENT
??_R4dfs_params@@6B@ DD 00H				; dfs_params::`RTTI Complete Object Locator'
	DD	00H
	DD	00H
	DD	FLAT:??_R0?AVdfs_params@@@8
	DD	FLAT:??_R3dfs_params@@8
rdata$r	ENDS
;	COMDAT ??_R1A@?0A@EA@ads_params@@8
rdata$r	SEGMENT
??_R1A@?0A@EA@ads_params@@8 DD FLAT:??_R0?AVads_params@@@8 ; ads_params::`RTTI Base Class Descriptor at (0,-1,0,64)'
	DD	01H
	DD	00H
	DD	0ffffffffH
	DD	00H
	DD	040H
	DD	FLAT:??_R3ads_params@@8
rdata$r	ENDS
;	COMDAT ??_R2ads_params@@8
rdata$r	SEGMENT
??_R2ads_params@@8 DD FLAT:??_R1A@?0A@EA@ads_params@@8	; ads_params::`RTTI Base Class Array'
	DD	FLAT:??_R1A@?0A@EA@kdu_params@@8
rdata$r	ENDS
;	COMDAT ??_R3ads_params@@8
rdata$r	SEGMENT
??_R3ads_params@@8 DD 00H				; ads_params::`RTTI Class Hierarchy Descriptor'
	DD	00H
	DD	02H
	DD	FLAT:??_R2ads_params@@8
rdata$r	ENDS
;	COMDAT ??_R0?AVads_params@@@8
data$r	SEGMENT
??_R0?AVads_params@@@8 DD FLAT:??_7type_info@@6B@	; ads_params `RTTI Type Descriptor'
	DD	00H
	DB	'.?AVads_params@@', 00H
data$r	ENDS
;	COMDAT ??_R4ads_params@@6B@
rdata$r	SEGMENT
??_R4ads_params@@6B@ DD 00H				; ads_params::`RTTI Complete Object Locator'
	DD	00H
	DD	00H
	DD	FLAT:??_R0?AVads_params@@@8
	DD	FLAT:??_R3ads_params@@8
rdata$r	ENDS
;	COMDAT ??_R1A@?0A@EA@cod_params@@8
rdata$r	SEGMENT
??_R1A@?0A@EA@cod_params@@8 DD FLAT:??_R0?AVcod_params@@@8 ; cod_params::`RTTI Base Class Descriptor at (0,-1,0,64)'
	DD	01H
	DD	00H
	DD	0ffffffffH
	DD	00H
	DD	040H
	DD	FLAT:??_R3cod_params@@8
rdata$r	ENDS
;	COMDAT ??_R2cod_params@@8
rdata$r	SEGMENT
??_R2cod_params@@8 DD FLAT:??_R1A@?0A@EA@cod_params@@8	; cod_params::`RTTI Base Class Array'
	DD	FLAT:??_R1A@?0A@EA@kdu_params@@8
rdata$r	ENDS
;	COMDAT ??_R3cod_params@@8
rdata$r	SEGMENT
??_R3cod_params@@8 DD 00H				; cod_params::`RTTI Class Hierarchy Descriptor'
	DD	00H
	DD	02H
	DD	FLAT:??_R2cod_params@@8
rdata$r	ENDS
;	COMDAT ??_R0?AVcod_params@@@8
data$r	SEGMENT
??_R0?AVcod_params@@@8 DD FLAT:??_7type_info@@6B@	; cod_params `RTTI Type Descriptor'
	DD	00H
	DB	'.?AVcod_params@@', 00H
data$r	ENDS
;	COMDAT ??_R4cod_params@@6B@
rdata$r	SEGMENT
??_R4cod_params@@6B@ DD 00H				; cod_params::`RTTI Complete Object Locator'
	DD	00H
	DD	00H
	DD	FLAT:??_R0?AVcod_params@@@8
	DD	FLAT:??_R3cod_params@@8
rdata$r	ENDS
;	COMDAT ??_R1A@?0A@EA@atk_params@@8
rdata$r	SEGMENT
??_R1A@?0A@EA@atk_params@@8 DD FLAT:??_R0?AVatk_params@@@8 ; atk_params::`RTTI Base Class Descriptor at (0,-1,0,64)'
	DD	01H
	DD	00H
	DD	0ffffffffH
	DD	00H
	DD	040H
	DD	FLAT:??_R3atk_params@@8
rdata$r	ENDS
;	COMDAT ??_R2atk_params@@8
rdata$r	SEGMENT
??_R2atk_params@@8 DD FLAT:??_R1A@?0A@EA@atk_params@@8	; atk_params::`RTTI Base Class Array'
	DD	FLAT:??_R1A@?0A@EA@kdu_params@@8
rdata$r	ENDS
;	COMDAT ??_R3atk_params@@8
rdata$r	SEGMENT
??_R3atk_params@@8 DD 00H				; atk_params::`RTTI Class Hierarchy Descriptor'
	DD	00H
	DD	02H
	DD	FLAT:??_R2atk_params@@8
rdata$r	ENDS
;	COMDAT ??_R0?AVatk_params@@@8
data$r	SEGMENT
??_R0?AVatk_params@@@8 DD FLAT:??_7type_info@@6B@	; atk_params `RTTI Type Descriptor'
	DD	00H
	DB	'.?AVatk_params@@', 00H
data$r	ENDS
;	COMDAT ??_R4atk_params@@6B@
rdata$r	SEGMENT
??_R4atk_params@@6B@ DD 00H				; atk_params::`RTTI Complete Object Locator'
	DD	00H
	DD	00H
	DD	FLAT:??_R0?AVatk_params@@@8
	DD	FLAT:??_R3atk_params@@8
rdata$r	ENDS
;	COMDAT ??_R1A@?0A@EA@mco_params@@8
rdata$r	SEGMENT
??_R1A@?0A@EA@mco_params@@8 DD FLAT:??_R0?AVmco_params@@@8 ; mco_params::`RTTI Base Class Descriptor at (0,-1,0,64)'
	DD	01H
	DD	00H
	DD	0ffffffffH
	DD	00H
	DD	040H
	DD	FLAT:??_R3mco_params@@8
rdata$r	ENDS
;	COMDAT ??_R2mco_params@@8
rdata$r	SEGMENT
??_R2mco_params@@8 DD FLAT:??_R1A@?0A@EA@mco_params@@8	; mco_params::`RTTI Base Class Array'
	DD	FLAT:??_R1A@?0A@EA@kdu_params@@8
rdata$r	ENDS
;	COMDAT ??_R3mco_params@@8
rdata$r	SEGMENT
??_R3mco_params@@8 DD 00H				; mco_params::`RTTI Class Hierarchy Descriptor'
	DD	00H
	DD	02H
	DD	FLAT:??_R2mco_params@@8
rdata$r	ENDS
;	COMDAT ??_R0?AVmco_params@@@8
data$r	SEGMENT
??_R0?AVmco_params@@@8 DD FLAT:??_7type_info@@6B@	; mco_params `RTTI Type Descriptor'
	DD	00H
	DB	'.?AVmco_params@@', 00H
data$r	ENDS
;	COMDAT ??_R4mco_params@@6B@
rdata$r	SEGMENT
??_R4mco_params@@6B@ DD 00H				; mco_params::`RTTI Complete Object Locator'
	DD	00H
	DD	00H
	DD	FLAT:??_R0?AVmco_params@@@8
	DD	FLAT:??_R3mco_params@@8
rdata$r	ENDS
;	COMDAT ??_R1A@?0A@EA@mcc_params@@8
rdata$r	SEGMENT
??_R1A@?0A@EA@mcc_params@@8 DD FLAT:??_R0?AVmcc_params@@@8 ; mcc_params::`RTTI Base Class Descriptor at (0,-1,0,64)'
	DD	01H
	DD	00H
	DD	0ffffffffH
	DD	00H
	DD	040H
	DD	FLAT:??_R3mcc_params@@8
rdata$r	ENDS
;	COMDAT ??_R2mcc_params@@8
rdata$r	SEGMENT
??_R2mcc_params@@8 DD FLAT:??_R1A@?0A@EA@mcc_params@@8	; mcc_params::`RTTI Base Class Array'
	DD	FLAT:??_R1A@?0A@EA@kdu_params@@8
rdata$r	ENDS
;	COMDAT ??_R3mcc_params@@8
rdata$r	SEGMENT
??_R3mcc_params@@8 DD 00H				; mcc_params::`RTTI Class Hierarchy Descriptor'
	DD	00H
	DD	02H
	DD	FLAT:??_R2mcc_params@@8
rdata$r	ENDS
;	COMDAT ??_R0?AVmcc_params@@@8
data$r	SEGMENT
??_R0?AVmcc_params@@@8 DD FLAT:??_7type_info@@6B@	; mcc_params `RTTI Type Descriptor'
	DD	00H
	DB	'.?AVmcc_params@@', 00H
data$r	ENDS
;	COMDAT ??_R4mcc_params@@6B@
rdata$r	SEGMENT
??_R4mcc_params@@6B@ DD 00H				; mcc_params::`RTTI Complete Object Locator'
	DD	00H
	DD	00H
	DD	FLAT:??_R0?AVmcc_params@@@8
	DD	FLAT:??_R3mcc_params@@8
rdata$r	ENDS
;	COMDAT ??_R1A@?0A@EA@mct_params@@8
rdata$r	SEGMENT
??_R1A@?0A@EA@mct_params@@8 DD FLAT:??_R0?AVmct_params@@@8 ; mct_params::`RTTI Base Class Descriptor at (0,-1,0,64)'
	DD	01H
	DD	00H
	DD	0ffffffffH
	DD	00H
	DD	040H
	DD	FLAT:??_R3mct_params@@8
rdata$r	ENDS
;	COMDAT ??_R2mct_params@@8
rdata$r	SEGMENT
??_R2mct_params@@8 DD FLAT:??_R1A@?0A@EA@mct_params@@8	; mct_params::`RTTI Base Class Array'
	DD	FLAT:??_R1A@?0A@EA@kdu_params@@8
rdata$r	ENDS
;	COMDAT ??_R3mct_params@@8
rdata$r	SEGMENT
??_R3mct_params@@8 DD 00H				; mct_params::`RTTI Class Hierarchy Descriptor'
	DD	00H
	DD	02H
	DD	FLAT:??_R2mct_params@@8
rdata$r	ENDS
;	COMDAT ??_R0?AVmct_params@@@8
data$r	SEGMENT
??_R0?AVmct_params@@@8 DD FLAT:??_7type_info@@6B@	; mct_params `RTTI Type Descriptor'
	DD	00H
	DB	'.?AVmct_params@@', 00H
data$r	ENDS
;	COMDAT ??_R4mct_params@@6B@
rdata$r	SEGMENT
??_R4mct_params@@6B@ DD 00H				; mct_params::`RTTI Complete Object Locator'
	DD	00H
	DD	00H
	DD	FLAT:??_R0?AVmct_params@@@8
	DD	FLAT:??_R3mct_params@@8
rdata$r	ENDS
;	COMDAT ??_R1A@?0A@EA@siz_params@@8
rdata$r	SEGMENT
??_R1A@?0A@EA@siz_params@@8 DD FLAT:??_R0?AVsiz_params@@@8 ; siz_params::`RTTI Base Class Descriptor at (0,-1,0,64)'
	DD	01H
	DD	00H
	DD	0ffffffffH
	DD	00H
	DD	040H
	DD	FLAT:??_R3siz_params@@8
rdata$r	ENDS
;	COMDAT ??_R2siz_params@@8
rdata$r	SEGMENT
??_R2siz_params@@8 DD FLAT:??_R1A@?0A@EA@siz_params@@8	; siz_params::`RTTI Base Class Array'
	DD	FLAT:??_R1A@?0A@EA@kdu_params@@8
rdata$r	ENDS
;	COMDAT ??_R3siz_params@@8
rdata$r	SEGMENT
??_R3siz_params@@8 DD 00H				; siz_params::`RTTI Class Hierarchy Descriptor'
	DD	00H
	DD	02H
	DD	FLAT:??_R2siz_params@@8
rdata$r	ENDS
;	COMDAT ??_R0?AVsiz_params@@@8
data$r	SEGMENT
??_R0?AVsiz_params@@@8 DD FLAT:??_7type_info@@6B@	; siz_params `RTTI Type Descriptor'
	DD	00H
	DB	'.?AVsiz_params@@', 00H
data$r	ENDS
;	COMDAT ??_R4siz_params@@6B@
rdata$r	SEGMENT
??_R4siz_params@@6B@ DD 00H				; siz_params::`RTTI Complete Object Locator'
	DD	00H
	DD	00H
	DD	FLAT:??_R0?AVsiz_params@@@8
	DD	FLAT:??_R3siz_params@@8
rdata$r	ENDS
;	COMDAT ??_R1A@?0A@EA@kdu_params@@8
rdata$r	SEGMENT
??_R1A@?0A@EA@kdu_params@@8 DD FLAT:??_R0?AVkdu_params@@@8 ; kdu_params::`RTTI Base Class Descriptor at (0,-1,0,64)'
	DD	00H
	DD	00H
	DD	0ffffffffH
	DD	00H
	DD	040H
	DD	FLAT:??_R3kdu_params@@8
rdata$r	ENDS
;	COMDAT ??_R2kdu_params@@8
rdata$r	SEGMENT
??_R2kdu_params@@8 DD FLAT:??_R1A@?0A@EA@kdu_params@@8	; kdu_params::`RTTI Base Class Array'
rdata$r	ENDS
;	COMDAT ??_R3kdu_params@@8
rdata$r	SEGMENT
??_R3kdu_params@@8 DD 00H				; kdu_params::`RTTI Class Hierarchy Descriptor'
	DD	00H
	DD	01H
	DD	FLAT:??_R2kdu_params@@8
rdata$r	ENDS
;	COMDAT ??_R0?AVkdu_params@@@8
data$r	SEGMENT
??_R0?AVkdu_params@@@8 DD FLAT:??_7type_info@@6B@	; kdu_params `RTTI Type Descriptor'
	DD	00H
	DB	'.?AVkdu_params@@', 00H
data$r	ENDS
;	COMDAT ??_R4kdu_params@@6B@
rdata$r	SEGMENT
??_R4kdu_params@@6B@ DD 00H				; kdu_params::`RTTI Complete Object Locator'
	DD	00H
	DD	00H
	DD	FLAT:??_R0?AVkdu_params@@@8
	DD	FLAT:??_R3kdu_params@@8
rdata$r	ENDS
;	COMDAT ??_C@_0FAH@DOOOICPM@Requests?5the?5insertion?5of?5TLM?5?$CIt@
CONST	SEGMENT
??_C@_0FAH@DOOOICPM@Requests?5the?5insertion?5of?5TLM?5?$CIt@ DB 'Request'
	DB	's the insertion of TLM (tile-part-length) marker segments in '
	DB	'the main header, to facilitate random access to the code-stre'
	DB	'am.  This attribute takes a single integer-valued parameter, '
	DB	'which identifies the maximum number of tile-parts which will '
	DB	'be written to the code-stream for each tile.  The reason for '
	DB	'including this parameter is that space for the TLM informatio'
	DB	'n must be reserved ahead of time; once the entire code-stream'
	DB	' has been written the generation machinery goes back and over'
	DB	'writes this reserved space with actual TLM data.  If the actu'
	DB	'al number of tile-parts which are generate is less than the v'
	DB	'alue supplied here, empty tile-parts will be inserted into th'
	DB	'e code-stream so as to use up all of the reserved TLM space. '
	DB	' For this reason, you should try to estimate the maximum numb'
	DB	'er of tile-parts you will need as accurately as possible, not'
	DB	'ing that the actual value may be hard to determine ahead of t'
	DB	'ime if incremental flushing features are to be employed.  In '
	DB	'any event, no JPEG2000 code-stream may have more than 255 til'
	DB	'e-parts.  An error will be generated at run-time if the decla'
	DB	'red maximum number of tile-parts turns out to be insufficient'
	DB	'.  You should note that this attribute may be ignored if the '
	DB	'target device does not support repositioning functionality.', 00H ; `string'
CONST	ENDS
;	COMDAT ??_C@_0L@DMGGEJHL@ORGgen_plt?$AA@
CONST	SEGMENT
??_C@_0L@DMGGEJHL@ORGgen_plt?$AA@ DB 'ORGgen_plt', 00H	; `string'
CONST	ENDS
;	COMDAT ??_C@_0CLF@KMEJMICF@Requests?5the?5insertion?5of?5packet@
CONST	SEGMENT
??_C@_0CLF@KMEJMICF@Requests?5the?5insertion?5of?5packet@ DB 'Requests th'
	DB	'e insertion of packet length information in the header of all'
	DB	' tile-parts associated with tiles for which this attribute is'
	DB	' turned on (has a value of "yes").  The PLT marker segments w'
	DB	'ritten into the relevant tile-part headers will hold the leng'
	DB	'ths of those packets which belong to the same tile-part.  Not'
	DB	'e that the cost of any PLT marker segments generated as a res'
	DB	'ult of this attribute being enabled will not be taken into ac'
	DB	'count during rate allocation.  This means that the resulting '
	DB	'code-streams will generally be a little larger than one might'
	DB	' expect; however, this is probably a reasonable policy, since'
	DB	' the PLT marker segments may be removed without losing any in'
	DB	'formation.', 00H				; `string'
CONST	ENDS
;	COMDAT ??_C@_0DHD@FDALIENE@Controls?5the?5division?5of?5each?5ti@
CONST	SEGMENT
??_C@_0DHD@FDALIENE@Controls?5the?5division?5of?5each?5ti@ DB 'Controls t'
	DB	'he division of each tile''s packets into tile-parts.  The att'
	DB	'ribute consists of one or more of the flags, `R'', `L'' and `'
	DB	'C'', separated by the vertical bar character, `|''.  If the `'
	DB	'R'' flag is supplied, tile-parts will be introduced as necess'
	DB	'ary to ensure that each tile-part consists of packets from on'
	DB	'ly one resolution level.  If `L'' is supplied, tile-parts are'
	DB	' introduced as necessary to ensure that each tile-part consis'
	DB	'ts of packets from only one quality layer.  Similarly, if the'
	DB	' `C'' flag is supplied, each tile-part will consist of packet'
	DB	's from only one component.  Note that the cost of extra tile-'
	DB	'part headers will not be taken into account during rate contr'
	DB	'ol, so that the code-stream may end up being a little larger '
	DB	'than you expect.', 0aH, 09H, 09H, '[By default, tile-part bou'
	DB	'ndaries are introduced only as required by the presence of mu'
	DB	'ltiple "Porder" attribute specifications.]', 00H ; `string'
CONST	ENDS
;	COMDAT ??_C@_0O@PEKBJBJM@?$FLR?$DN1?$HML?$DN2?$HMC?$DN4?$FN?$AA@
CONST	SEGMENT
??_C@_0O@PEKBJBJM@?$FLR?$DN1?$HML?$DN2?$HMC?$DN4?$FN?$AA@ DB '[R=1|L=2|C='
	DB	'4]', 00H					; `string'
CONST	ENDS
;	COMDAT ??_C@_0EH@POKFGLCF@Malformed?5CRG?5marker?5segment?5enc@
CONST	SEGMENT
??_C@_0EH@POKFGLCF@Malformed?5CRG?5marker?5segment?5enc@ DB 'Malformed CR'
	DB	'G marker segment encountered. Marker segment is too small.', 00H ; `string'
CONST	ENDS
;	COMDAT ??_C@_0DF@NCKAKJE@Malformed?5CRG?5marker?5segment?5enc@
CONST	SEGMENT
??_C@_0DF@NCKAKJE@Malformed?5CRG?5marker?5segment?5enc@ DB 'Malformed CRG'
	DB	' marker segment encountered. The final ', 00H ; `string'
CONST	ENDS
;	COMDAT ??_C@_0DA@KDCPJNDM@?$HN?4?5?5Legal?5range?5is?5from?50?40?5to?51@
CONST	SEGMENT
??_C@_0DA@KDCPJNDM@?$HN?4?5?5Legal?5range?5is?5from?50?40?5to?51@ DB '}. '
	DB	' Legal range is from 0.0 to 1.0 (exclusive).', 00H ; `string'
CONST	ENDS
;	COMDAT ??_C@_0CK@GJEKKMBC@Illegal?5component?5registration?5o@
CONST	SEGMENT
??_C@_0CK@GJEKKMBC@Illegal?5component?5registration?5o@ DB 'Illegal compo'
	DB	'nent registration offsets, {', 00H		; `string'
CONST	ENDS
;	COMDAT ??_C@_0CP@EMDHCGDH@Component?5registration?5informati@
CONST	SEGMENT
??_C@_0CP@EMDHCGDH@Component?5registration?5informati@ DB 'Component regi'
	DB	'stration information incomplete!', 00H	; `string'
CONST	ENDS
;	COMDAT ??_C@_09NPOAGBMD@CRGoffset?$AA@
CONST	SEGMENT
??_C@_09NPOAGBMD@CRGoffset?$AA@ DB 'CRGoffset', 00H	; `string'
CONST	ENDS
;	COMDAT ??_C@_0CHB@BGCOENBE@Provides?5additional?5component?5re@
CONST	SEGMENT
??_C@_0CHB@BGCOENBE@Provides?5additional?5component?5re@ DB 'Provides add'
	DB	'itional component registration offsets. The offsets add to th'
	DB	'ose implied by the canvas coordinate system and should only b'
	DB	'e used when canvas coordinates (notably `Ssize'', `Soffset'' '
	DB	'and `Ssampling'') cannot be found, which adequately reflect t'
	DB	'he relative displacement of the components. Each record speci'
	DB	'fies offsets for one component, with the vertical offset appe'
	DB	'aring first. Offsets must be in the range 0 (inclusive) to 1 '
	DB	'(exclusive) and represent a fraction of the relevant componen'
	DB	't sub-sampling factor (see `Ssampling''). The last supplied r'
	DB	'ecord is repeated as needed to recover offsets for all compon'
	DB	'ents. ', 00H				; `string'
CONST	ENDS
;	COMDAT ??_C@_02NCIKDPBM@FF?$AA@
CONST	SEGMENT
??_C@_02NCIKDPBM@FF?$AA@ DB 'FF', 00H			; `string'
CONST	ENDS
;	COMDAT ??_C@_03IHBKPECM@CRG?$AA@
CONST	SEGMENT
??_C@_03IHBKPECM@CRG?$AA@ DB 'CRG', 00H			; `string'
CONST	ENDS
;	COMDAT ??_C@_0EH@BLNGGECC@Malformed?5POC?5marker?5segment?5enc@
CONST	SEGMENT
??_C@_0EH@BLNGGECC@Malformed?5POC?5marker?5segment?5enc@ DB 'Malformed PO'
	DB	'C marker segment encountered. Marker segment is too small.', 00H ; `string'
CONST	ENDS
;	COMDAT ??_C@_0DF@CKFKOFOF@Malformed?5POC?5marker?5segment?5enc@
CONST	SEGMENT
??_C@_0DF@CKFKOFOF@Malformed?5POC?5marker?5segment?5enc@ DB 'Malformed PO'
	DB	'C marker segment encountered. The final ', 00H ; `string'
CONST	ENDS
;	COMDAT ??_C@_0FG@HKJPGEGC@?0?5for?5layer?5indices?5in?5progressi@
CONST	SEGMENT
??_C@_0FG@HKJPGEGC@?0?5for?5layer?5indices?5in?5progressi@ DB ', for laye'
	DB	'r indices in progression order change attribute.  Legal range'
	DB	' is from 0 to ', 00H			; `string'
CONST	ENDS
;	COMDAT ??_C@_0GM@ILNCJPIC@?0?5for?5component?5indices?5in?5progr@
CONST	SEGMENT
??_C@_0GM@ILNCJPIC@?0?5for?5component?5indices?5in?5progr@ DB ', for comp'
	DB	'onent indices in progression order change attribute.  Legal r'
	DB	'ange is from the lower bound + 1 to ', 00H	; `string'
CONST	ENDS
;	COMDAT ??_C@_0FK@PKCGAEDD@?0?5for?5component?5indices?5in?5progr@
CONST	SEGMENT
??_C@_0FK@PKCGAEDD@?0?5for?5component?5indices?5in?5progr@ DB ', for comp'
	DB	'onent indices in progression order change attribute.  Legal r'
	DB	'ange is from 0 to ', 00H			; `string'
CONST	ENDS
;	COMDAT ??_C@_0HG@EBOPONFH@?0?5for?5resolution?5level?5indices?5i@
CONST	SEGMENT
??_C@_0HG@EBOPONFH@?0?5for?5resolution?5level?5indices?5i@ DB ', for reso'
	DB	'lution level indices in progression order change attribute.  '
	DB	'Legal range is from the lower bound + 1 to 33.', 00H ; `string'
CONST	ENDS
;	COMDAT ??_C@_0CC@GBMHHECB@Illegal?5upper?5bound?5?$CIexclusive?$CJ?0@
CONST	SEGMENT
??_C@_0CC@GBMHHECB@Illegal?5upper?5bound?5?$CIexclusive?$CJ?0@ DB 'Illega'
	DB	'l upper bound (exclusive), ', 00H		; `string'
CONST	ENDS
;	COMDAT ??_C@_0GE@OHOJBMOK@?0?5for?5resolution?5level?5indices?5i@
CONST	SEGMENT
??_C@_0GE@OHOJBMOK@?0?5for?5resolution?5level?5indices?5i@ DB ', for reso'
	DB	'lution level indices in progression order change attribute.  '
	DB	'Legal range is from 0 to 32.', 00H		; `string'
CONST	ENDS
;	COMDAT ??_C@_0BG@CGBIAPKK@Illegal?5lower?5bound?0?5?$AA@
CONST	SEGMENT
??_C@_0BG@CGBIAPKK@Illegal?5lower?5bound?0?5?$AA@ DB 'Illegal lower bound'
	DB	', ', 00H					; `string'
CONST	ENDS
;	COMDAT ??_C@_0PF@DBCFCBGN@Profile?5violation?5detected?4?5?5POC@
CONST	SEGMENT
??_C@_0PF@DBCFCBGN@Profile?5violation?5detected?4?5?5POC@ DB 'Profile vio'
	DB	'lation detected.  POC marker segments may not be included in '
	DB	'tile-part headers of Digital Cinema (CINEMA2K or CINEMA4K) co'
	DB	'de-streams.  You should either remove the `Sprofile'' attribu'
	DB	'te, or remove the tile-specific `Porder'' attribute.', 00H ; `string'
CONST	ENDS
;	COMDAT ??_C@_0MI@GKHFMGFB@Profile?5violation?5detected?4?5?5POC@
CONST	SEGMENT
??_C@_0MI@GKHFMGFB@Profile?5violation?5detected?4?5?5POC@ DB 'Profile vio'
	DB	'lation detected.  POC marker segments may not be included in '
	DB	'2K Digital Cinema (CINEMA2K) code-streams.  You should either'
	DB	' remove the `Sprofile'' attribute or remove the `Porder'' att'
	DB	'ribute.', 00H				; `string'
CONST	ENDS
;	COMDAT ??_C@_0EM@NECPBKCJ@Information?5required?5to?5write?5PO@
CONST	SEGMENT
??_C@_0EM@NECPBKCJ@Information?5required?5to?5write?5PO@ DB 'Information '
	DB	'required to write POC marker segment is not currently complet'
	DB	'e!', 00H					; `string'
CONST	ENDS
;	COMDAT ??_C@_0EPM@KNAANCKO@Progression?5order?5change?5informa@
CONST	SEGMENT
??_C@_0EPM@KNAANCKO@Progression?5order?5change?5informa@ DB 'Progression '
	DB	'order change information.  The attribute may be applied globa'
	DB	'lly (main header), or in a tile-specific manner (tile-part he'
	DB	'ader).  In this latter case, multiple instances of the attrib'
	DB	'ute may be supplied for any given tile, which will force the '
	DB	'generation of multiple tile-parts for the tile (one for each '
	DB	'instance of the `Porder'' attribute).  As with all attributes'
	DB	', tile specific forms are specified by appending a suffix of '
	DB	'the form ":T<tnum>" to the attribute name, where <tnum> stand'
	DB	's for the tile number, starting from 0.  Each instance of the'
	DB	' attribute may contain one or more progression records, each '
	DB	'of which defines the order for a collection of packets. Each '
	DB	'record contains 6 fields. The first two fields identify inclu'
	DB	'sive lower bounds for the resolution level and image componen'
	DB	't indices, respectively. The next three fields identify exclu'
	DB	'sive upper bounds for the quality layer, resolution level and'
	DB	' image component indices, respectively. All indices are zero-'
	DB	'based, with resolution level 0 corresponding to the LL_D subb'
	DB	'and. The final field in each record identifies the progressio'
	DB	'n order to be applied within the indicated bounds. This order'
	DB	' is applied only to those packets which have not already been'
	DB	' sequenced by previous records or instances.', 00H ; `string'
CONST	ENDS
;	COMDAT ??_C@_0CK@KBNJDDCF@IIIII?$CILRCP?$DN0?0RLCP?$DN1?0RPCL?$DN2?0PCRL?$DN@
CONST	SEGMENT
??_C@_0CK@KBNJDDCF@IIIII?$CILRCP?$DN0?0RLCP?$DN1?0RPCL?$DN2?0PCRL?$DN@ DB 'I'
	DB	'IIII(LRCP=0,RLCP=1,RPCL=2,PCRL=3,CPRL=4)', 00H ; `string'
CONST	ENDS
;	COMDAT ??_C@_0CD@DOBDENMB@?5in?5this?5case?0?5may?5cause?5problem@
CONST	SEGMENT
??_C@_0CD@DOBDENMB@?5in?5this?5case?0?5may?5cause?5problem@ DB ' in this '
	DB	'case, may cause problems.', 00H		; `string'
CONST	ENDS
;	COMDAT ??_C@_0HN@DAMJBHKE@Up?9shift?5values?5in?5the?5RGN?5marke@
CONST	SEGMENT
??_C@_0HN@DAMJBHKE@Up?9shift?5values?5in?5the?5RGN?5marke@ DB 'Up-shift v'
	DB	'alues in the RGN marker segment should not need to exceed 37 '
	DB	'under any circumstances.  The use of a larger value, ', 00H ; `string'
CONST	ENDS
;	COMDAT ??_C@_0EH@OLOKKCBP@Malformed?5RGN?5marker?5segment?5enc@
CONST	SEGMENT
??_C@_0EH@OLOKKCBP@Malformed?5RGN?5marker?5segment?5enc@ DB 'Malformed RG'
	DB	'N marker segment encountered. Marker segment is too small.', 00H ; `string'
CONST	ENDS
;	COMDAT ??_C@_0DF@HODFHOAP@Malformed?5RGN?5marker?5segment?5enc@
CONST	SEGMENT
??_C@_0DF@HODFHOAP@Malformed?5RGN?5marker?5segment?5enc@ DB 'Malformed RG'
	DB	'N marker segment encountered. The final ', 00H ; `string'
CONST	ENDS
;	COMDAT ??_C@_0CK@MFEGEGLF@Encountered?5non?9Part1?5RGN?5marker@
CONST	SEGMENT
??_C@_0CK@MFEGEGLF@Encountered?5non?9Part1?5RGN?5marker@ DB 'Encountered '
	DB	'non-Part1 RGN marker segment!', 00H		; `string'
CONST	ENDS
;	COMDAT ??_C@_0JH@FLFHNCLL@Profile?5violation?5detected?4?5?5RGN@
CONST	SEGMENT
??_C@_0JH@FLFHNCLL@Profile?5violation?5detected?4?5?5RGN@ DB 'Profile vio'
	DB	'lation detected.  RGN marker segments are disallowed in code-'
	DB	'streams marked with one of the Digital Cinema profiles (CINEM'
	DB	'A2K or CINEMA4K).', 00H			; `string'
CONST	ENDS
;	COMDAT ??_C@_0CA@JLDBBJDK@?4?5Legal?5range?5is?5from?50?5to?5255?$CB?$AA@
CONST	SEGMENT
??_C@_0CA@JLDBBJDK@?4?5Legal?5range?5is?5from?50?5to?5255?$CB?$AA@ DB '. '
	DB	'Legal range is from 0 to 255!', 00H		; `string'
CONST	ENDS
;	COMDAT ??_C@_0BH@MGDBKNNO@Illegal?5ROI?5up?9shift?0?5?$AA@
CONST	SEGMENT
??_C@_0BH@MGDBKNNO@Illegal?5ROI?5up?9shift?0?5?$AA@ DB 'Illegal ROI up-sh'
	DB	'ift, ', 00H					; `string'
CONST	ENDS
;	COMDAT ??_C@_07MDGMFIIN@Rweight?$AA@
CONST	SEGMENT
??_C@_07MDGMFIIN@Rweight?$AA@ DB 'Rweight', 00H		; `string'
CONST	ENDS
;	COMDAT ??_C@_0DBK@IHBAFPAL@Region?5of?5interest?5significance?5@
CONST	SEGMENT
??_C@_0DBK@IHBAFPAL@Region?5of?5interest?5significance?5@ DB 'Region of i'
	DB	'nterest significance weight.  Although this attribute may be '
	DB	'used together with `Rshift'', it is common to use only one or'
	DB	' the other.  All code-blocks whose samples contribute in any '
	DB	'way to the reconstruction of the foreground region of an ROI '
	DB	'mask will have their distortion metrics scaled by the square '
	DB	'of the supplied weighting factor, for the purpose of rate all'
	DB	'ocation.  This renders such blocks more important and assigns'
	DB	' to them relatively more bits, in a manner which is closely r'
	DB	'elated to the effect of the `Clevel_weights'' and `Cband_weig'
	DB	'hts'' attributes on the importance of whole subbands.  Note t'
	DB	'hat this region weighting strategy is most effective when wor'
	DB	'king with large images and relatively small code-blocks (or p'
	DB	'recincts).', 0aH, 09H, 09H, '[Default is 1, i.e., no extra we'
	DB	'ighting]', 00H				; `string'
CONST	ENDS
;	COMDAT ??_C@_07KGEEGGHK@Rlevels?$AA@
CONST	SEGMENT
??_C@_07KGEEGGHK@Rlevels?$AA@ DB 'Rlevels', 00H		; `string'
CONST	ENDS
;	COMDAT ??_C@_0BBM@FGPIIKPE@Number?5of?5initial?5?$CIhighest?5frequ@
CONST	SEGMENT
??_C@_0BBM@FGPIIKPE@Number?5of?5initial?5?$CIhighest?5frequ@ DB 'Number o'
	DB	'f initial (highest frequency) DWT levels through which to pro'
	DB	'pagate geometric information concerning the foreground region'
	DB	' for ROI processing.  Additional levels (i.e., lower frequenc'
	DB	'y subbands) will be treated as belonging entirely to the fore'
	DB	'ground region.', 0aH, 09H, 09H, '[Default is 4]', 00H ; `string'
CONST	ENDS
;	COMDAT ??_C@_06LDAKCIBF@Rshift?$AA@
CONST	SEGMENT
??_C@_06LDAKCIBF@Rshift?$AA@ DB 'Rshift', 00H		; `string'
CONST	ENDS
;	COMDAT ??_C@_0CHI@HKJBINKE@Region?5of?5interest?5up?9shift?5valu@
CONST	SEGMENT
??_C@_0CHI@HKJBINKE@Region?5of?5interest?5up?9shift?5valu@ DB 'Region of '
	DB	'interest up-shift value.  All subband samples which are invol'
	DB	'ved in the synthesis of any image sample which belongs to the'
	DB	' foreground region of an ROI mask will be effectively shifted'
	DB	' up (scaled by two the power of this shift value) prior to qu'
	DB	'antization.  The region geometry is specified independently a'
	DB	'nd is not explicitly signalled through the code-stream; inste'
	DB	'ad, this shift must be sufficiently large to enable the decod'
	DB	'er to separate the foreground and background on the basis of '
	DB	'the shifted sample amplitudes alone.  You will receive an app'
	DB	'ropriate error message if the shift value is too small.', 0aH
	DB	09H, 09H, '[Default is 0]', 00H		; `string'
CONST	ENDS
;	COMDAT ??_C@_03KEJABOAE@RGN?$AA@
CONST	SEGMENT
??_C@_03KEJABOAE@RGN?$AA@ DB 'RGN', 00H			; `string'
CONST	ENDS
;	COMDAT ??_C@_0BBO@GCINCGGG@Some?5absolute?5step?5sizes?5which?5y@
CONST	SEGMENT
??_C@_0BBO@GCINCGGG@Some?5absolute?5step?5sizes?5which?5y@ DB 'Some absol'
	DB	'ute step sizes which you have supplied will be ignored, since'
	DB	' `Qstep'' has been used or a default value for `Qstep'' has b'
	DB	'een forced.  If you want to specify explicit absolute step si'
	DB	'zes, you must not use `Qstep'' anywhere in the inheritance pa'
	DB	'th of the relevant tile-component.', 00H	; `string'
CONST	ENDS
;	COMDAT ??_C@_0JH@IGLAJBAL@Trying?5to?5finalize?5quantization?5@
CONST	SEGMENT
??_C@_0JH@IGLAJBAL@Trying?5to?5finalize?5quantization?5@ DB 'Trying to fi'
	DB	'nalize quantization parameter attributes without first provid'
	DB	'ing any information about the image component bit-depths (i.e'
	DB	'. "Sprecision").', 00H			; `string'
CONST	ENDS
;	COMDAT ??_C@_0DJ@EBJLBPEO@Malformed?5QCD?1QCC?5marker?5segment@
CONST	SEGMENT
??_C@_0DJ@EBJLBPEO@Malformed?5QCD?1QCC?5marker?5segment@ DB 'Malformed QC'
	DB	'D/QCC marker segment encountered. The final ', 00H ; `string'
CONST	ENDS
;	COMDAT ??_C@_0EL@LJBJPKLN@Malformed?5QCD?1QCC?5marker?5segment@
CONST	SEGMENT
??_C@_0EL@LJBJPKLN@Malformed?5QCD?1QCC?5marker?5segment@ DB 'Malformed QC'
	DB	'D/QCC marker segment encountered. Marker segment is too small'
	DB	'.', 00H					; `string'
CONST	ENDS
;	COMDAT ??_C@_0DG@NCOMABPP@Undefined?5style?5byte?5found?5in?5QC@
CONST	SEGMENT
??_C@_0DG@NCOMABPP@Undefined?5style?5byte?5found?5in?5QC@ DB 'Undefined s'
	DB	'tyle byte found in QCD/QCC marker segment!', 00H ; `string'
CONST	ENDS
;	COMDAT ??_C@_0GG@CKIKGBGG@Insufficient?5absolute?5quantizati@
CONST	SEGMENT
??_C@_0GG@CKIKGBGG@Insufficient?5absolute?5quantizati@ DB 'Insufficient a'
	DB	'bsolute quantization step size parameters available for writi'
	DB	'ng QCD/QCC marker segment.', 00H		; `string'
CONST	ENDS
;	COMDAT ??_C@_0GI@PNGCMGM@Absolute?5ranging?5parameters?5for?5@
CONST	SEGMENT
??_C@_0GI@PNGCMGM@Absolute?5ranging?5parameters?5for?5@ DB 'Absolute rang'
	DB	'ing parameters for reversibly compressed subbands must be non'
	DB	'-negative, no larger than 31!', 00H		; `string'
CONST	ENDS
;	COMDAT ??_C@_0FG@JFODLLGA@Insufficient?5absolute?5ranging?5pa@
CONST	SEGMENT
??_C@_0FG@JFODLLGA@Insufficient?5absolute?5ranging?5pa@ DB 'Insufficient '
	DB	'absolute ranging parameters available for writing QCD/QCC mar'
	DB	'ker segment', 00H				; `string'
CONST	ENDS
;	COMDAT ??_C@_0LA@JJEBFCFM@Profile?5violation?5detected?4?5?5QCD@
CONST	SEGMENT
??_C@_0LA@JJEBFCFM@Profile?5violation?5detected?4?5?5QCD@ DB 'Profile vio'
	DB	'lation detected.  QCD/QCC marker segments may only appear in '
	DB	'the main header of a code-stream marked with one of the Digit'
	DB	'al Cinema profiles (CINEMA2K or CINEMA4K).', 00H ; `string'
CONST	ENDS
;	COMDAT ??_C@_0NK@HGFFBJED@Profile?5violation?5detected?5?$CIcode@
CONST	SEGMENT
??_C@_0NK@HGFFBJED@Profile?5violation?5detected?5?$CIcode@ DB 'Profile vi'
	DB	'olation detected (code-stream is technically illegal).  QCD/Q'
	DB	'CC marker segments may only appear in the main header of a Pr'
	DB	'ofile-0 code-stream.  You should set "Sprofile" to 1 or 2.  P'
	DB	'roblem detected in tile ', 00H		; `string'
CONST	ENDS
;	COMDAT ??_C@_0BO@CHOCCCME@?4?5Legal?5range?5is?5from?50?5to?57?4?$AA@
CONST	SEGMENT
??_C@_0BO@CHOCCCME@?4?5Legal?5range?5is?5from?50?5to?57?4?$AA@ DB '. Lega'
	DB	'l range is from 0 to 7.', 00H		; `string'
CONST	ENDS
;	COMDAT ??_C@_0BP@OIAJENOM@Illegal?5number?5of?5guard?5bits?0?5?$AA@
CONST	SEGMENT
??_C@_0BP@OIAJENOM@Illegal?5number?5of?5guard?5bits?0?5?$AA@ DB 'Illegal '
	DB	'number of guard bits, ', 00H		; `string'
CONST	ENDS
;	COMDAT ??_C@_0FI@LONAPNHG@Cannot?5write?5QCD?1QCC?5marker?5segm@
CONST	SEGMENT
??_C@_0FI@LONAPNHG@Cannot?5write?5QCD?1QCC?5marker?5segm@ DB 'Cannot writ'
	DB	'e QCD/QCC marker segment yet!  Absolute step size information'
	DB	' not available.', 00H			; `string'
CONST	ENDS
;	COMDAT ??_C@_0GB@PFKIFKOG@Cannot?5write?5QCD?1QCC?5marker?5segm@
CONST	SEGMENT
??_C@_0GB@PFKIFKOG@Cannot?5write?5QCD?1QCC?5marker?5segm@ DB 'Cannot writ'
	DB	'e QCD/QCC marker segment yet!  Absolute reversible ranging in'
	DB	'formation not available.', 00H		; `string'
CONST	ENDS
;	COMDAT ??_C@_0FP@CMAJFDH@Cannot?5write?5QCD?1QCC?5marker?5segm@
CONST	SEGMENT
??_C@_0FP@CMAJFDH@Cannot?5write?5QCD?1QCC?5marker?5segm@ DB 'Cannot write'
	DB	' QCD/QCC marker segment without first completing all relevant'
	DB	' COD/COC information!', 00H			; `string'
CONST	ENDS
;	COMDAT ??_C@_0HA@COCFLGOG@Cannot?5write?5QCD?1QCC?5marker?5segm@
CONST	SEGMENT
??_C@_0HA@COCFLGOG@Cannot?5write?5QCD?1QCC?5marker?5segm@ DB 'Cannot writ'
	DB	'e QCD/QCC marker segment yet!  Not clear whether quant steps '
	DB	'are derived from the LL band step size.', 00H ; `string'
CONST	ENDS
;	COMDAT ??_C@_0EA@FNJKHCGL@Cannot?5write?5QCD?1QCC?5marker?5segm@
CONST	SEGMENT
??_C@_0EA@FNJKHCGL@Cannot?5write?5QCD?1QCC?5marker?5segm@ DB 'Cannot writ'
	DB	'e QCD/QCC marker segment yet! No info on guard bits.', 00H ; `string'
CONST	ENDS
;	COMDAT ??_C@_0FL@MPLKHCGE@Cannot?5write?5QCD?1QCC?5marker?5segm@
CONST	SEGMENT
??_C@_0FL@MPLKHCGE@Cannot?5write?5QCD?1QCC?5marker?5segm@ DB 'Cannot writ'
	DB	'e QCD/QCC marker segment without first completing relevant CO'
	DB	'D/COC information!', 00H			; `string'
CONST	ENDS
;	COMDAT ??_C@_0DGG@FMKFADLL@Number?5of?5range?5bits?5used?5to?5cod@
CONST	SEGMENT
??_C@_0DGG@FMKFADLL@Number?5of?5range?5bits?5used?5to?5cod@ DB 'Number of'
	DB	' range bits used to code each subband during reversible compr'
	DB	'ession.  Subbands appear in the sequence, LL_D, HL_D, LH_D, .'
	DB	'.., HL_1, LH_1, HH_1, where D denotes the number of DWT level'
	DB	's.  Note that the actual set of subbands for which values are'
	DB	' provided depends upon the decomposition structure, identifie'
	DB	'd via `Cdecomp''.  The number of range bits for a reversibly '
	DB	'compressed subband, plus the number of guard bits (see `Qguar'
	DB	'd''), is equal to 1 plus the number of magnitude bit-planes w'
	DB	'hich are used for coding its samples.', 0aH, 09H, 09H, '[For '
	DB	'compressors, most users will accept the default policy, which'
	DB	' sets the number of range bits to the smallest value which is'
	DB	' guaranteed to avoid overflow or underflow in the bit-plane r'
	DB	'epresentation, assuming that the RCT (colour transform) is us'
	DB	'ed.  If explicit values are supplied, they must be given for '
	DB	'each and every subband.]', 00H		; `string'
CONST	ENDS
;	COMDAT ??_C@_0DLI@DECHONMD@Absolute?5quantization?5step?5sizes@
CONST	SEGMENT
??_C@_0DLI@DECHONMD@Absolute?5quantization?5step?5sizes@ DB 'Absolute qua'
	DB	'ntization step sizes for each subband, expressed as a fractio'
	DB	'n of the nominal dynamic range for that subband. The nominal '
	DB	'range is equal to 2^B (B is the image sample bit-depth) multi'
	DB	'plied by the DC gain of each low-pass subband analysis filter'
	DB	' and the AC gain of each high-pass subband analysis filter, i'
	DB	'nvolved in the construction of the relevant subband. The band'
	DB	's are described one by one, in the following sequence: LL_D, '
	DB	'HL_D, LH_D, ..., HL_1, LH_1, HH_1.  Here, D denotes the numbe'
	DB	'r of DWT levels.  Also, note that the actual set of subbands '
	DB	'for which values are provided depends upon the decomposition '
	DB	'structure identified via `Cdecomp''.  A single step size must'
	DB	' be supplied for every subband (there is no extrapolation), e'
	DB	'xcept in the event that `Qderived'' is set to "yes" -- then, '
	DB	'only one parameter is allowed, corresponding to the LL_D subb'
	DB	'and.', 0aH, 09H, 09H, '[For compressors, the absolute step si'
	DB	'zes are ignored if `Qstep'' has been used.]', 00H ; `string'
CONST	ENDS
;	COMDAT ??_C@_05LCODFIOH@Qstep?$AA@
CONST	SEGMENT
??_C@_05LCODFIOH@Qstep?$AA@ DB 'Qstep', 00H		; `string'
CONST	ENDS
;	COMDAT ??_C@_0KK@JJMLLFOI@Base?5step?5size?5to?5be?5used?5in?5der@
CONST	SEGMENT
??_C@_0KK@JJMLLFOI@Base?5step?5size?5to?5be?5used?5in?5der@ DB 'Base step'
	DB	' size to be used in deriving irreversible quantization step s'
	DB	'izes for every subband. The base step parameter should be in '
	DB	'the range 0 to 2.', 0aH, 09H, 09H, '[Default is 1/256]', 00H ; `string'
CONST	ENDS
;	COMDAT ??_C@_08CCOBJCLJ@Qderived?$AA@
CONST	SEGMENT
??_C@_08CCOBJCLJ@Qderived?$AA@ DB 'Qderived', 00H	; `string'
CONST	ENDS
;	COMDAT ??_C@_0BIH@EIAIGKMJ@Quantization?5steps?5derived?5from?5@
CONST	SEGMENT
??_C@_0BIH@EIAIGKMJ@Quantization?5steps?5derived?5from?5@ DB 'Quantizatio'
	DB	'n steps derived from LL band parameters? If "yes", all quanti'
	DB	'zation step sizes will be related to the LL subband''s step s'
	DB	'izes through appropriate powers of 2 and only the LL band ste'
	DB	'p size will be written in code-stream markers. Otherwise, a s'
	DB	'eparate step size will be recorded for every subband. You can'
	DB	'not use this option with reversible compression.', 0aH, 09H, 09H
	DB	'[Default is not derived]', 00H		; `string'
CONST	ENDS
;	COMDAT ??_C@_06BGIMBACE@Qguard?$AA@
CONST	SEGMENT
??_C@_06BGIMBACE@Qguard?$AA@ DB 'Qguard', 00H		; `string'
CONST	ENDS
;	COMDAT ??_C@_0IA@OLHAIOBI@Number?5of?5guard?5bits?5to?5prevent?5@
CONST	SEGMENT
??_C@_0IA@OLHAIOBI@Number?5of?5guard?5bits?5to?5prevent?5@ DB 'Number of '
	DB	'guard bits to prevent overflow in the magnitude bit-plane rep'
	DB	'resentation. Typical values are 1 or 2.', 0aH, 09H, 09H, '[De'
	DB	'fault is 1]', 00H				; `string'
CONST	ENDS
;	COMDAT ??_C@_0DF@LFCOMKDP@Malformed?5DFS?5marker?5segment?5enc@
CONST	SEGMENT
??_C@_0DF@LFCOMKDP@Malformed?5DFS?5marker?5segment?5enc@ DB 'Malformed DF'
	DB	'S marker segment encountered. The final ', 00H ; `string'
CONST	ENDS
;	COMDAT ??_C@_0EH@IOANDJIM@Malformed?5DFS?5marker?5segment?5enc@
CONST	SEGMENT
??_C@_0EH@IOANDJIM@Malformed?5DFS?5marker?5segment?5enc@ DB 'Malformed DF'
	DB	'S marker segment encountered. Marker segment is too small.', 00H ; `string'
CONST	ENDS
;	COMDAT ??_C@_0FI@CMPAFODD@Illegal?5?$GADSdfs?8?5attribute?5value?5@
CONST	SEGMENT
??_C@_0FI@CMPAFODD@Illegal?5?$GADSdfs?8?5attribute?5value?5@ DB 'Illegal '
	DB	'`DSdfs'' attribute value encountered.  Legal values must be i'
	DB	'n the range 0 to 3.', 00H			; `string'
CONST	ENDS
;	COMDAT ??_C@_0KI@NOLDCDIM@The?5?$GADSdfs?8?5attribute?5may?5be?5def@
CONST	SEGMENT
??_C@_0KI@NOLDCDIM@The?5?$GADSdfs?8?5attribute?5may?5be?5def@ DB 'The `DS'
	DB	'dfs'' attribute may be defined only for index values in the r'
	DB	'ange 1 to 127.  Perhaps your decomposition structure requires'
	DB	' too many distinct DFS marker segments.', 00H ; `string'
CONST	ENDS
;	COMDAT ??_C@_0DBH@IBFFCHEI@Describes?5the?5primary?5subband?5de@
CONST	SEGMENT
??_C@_0DBH@IBFFCHEI@Describes?5the?5primary?5subband?5de@ DB 'Describes t'
	DB	'he primary subband decomposition type associated with each DW'
	DB	'T level, starting from the highest resolution (1''st level). '
	DB	' The value may be one of `B'' (split in both directions), `H'''
	DB	' (split horizontally), `V'' (split vertically) or `X'' (don'''
	DB	't split at all).  The last case is degenerate, since it means'
	DB	' that the DWT level in question produces no detail subbands w'
	DB	'hatsoever, simply passing its input image through to the next'
	DB	' DWT level.  However, this can be useful in some circumstance'
	DB	's.  The primary subband decomposition determines the downsamp'
	DB	'ling factors between each successive resolution level.  If th'
	DB	'ere are more DWT levels than `DSdfs'' values, the last availa'
	DB	'ble value is replicated, as required.', 0aH, 09H, 09H, '[You '
	DB	'would not normally set values for this parameter attribute yo'
	DB	'urself.]', 00H				; `string'
CONST	ENDS
;	COMDAT ??_C@_0DF@KMABOOPE@Malformed?5ADS?5marker?5segment?5enc@
CONST	SEGMENT
??_C@_0DF@KMABOOPE@Malformed?5ADS?5marker?5segment?5enc@ DB 'Malformed AD'
	DB	'S marker segment encountered. The final ', 00H ; `string'
CONST	ENDS
;	COMDAT ??_C@_0EH@JBFCFNFB@Malformed?5ADS?5marker?5segment?5enc@
CONST	SEGMENT
??_C@_0EH@JBFCFNFB@Malformed?5ADS?5marker?5segment?5enc@ DB 'Malformed AD'
	DB	'S marker segment encountered. Marker segment is too small.', 00H ; `string'
CONST	ENDS
;	COMDAT ??_C@_04FOFDHDLH@?0?50x?$AA@
CONST	SEGMENT
??_C@_04FOFDHDLH@?0?50x?$AA@ DB ', 0x', 00H		; `string'
CONST	ENDS
;	COMDAT ??_C@_0CO@MBLLCAAI@Encountered?5invalid?5?$GADdecomp?8?5at@
CONST	SEGMENT
??_C@_0CO@MBLLCAAI@Encountered?5invalid?5?$GADdecomp?8?5at@ DB 'Encounter'
	DB	'ed invalid `Ddecomp'' attribute value', 00H	; `string'
CONST	ENDS
;	COMDAT ??_C@_0KK@HLPJKNOJ@The?5?$GADdecomp?8?5attribute?5may?5be?5d@
CONST	SEGMENT
??_C@_0KK@HLPJKNOJ@The?5?$GADdecomp?8?5attribute?5may?5be?5d@ DB 'The `Dd'
	DB	'ecomp'' attribute may be defined only for index values in the'
	DB	' range 1 to 127.  Perhaps your decomposition structure requir'
	DB	'es too many distinct ADS marker segments.', 00H ; `string'
CONST	ENDS
;	COMDAT ??_C@_0CII@LBPCLNH@Array?5of?5splitting?5instructions?0@
CONST	SEGMENT
??_C@_0CII@LBPCLNH@Array?5of?5splitting?5instructions?0@ DB 'Array of spl'
	DB	'itting instructions, whose interpretation generally depends u'
	DB	'pon the way in which ADS and DFS tables are jointly reference'
	DB	'd from COD/COC marker segments, as identified by the `Cads'' '
	DB	'and `Cdfs'' attributes.  Each splitting instruction must take'
	DB	' one of the values: 3 (split horizontally and vertically); 2 '
	DB	'(split vertically); 1 (split horizontally); or 0 (do not spli'
	DB	't).  The last value is repeated as necessary, if accesses are'
	DB	' made beyond the end of the array.  For the meaning of these '
	DB	'splitting instructions, the reader is referred to Annex F of '
	DB	'IS 15444-2.', 0aH, 09H, 09H, '[You would not normally set val'
	DB	'ues for this parameter attribute yourself.]', 00H ; `string'
CONST	ENDS
;	COMDAT ??_C@_0BC@GOBGDILI@?$CIX?$DN0?0H?$DN1?0V?$DN2?0B?$DN3?$CJ?$AA@
CONST	SEGMENT
??_C@_0BC@GOBGDILI@?$CIX?$DN0?0H?$DN1?0V?$DN2?0B?$DN3?$CJ?$AA@ DB '(X=0,H'
	DB	'=1,V=2,B=3)', 00H				; `string'
CONST	ENDS
;	COMDAT ??_C@_0BIG@MKJOPHKN@Number?5of?5sub?9levels?5in?5each?5suc@
CONST	SEGMENT
??_C@_0BIG@MKJOPHKN@Number?5of?5sub?9levels?5in?5each?5suc@ DB 'Number of'
	DB	' sub-levels in each successive DWT level, starting from the h'
	DB	'ighest level.  Accesses to non-existent values are supported '
	DB	'by repeating the last available value.  All entries must lie '
	DB	'in the range 1 to 3.  For the meaning of sub-levels in JPEG20'
	DB	'00 Part-2, the reader is referred to Annex F of IS 15444-2.', 0aH
	DB	09H, 09H, '[You would not normally set values for this paramet'
	DB	'er attribute yourself.]', 00H		; `string'
CONST	ENDS
;	COMDAT ??_C@_0BHE@CMGODJOA@This?5attribute?5is?5ultimately?5set@
CONST	SEGMENT
??_C@_0BHE@CMGODJOA@This?5attribute?5is?5ultimately?5set@ DB 'This attrib'
	DB	'ute is ultimately set so as to hold the same information as t'
	DB	'he `Cdecomp'' attribute of the COD/COC marker segment whose `'
	DB	'Cads'' holds our instance index.  Thus, for example, if `Cads'
	DB	'''=3 then `Cdecomp'' must be identical to `Ddecomp:I3''.  Thi'
	DB	's identification is created by the internal machinery, howeve'
	DB	'r.  You should not explicitly set `Ddecomp'' values yourself.'
	DB	00H						; `string'
CONST	ENDS
;	COMDAT ??_C@_0FO@DKHKMNAI@Incompatible?5?$GADSdfs?8?5and?5?$GACdecom@
CONST	SEGMENT
??_C@_0FO@DKHKMNAI@Incompatible?5?$GADSdfs?8?5and?5?$GACdecom@ DB 'Incomp'
	DB	'atible `DSdfs'' and `Cdecomp'' values seem to have been creat'
	DB	'ed.  Should not be possible.', 00H		; `string'
CONST	ENDS
;	COMDAT ??_C@_0CKE@KBAACNPK@Terminal?5splitting?5styles?5must?5h@
CONST	SEGMENT
??_C@_0CKE@KBAACNPK@Terminal?5splitting?5styles?5must?5h@ DB 'Terminal sp'
	DB	'litting styles must have identical splitting instructions for'
	DB	' all primary detail subbands (i.e., identical colon-separated'
	DB	' sub-strings), in each of which all 2-bit splitting codes mus'
	DB	't be identical (i.e., sub-strings must consist of identical c'
	DB	'haracters from the set, `-'', `H'', `V'' and `B''.  The only '
	DB	'exception to this rule is that where each primary subband is '
	DB	'split only once, in which case it is sufficient for all prima'
	DB	'ry subbands to be split once in the same direction (i.e., all'
	DB	' `-'', all `H--'', all `V--'' or all `B----'').  These rules '
	DB	'derive from the way in which Part-2 of the JPEG2000 standard '
	DB	'extrapolates information found in ADS and DFS marker segments'
	DB	'.', 00H					; `string'
CONST	ENDS
;	COMDAT ??_C@_04GPPIMOMJ@?$CC?4?5?5?$AA@
CONST	SEGMENT
??_C@_04GPPIMOMJ@?$CC?4?5?5?$AA@ DB '".  ', 00H		; `string'
CONST	ENDS
;	COMDAT ??_C@_0DH@CDDAMBJI@Encountered?5invalid?5terminal?5?$GACd@
CONST	SEGMENT
??_C@_0DH@CDDAMBJI@Encountered?5invalid?5terminal?5?$GACd@ DB 'Encountere'
	DB	'd invalid terminal `Cdecomp'' attribute value', 00H ; `string'
CONST	ENDS
;	COMDAT ??_C@_0BHK@LADFPGOB@Unacceptable?5interaction?5between@
CONST	SEGMENT
??_C@_0BHK@LADFPGOB@Unacceptable?5interaction?5between@ DB 'Unacceptable '
	DB	'interaction between ADS (Arbitrary Decomposition Style) and D'
	DB	'FS (Downsampling Factor Styles) information in Part-2 codestr'
	DB	'eam.  It makes no sense to use the same ADS table for two til'
	DB	'e-components which have different downsampling factor styles,'
	DB	' since downsampling styles have a strong effect on the interp'
	DB	'retation of information recorded in the ADS marker segment.', 00H ; `string'
CONST	ENDS
;	COMDAT ??_C@_05FJELFOMO@DSdfs?$AA@
CONST	SEGMENT
??_C@_05FJELFOMO@DSdfs?$AA@ DB 'DSdfs', 00H		; `string'
CONST	ENDS
;	COMDAT ??_C@_05GNBBHKJC@DSads?$AA@
CONST	SEGMENT
??_C@_05GNBBHKJC@DSads?$AA@ DB 'DSads', 00H		; `string'
CONST	ENDS
;	COMDAT ??_C@_05MIABAABB@DOads?$AA@
CONST	SEGMENT
??_C@_05MIABAABB@DOads?$AA@ DB 'DOads', 00H		; `string'
CONST	ENDS
;	COMDAT ??_C@_07MCCNNBND@Ddecomp?$AA@
CONST	SEGMENT
??_C@_07MCCNNBND@Ddecomp?$AA@ DB 'Ddecomp', 00H		; `string'
CONST	ENDS
;	COMDAT ??_C@_0BDN@MGKCOKBG@You?5are?5attempting?5to?5define?5a?5d@
CONST	SEGMENT
??_C@_0BDN@MGKCOKBG@You?5are?5attempting?5to?5define?5a?5d@ DB 'You are a'
	DB	'ttempting to define a decomposition structure within a tile, '
	DB	'which involves a different downsampling structure (different '
	DB	'primary subband decomposition -- first character code of each'
	DB	' record in `Cdecomp'' attribute) to that defined (implicitly '
	DB	'or explicitly) for the main codestream header.  This is illeg'
	DB	'al.', 00H					; `string'
CONST	ENDS
;	COMDAT ??_C@_0HC@MIEFLBEH@Profile?5violation?5detected?4?5?5The@
CONST	SEGMENT
??_C@_0HC@MIEFLBEH@Profile?5violation?5detected?4?5?5The@ DB 'Profile vio'
	DB	'lation detected.  The CINEMA4K profile allows at most 6 DWT d'
	DB	'ecomposition levels.  You have requested ', 00H ; `string'
CONST	ENDS
;	COMDAT ??_C@_0FM@FEAHACJA@Profile?5violation?5detected?4?5?5The@
CONST	SEGMENT
??_C@_0FM@FEAHACJA@Profile?5violation?5detected?4?5?5The@ DB 'Profile vio'
	DB	'lation detected.  The CINEMA2K profile requires a CPRL packet'
	DB	' progression order.', 00H			; `string'
CONST	ENDS
;	COMDAT ??_C@_0BB@NIPBGPHB@?5levels?0?5though?4?$AA@
CONST	SEGMENT
??_C@_0BB@NIPBGPHB@?5levels?0?5though?4?$AA@ DB ' levels, though.', 00H ; `string'
CONST	ENDS
;	COMDAT ??_C@_0HC@OGIJFNLO@Profile?5violation?5detected?4?5?5The@
CONST	SEGMENT
??_C@_0HC@OGIJFNLO@Profile?5violation?5detected?4?5?5The@ DB 'Profile vio'
	DB	'lation detected.  The CINEMA2K profile allows at most 5 DWT d'
	DB	'ecomposition levels.  You have requested ', 00H ; `string'
CONST	ENDS
;	COMDAT ??_C@_0DGO@NKGPBPEP@Profile?5violation?5may?5occur?5with@
CONST	SEGMENT
??_C@_0DGO@NKGPBPEP@Profile?5violation?5may?5occur?5with@ DB 'Profile vio'
	DB	'lation may occur without noticing, since you have requested a'
	DB	' Digital Cinema profile (CINEMA2K or CINEMA4K) without provid'
	DB	'ing a `Creslengths'' attribute.  The latter is generally requ'
	DB	'ired to be sure that the compressed lengths of resolution/com'
	DB	'ponent subsets conform to the tight Digital Cinema prescripti'
	DB	'on.  The actual allowed sizes depend upon the projected frame'
	DB	' rate, so are not enforced internally.  By way of example, yo'
	DB	'u can generate a legal CINEMA2K codestream for 24 fps by supp'
	DB	'lying "Creslengths=1302083" together with "Creslengths:C0=104'
	DB	'1666" "Creslengths:C1=104166" and "Creslengths:C2=1041666".  '
	DB	'For 48 fps, use 651041 and 520833 instead.  For a 4K codestre'
	DB	'am at 24 fps, use "Creslengths=1302083", together with "Cresl'
	DB	'enths:C0=1302083,1041666", "Creslengths:C1=1302083,1041666" a'
	DB	'nd "Creslengths:C2=1302083,104166", with the same replacement'
	DB	's for 48 fps.', 00H				; `string'
CONST	ENDS
;	COMDAT ??_C@_0OO@FGOLANDB@Profile?5violation?5detected?4?5?5Req@
CONST	SEGMENT
??_C@_0OO@FGOLANDB@Profile?5violation?5detected?4?5?5Req@ DB 'Profile vio'
	DB	'lation detected.  Requested precinct dimensions are incompati'
	DB	'ble with the use of a Digital Cinema profile (CINEMA2K or CIN'
	DB	'EMA4K).  All precincts need to be of size 256x256 except the '
	DB	'lowest resolution level which needs 128x128', 00H ; `string'
CONST	ENDS
;	COMDAT ??_C@_0IK@BEGMJOLL@Profile?5violation?5detected?4?5?5Req@
CONST	SEGMENT
??_C@_0IK@BEGMJOLL@Profile?5violation?5detected?4?5?5Req@ DB 'Profile vio'
	DB	'lation detected.  Requested block coding mode is incompatible'
	DB	' with the use of a Digital Cinema profile (CINEMA2K or CINEMA'
	DB	'4K).', 00H					; `string'
CONST	ENDS
;	COMDAT ??_C@_0KF@NKKOHPBE@Profile?5violation?5detected?4?5?5The@
CONST	SEGMENT
??_C@_0KF@NKKOHPBE@Profile?5violation?5detected?4?5?5The@ DB 'Profile vio'
	DB	'lation detected.  The Digital Cinema profiles (CINEMA2K or CI'
	DB	'NEMA4K) require a code-block size of exactly 32x32.  You have'
	DB	' specified something different.', 00H	; `string'
CONST	ENDS
;	COMDAT ??_C@_0BBC@GFMDHLNB@Profile?5violation?5detected?4?5?5The@
CONST	SEGMENT
??_C@_0BBC@GFMDHLNB@Profile?5violation?5detected?4?5?5The@ DB 'Profile vi'
	DB	'olation detected.  The Digital Cinema profiles (CINEMA2K or C'
	DB	'INEMA4K), do not strictly allow the use of multiple quality l'
	DB	'ayers (i.e., Clayers should strictly be 1).  Letting it go fo'
	DB	'r now, since you could strip the extra quality layers later o'
	DB	'n to make it legal.', 00H			; `string'
CONST	ENDS
;	COMDAT ??_C@_0HE@FAOENAIF@Illegal?5ATK?5instance?5index?5found@
CONST	SEGMENT
??_C@_0HE@FAOENAIF@Illegal?5ATK?5instance?5index?5found@ DB 'Illegal ATK '
	DB	'instance index found when finalizing a COD/COC marker segment'
	DB	'.  Legal values are in the range 2 to 255.', 00H ; `string'
CONST	ENDS
;	COMDAT ??_C@_0BAO@ECCKKNFO@Illegal?5?$GACkernels?8?5value?5found?5w@
CONST	SEGMENT
??_C@_0BAO@ECCKKNFO@Illegal?5?$GACkernels?8?5value?5found?5w@ DB 'Illegal'
	DB	' `Ckernels'' value found while finalizing a COD/COC marker se'
	DB	'gment.  Reversible processes must use the W5X3 kernel, while '
	DB	'irreversible processes must use the W9X7 kernel, unless you h'
	DB	'ave explicitly identified a different (Part-2) kernel, via th'
	DB	'e `Catk'' attribute.', 00H			; `string'
CONST	ENDS
;	COMDAT ??_C@_0KB@HDNIPBLH@Unable?5to?5access?5the?5?$GAKreversibl@
CONST	SEGMENT
??_C@_0KB@HDNIPBLH@Unable?5to?5access?5the?5?$GAKreversibl@ DB 'Unable to'
	DB	' access the `Kreversible'' attribute associated with the `Cat'
	DB	'k'' index found while finalizing a COD/COC marker segment.  T'
	DB	'he value of the `Catk'' index is', 00H	; `string'
CONST	ENDS
;	COMDAT ??_C@_0JL@PNHEEPLI@DFS?5table?5index?5encountered?5whil@
CONST	SEGMENT
??_C@_0JL@PNHEEPLI@DFS?5table?5index?5encountered?5whil@ DB 'DFS table in'
	DB	'dex encountered while finalizing COD/COD marker segment infor'
	DB	'mation does not refer to accessible DFS (Downsampling Factor '
	DB	'Styles) information.', 00H			; `string'
CONST	ENDS
;	COMDAT ??_C@_03CPEMBAGM@DFS?$AA@
CONST	SEGMENT
??_C@_03CPEMBAGM@DFS?$AA@ DB 'DFS', 00H			; `string'
CONST	ENDS
;	COMDAT ??_C@_0JP@NFJAKPFP@ADS?5table?5index?5encountered?5whil@
CONST	SEGMENT
??_C@_0JP@NFJAKPFP@ADS?5table?5index?5encountered?5whil@ DB 'ADS table in'
	DB	'dex encountered while finalizing COD/COD marker segment infor'
	DB	'mation does not refer to accessible ADS (Arbitrary Decomposit'
	DB	'ion Styles) information.', 00H		; `string'
CONST	ENDS
;	COMDAT ??_C@_03BLBGDEDA@ADS?$AA@
CONST	SEGMENT
??_C@_03BLBGDEDA@ADS?$AA@ DB 'ADS', 00H			; `string'
CONST	ENDS
;	COMDAT ??_C@_0HP@FAEJKEME@?0?5detected?5by?5coding?5parameter?5s@
CONST	SEGMENT
??_C@_0HP@FAEJKEME@?0?5detected?5by?5coding?5parameter?5s@ DB ', detected'
	DB	' by coding parameter sub-system; legal code-streams may have '
	DB	'no more than 32 DWT levels in any given tile-component.', 00H ; `string'
CONST	ENDS
;	COMDAT ??_C@_0GK@BLGJFPGL@?0?5detected?5by?5coding?5parameter?5s@
CONST	SEGMENT
??_C@_0GK@BLGJFPGL@?0?5detected?5by?5coding?5parameter?5s@ DB ', detected'
	DB	' by coding parameter sub-system; legal code-streams may have '
	DB	'no more than 16384 quality layers.', 00H	; `string'
CONST	ENDS
;	COMDAT ??_C@_0EL@MEODJCKN@Malformed?5COD?1COC?5marker?5segment@
CONST	SEGMENT
??_C@_0EL@MEODJCKN@Malformed?5COD?1COC?5marker?5segment@ DB 'Malformed CO'
	DB	'D/COC marker segment encountered. Marker segment is too small'
	DB	'.', 00H					; `string'
CONST	ENDS
;	COMDAT ??_C@_0DJ@BKGFKCIK@Malformed?5COD?1COC?5marker?5segment@
CONST	SEGMENT
??_C@_0DJ@BKGFKCIK@Malformed?5COD?1COC?5marker?5segment@ DB 'Malformed CO'
	DB	'D/COC marker segment encountered. The final ', 00H ; `string'
CONST	ENDS
;	COMDAT ??_C@_0EH@CMJBHJJH@Malformed?5COC?5marker?5segment?5enc@
CONST	SEGMENT
??_C@_0EH@CMJBHJJH@Malformed?5COC?5marker?5segment?5enc@ DB 'Malformed CO'
	DB	'C marker segment encountered. Marker segment is too small.', 00H ; `string'
CONST	ENDS
;	COMDAT ??_C@_0DE@LDDJFDOP@Malformed?5COC?5marker?5segment?4?5In@
CONST	SEGMENT
??_C@_0DE@LDDJFDOP@Malformed?5COC?5marker?5segment?4?5In@ DB 'Malformed C'
	DB	'OC marker segment. Invalid "Scoc" value!', 00H ; `string'
CONST	ENDS
;	COMDAT ??_C@_0EH@OJAEGGAB@Malformed?5COD?5marker?5segment?5enc@
CONST	SEGMENT
??_C@_0EH@OJAEGGAB@Malformed?5COD?5marker?5segment?5enc@ DB 'Malformed CO'
	DB	'D marker segment encountered. Marker segment is too small.', 00H ; `string'
CONST	ENDS
;	COMDAT ??_C@_0EA@CJECMJPA@Malformed?5COD?5marker?5segment?5enc@
CONST	SEGMENT
??_C@_0EA@CJECMJPA@Malformed?5COD?5marker?5segment?5enc@ DB 'Malformed CO'
	DB	'D marker segment encountered. Invalid "Scod" value!', 00H ; `string'
CONST	ENDS
;	COMDAT ??_C@_0CJ@EGMBEELA@Precinct?5dimensions?5may?5not?5exce@
CONST	SEGMENT
??_C@_0CJ@EGMBEELA@Precinct?5dimensions?5may?5not?5exce@ DB 'Precinct dim'
	DB	'ensions may not exceed 2^15!', 00H		; `string'
CONST	ENDS
;	COMDAT ??_C@_0CP@INIGLHJN@Precinct?5dimensions?5must?5be?5exac@
CONST	SEGMENT
??_C@_0CP@INIGLHJN@Precinct?5dimensions?5must?5be?5exac@ DB 'Precinct dim'
	DB	'ensions must be exact powers of 2!', 00H	; `string'
CONST	ENDS
;	COMDAT ??_C@_0CN@PBFFALNG@No?5precinct?5dimensions?5supplied?5@
CONST	SEGMENT
??_C@_0CN@PBFFALNG@No?5precinct?5dimensions?5supplied?5@ DB 'No precinct '
	DB	'dimensions supplied for COD/COC!', 00H	; `string'
CONST	ENDS
;	COMDAT ??_C@_0HD@OIMMHFN@Maximum?5code?9block?5dimensions?5mu@
CONST	SEGMENT
??_C@_0HD@OIMMHFN@Maximum?5code?9block?5dimensions?5mu@ DB 'Maximum code-'
	DB	'block dimensions must be no less than 4 and the maximum code-'
	DB	'block area must not exceed 4096 samples!', 00H ; `string'
CONST	ENDS
;	COMDAT ??_C@_0DD@IFOGDLHK@Maximum?5code?9block?5dimensions?5mu@
CONST	SEGMENT
??_C@_0DD@IFOGDLHK@Maximum?5code?9block?5dimensions?5mu@ DB 'Maximum code'
	DB	'-block dimensions must be powers of 2!', 00H ; `string'
CONST	ENDS
;	COMDAT ??_C@_0HN@HPMPNOPC@Illegal?5ATK?5instance?5index?5found@
CONST	SEGMENT
??_C@_0HN@HPMPNOPC@Illegal?5ATK?5instance?5index?5found@ DB 'Illegal ATK '
	DB	'instance index found when preparing to generate COD/COC marke'
	DB	'r segment.  Legal values are in the range 2 to 255.', 00H ; `string'
CONST	ENDS
;	COMDAT ??_C@_0BBG@KCPOGFOJ@Illegal?5?$GACkernels?8?5value?5found?5w@
CONST	SEGMENT
??_C@_0BBG@KCPOGFOJ@Illegal?5?$GACkernels?8?5value?5found?5w@ DB 'Illegal'
	DB	' `Ckernels'' value found when preparing to generate COD/COC m'
	DB	'arker segment.  Reversible processes must use the W5X3 kernel'
	DB	', while irreversible processes must use the W9X7 kernel, unle'
	DB	'ss you have explicitly identified a different (Part-2) kernel'
	DB	', via the `Catk'' attribute.', 00H		; `string'
CONST	ENDS
;	COMDAT ??_C@_0BAB@INJJPFGA@About?5to?5write?5a?5component?9speci@
CONST	SEGMENT
??_C@_0BAB@INJJPFGA@About?5to?5write?5a?5component?9speci@ DB 'About to w'
	DB	'rite a component-specific COD/COC marker segment, which ident'
	DB	'ifies a different number of DWT decomposition levels (Clevels'
	DB	') to that identified in the main COD marker segmen.  This is '
	DB	'not legal for the Digital Cinema profiles CINEMA2K or CINEMA4'
	DB	'K)', 00H					; `string'
CONST	ENDS
;	COMDAT ??_C@_0LA@PCHBPKGD@Profile?5violation?5detected?4?5?5COD@
CONST	SEGMENT
??_C@_0LA@PCHBPKGD@Profile?5violation?5detected?4?5?5COD@ DB 'Profile vio'
	DB	'lation detected.  COD/COC marker segments may only appear in '
	DB	'the main header of a code-stream marked with one of the Digit'
	DB	'al Cinema profiles (CINEMA2K or CINEMA4K).', 00H ; `string'
CONST	ENDS
;	COMDAT ??_C@_0NK@HPJJFAAC@Profile?5violation?5detected?5?$CIcode@
CONST	SEGMENT
??_C@_0NK@HPJJFAAC@Profile?5violation?5detected?5?$CIcode@ DB 'Profile vi'
	DB	'olation detected (code-stream is technically illegal).  COD/C'
	DB	'OC marker segments may only appear in the main header of a Pr'
	DB	'ofile-0 code-stream.  You should set "Sprofile" to 1 or 2.  P'
	DB	'roblem detected in tile ', 00H		; `string'
CONST	ENDS
;	COMDAT ??_C@_0JD@JKCKBNOF@You?5cannot?5use?5a?5colour?5transfor@
CONST	SEGMENT
??_C@_0JD@JKCKBNOF@You?5cannot?5use?5a?5colour?5transfor@ DB 'You cannot '
	DB	'use a colour transform unless the first 3 image components ha'
	DB	've identical bit-depths and are either all reversible or all '
	DB	'irreversible.', 00H				; `string'
CONST	ENDS
;	COMDAT ??_C@_0HM@DEKELPAG@You?5cannot?5use?5a?5Part?91?5colour?5t@
CONST	SEGMENT
??_C@_0HM@DEKELPAG@You?5cannot?5use?5a?5Part?91?5colour?5t@ DB 'You canno'
	DB	't use a Part-1 colour transform (`Cycc=yes'') at the same tim'
	DB	'e as a Part-2 multi-component transform (`Cmct != 0'').', 00H ; `string'
CONST	ENDS
;	COMDAT ??_C@_0BK@GFANLIDL@?4?5Legal?5range?5is?50?5to?532?$CB?$AA@
CONST	SEGMENT
??_C@_0BK@GFANLIDL@?4?5Legal?5range?5is?50?5to?532?$CB?$AA@ DB '. Legal r'
	DB	'ange is 0 to 32!', 00H			; `string'
CONST	ENDS
;	COMDAT ??_C@_0BP@JIANFEOP@Illegal?5number?5of?5DWT?5levels?0?5?$AA@
CONST	SEGMENT
??_C@_0BP@JIANFEOP@Illegal?5number?5of?5DWT?5levels?0?5?$AA@ DB 'Illegal '
	DB	'number of DWT levels, ', 00H		; `string'
CONST	ENDS
;	COMDAT ??_C@_0CD@EICILEGK@Illegal?5number?5of?5quality?5layers@
CONST	SEGMENT
??_C@_0CD@EICILEGK@Illegal?5number?5of?5quality?5layers@ DB 'Illegal numb'
	DB	'er of quality layers, ', 00H		; `string'
CONST	ENDS
;	COMDAT ??_C@_0BEM@DMPFDMNO@Illegal?5combination?5of?5?$GAClevels?8@
CONST	SEGMENT
??_C@_0BEM@DMPFDMNO@Illegal?5combination?5of?5?$GAClevels?8@ DB 'Illegal '
	DB	'combination of `Clevels'' and `Cdfs'' values detected.  JPEG2'
	DB	'000 Part-2 codestreams record the DFS table index associated '
	DB	'with the `Cdfs'' parameter in a main header COC marker segmen'
	DB	't in place of the `Clevels'' value.  Thus, you cannot use a a'
	DB	'rbitrary downsampling factor styles while also providing a ne'
	DB	'w value for `Clevels''.', 00H		; `string'
CONST	ENDS
;	COMDAT ??_C@_0BLH@FGHKBOHC@Illegal?5combination?5of?5?$GAClevels?8@
CONST	SEGMENT
??_C@_0BLH@FGHKBOHC@Illegal?5combination?5of?5?$GAClevels?8@ DB 'Illegal '
	DB	'combination of `Clevels'' and `Cads'' values detected.  JPEG2'
	DB	'000 Part-2 codestreams record the ADS table index associated '
	DB	'with the `Cads'' parameter in a tile-specific COD or COC mark'
	DB	'er segment in place of the `Clevels'' value.  Thus, you canno'
	DB	't use a different `Clevels'' value to the default inherited f'
	DB	'rom a COD/COC marker segment with broader scope, while also s'
	DB	'pecifying arbitrary decomposition styles via `Cads'' and/or `'
	DB	'Cdecomp''.', 00H				; `string'
CONST	ENDS
;	COMDAT ??_C@_0HD@OCHJAHPC@Unable?5to?5write?5COD?5marker?5segme@
CONST	SEGMENT
??_C@_0HD@OCHJAHPC@Unable?5to?5write?5COD?5marker?5segme@ DB 'Unable to w'
	DB	'rite COD marker segment yet! Some info missing.  Perhaps you '
	DB	'forgot to call `kdu_params::finalize_all''.', 00H ; `string'
CONST	ENDS
;	COMDAT ??_C@_0HE@NKGALBNL@Attempting?5to?5discard?5too?5many?5r@
CONST	SEGMENT
??_C@_0HE@NKGALBNL@Attempting?5to?5discard?5too?5many?5r@ DB 'Attempting '
	DB	'to discard too many resolution levels!  Cannot discard more r'
	DB	'esolution levels than there are DWT levels.', 00H ; `string'
CONST	ENDS
;	COMDAT ??_C@_0M@HKNEBDCB@Creslengths?$AA@
CONST	SEGMENT
??_C@_0M@HKNEBDCB@Creslengths?$AA@ DB 'Creslengths', 00H ; `string'
CONST	ENDS
;	COMDAT ??_C@_0HEO@NJIJCAOA@Maximum?5number?5of?5compressed?5byt@
CONST	SEGMENT
??_C@_0HEO@NJIJCAOA@Maximum?5number?5of?5compressed?5byt@ DB 'Maximum num'
	DB	'ber of compressed bytes (packet headers plus packet bodies) t'
	DB	'hat can be produced for each successive image resolution, sta'
	DB	'rting from the highest resolution and working down to the low'
	DB	'est.  The limit applies to the cumulative number of bytes gen'
	DB	'erated for the resolution in question and all lower resolutio'
	DB	'ns.  If the attribute is global to the entire codestream (no '
	DB	'T or C specifier), the limit for each resolution applies to t'
	DB	'he cumulative number of bytes up to that resolution in all ti'
	DB	'les and all image components.  If the attribute is tile-speci'
	DB	'fic but not component-specific, the limit for each resolution'
	DB	' applies to the cumulative number of bytes up to that resolut'
	DB	'ion for all image components within the tile.  If the attribu'
	DB	'te is component-specific, the limit applies to the cumulative'
	DB	' number of bytes up to the resolution in question across all '
	DB	'tiles, but only in that image component.  Finally, if the att'
	DB	'ribute is component-specific and tile-specific, the limit app'
	DB	'lies to the cumulative number of bytes up to the resolution i'
	DB	'n question, within just that tile-component.  You can provide'
	DB	' limits of all four types.  Moreover, you need not provide li'
	DB	'mits for all resolutions. The initial set of byte limits appl'
	DB	'ies only to the first quality layer to be generated during co'
	DB	'mpression.  Limits for additional quality layers may be suppl'
	DB	'ied by inserting zero or negative values into the list; these'
	DB	' are treated as layer delimiters.  So, for example, the param'
	DB	'eter string "1000,700,0,3000,2000,0,10000" provides limits of'
	DB	' 1000 and 700 bytes for the highest and second highest resolu'
	DB	'tions in the first quality layer, 3000 and 2000 bytes for the'
	DB	' same resolutions in the second quality layer, and a limit of'
	DB	' 10000 bytes only to the highest resolution in the third qual'
	DB	'ity layer.  Any subsequent quality layers are not restricted '
	DB	'by this parameter attribute.', 00H		; `string'
CONST	ENDS
;	COMDAT ??_C@_0O@GLALLHKC@Cband_weights?$AA@
CONST	SEGMENT
??_C@_0O@GLALLHKC@Cband_weights?$AA@ DB 'Cband_weights', 00H ; `string'
CONST	ENDS
;	COMDAT ??_C@_0FOI@OMMBBAAN@Weighting?5factors?5for?5each?5succe@
CONST	SEGMENT
??_C@_0FOI@OMMBBAAN@Weighting?5factors?5for?5each?5succe@ DB 'Weighting f'
	DB	'actors for each successive subband, starting from the highest'
	DB	' frequency subbands and working down (i.e., HH1, LH1, HL1, HH'
	DB	'2, ...). The last supplied weight is repeated as necessary fo'
	DB	'r all remaining subbands (except the LL band). If `Clev_weigh'
	DB	'ts'' is also supplied, both sets of weighting factors are com'
	DB	'bined (multiplied).  Weight values are squared to obtain ener'
	DB	'gy weights for weighted MSE calculations.  The LL subband alw'
	DB	'ays has a weight of 1.0, which avoids problems which may occu'
	DB	'r when image components or tiles have different numbers of re'
	DB	'solution levels.  To modify the relative weighting of compone'
	DB	'nts or tile-components, including their LL subbands, use the '
	DB	'`Cweight'' option; its weighting factors are multiplied by th'
	DB	'ose specified using `Cband_weights'' and `Clev_weights''.  If'
	DB	' the `Cdecomp'' attribute is used to describe more general pa'
	DB	'cket wavelet transforms, all subbands obtained by splitting a'
	DB	'n HL, LH or HH subband will be assigned the same weight.  No '
	DB	'mechanism is provided for specifying their weights separately'
	DB	'.  Moreover, all three weights (HL, LH and HH) are present fo'
	DB	'r each resolution level, even if that level only involves hor'
	DB	'izontal or vertical splitting, and even in the degenerate cas'
	DB	'e of no splitting at all.  For horizontal splitting only, sub'
	DB	'bands derived from HX use the corresponding HL weight; HH and'
	DB	' LH weights are then ignored.  Similarly for vertical splitti'
	DB	'ng only, subbands derived from XH use the corresponding LH we'
	DB	'ight; HH and HL weights are then ignored.', 00H ; `string'
CONST	ENDS
;	COMDAT ??_C@_0N@HICBBPMC@Clev_weights?$AA@
CONST	SEGMENT
??_C@_0N@HICBBPMC@Clev_weights?$AA@ DB 'Clev_weights', 00H ; `string'
CONST	ENDS
;	COMDAT ??_C@_0CEE@FMHLHNCK@Weighting?5factors?5for?5each?5succe@
CONST	SEGMENT
??_C@_0CEE@FMHLHNCK@Weighting?5factors?5for?5each?5succe@ DB 'Weighting f'
	DB	'actors for each successive resolution level, starting from th'
	DB	'e highest resolution and working down to the lowest (but not '
	DB	'including the LL band!!). The last supplied weight is repeate'
	DB	'd as necessary.  Weight values are squared to obtain energy w'
	DB	'eights for weighted MSE calculations.  The LL subband always '
	DB	'has a weight of 1.0, regardless of the number of resolution l'
	DB	'evels.  However, the weights associated with all subbands, in'
	DB	'cluding the LL band, are multiplied by the value supplied by '
	DB	'`Cweight'', which may be specialized to individual components'
	DB	' or tile-components.', 00H			; `string'
CONST	ENDS
;	COMDAT ??_C@_07HDHNGJDI@Cweight?$AA@
CONST	SEGMENT
??_C@_07HDHNGJDI@Cweight?$AA@ DB 'Cweight', 00H		; `string'
CONST	ENDS
;	COMDAT ??_C@_0BHM@MPDDOEC@Multiplier?5for?5subband?5weighting@
CONST	SEGMENT
??_C@_0BHM@MPDDOEC@Multiplier?5for?5subband?5weighting@ DB 'Multiplier fo'
	DB	'r subband weighting factors (see `Clev_weights'' and `Cband_w'
	DB	'eights'' below).  Scaling all the weights by a single quantit'
	DB	'y has no impact on their relative significance.  However, you'
	DB	' may supply a separate weight for each component, or even eac'
	DB	'h tile-component, allowing you to control the relative signic'
	DB	'ance of image components or tile-components in a simple manne'
	DB	'r.', 00H					; `string'
CONST	ENDS
;	COMDAT ??_C@_06EGDCPANH@Cmodes?$AA@
CONST	SEGMENT
??_C@_06EGDCPANH@Cmodes?$AA@ DB 'Cmodes', 00H		; `string'
CONST	ENDS
;	COMDAT ??_C@_0GG@LCCKLEAC@Block?5coder?5mode?5switches?4?5Any?5c@
CONST	SEGMENT
??_C@_0GG@LCCKLEAC@Block?5coder?5mode?5switches?4?5Any?5c@ DB 'Block code'
	DB	'r mode switches. Any combination is legal.', 0aH, 09H, 09H, '['
	DB	'By default, all mode switches are turned off]', 00H ; `string'
CONST	ENDS
;	COMDAT ??_C@_0DL@FGLGNEBO@?$FLBYPASS?$DN1?$HMRESET?$DN2?$HMRESTART?$DN4?$HMCAUS@
CONST	SEGMENT
??_C@_0DL@FGLGNEBO@?$FLBYPASS?$DN1?$HMRESET?$DN2?$HMRESTART?$DN4?$HMCAUS@ DB '['
	DB	'BYPASS=1|RESET=2|RESTART=4|CAUSAL=8|ERTERM=16|SEGMARK=32]', 00H ; `string'
CONST	ENDS
;	COMDAT ??_C@_04HAGFJFNL@Cblk?$AA@
CONST	SEGMENT
??_C@_04HAGFJFNL@Cblk?$AA@ DB 'Cblk', 00H		; `string'
CONST	ENDS
;	COMDAT ??_C@_0PA@DKDAIDMK@Nominal?5code?9block?5dimensions?5?$CIm@
CONST	SEGMENT
??_C@_0PA@DKDAIDMK@Nominal?5code?9block?5dimensions?5?$CIm@ DB 'Nominal c'
	DB	'ode-block dimensions (must be powers of 2, no less than 4 and'
	DB	' no greater than 1024). Actual dimensions are subject to prec'
	DB	'inct, tile and image dimensions. Vertical coordinates appear '
	DB	'first.', 0aH, 09H, 09H, '[Default block dimensions are {64,64'
	DB	'}]', 00H					; `string'
CONST	ENDS
;	COMDAT ??_C@_0BEJ@DFLAPAFH@Precinct?5dimensions?5?$CImust?5be?5pow@
CONST	SEGMENT
??_C@_0BEJ@DFLAPAFH@Precinct?5dimensions?5?$CImust?5be?5pow@ DB 'Precinct'
	DB	' dimensions (must be powers of 2). Multiple records may be su'
	DB	'pplied, in which case the first record refers to the highest '
	DB	'resolution level and subsequent records to lower resolution l'
	DB	'evels. The last specified record is used for any remaining lo'
	DB	'wer resolution levels.Inside each record, vertical coordinate'
	DB	's appear first.', 00H			; `string'
CONST	ENDS
;	COMDAT ??_C@_0HE@LHMCCMEI@Explicitly?5specify?5whether?5or?5no@
CONST	SEGMENT
??_C@_0HE@LHMCCMEI@Explicitly?5specify?5whether?5or?5no@ DB 'Explicitly s'
	DB	'pecify whether or not precinct dimensions are supplied.', 0aH
	DB	09H, 09H, '[Default is "no" unless `Cprecincts'' is used]', 00H ; `string'
CONST	ENDS
;	COMDAT ??_C@_0CNA@EFIGBGL@A?5value?5of?50?5means?5that?5the?5DWT?5@
CONST	SEGMENT
??_C@_0CNA@EFIGBGL@A?5value?5of?50?5means?5that?5the?5DWT?5@ DB 'A value '
	DB	'of 0 means that the DWT kernel is one of W5X3 or W9X7, as spe'
	DB	'cified by the `Ckernels'' attribute.  Otherwise, this attribu'
	DB	'te holds the index of the ATK marker segment which defines th'
	DB	'e transform kernel.  The index must lie in the range 2 to 255'
	DB	' and corresponding `Kreversible'', `Krev_steps'' or `Kirv_ste'
	DB	'ps'' attributes must exist, which have the same index (instan'
	DB	'ce) value.  Thus, for example, if `Catk=3'', you must also su'
	DB	'pply a value for `Kreversible:I3'' and/or `Krev_steps:I3'' or'
	DB	' `Kirv_steps:I3'', as appropriate.  This information allows t'
	DB	'he internal machinery to deduce whether the transform is reve'
	DB	'rsible or not.  The ATK information in these parameter attrib'
	DB	'utes can also be tile-specific.', 0aH, 09H, 09H, '[Default is'
	DB	' 0]', 00H					; `string'
CONST	ENDS
;	COMDAT ??_C@_0BDE@IGHHDMOK@Wavelet?5kernels?5to?5use?4?5?5The?5spe@
CONST	SEGMENT
??_C@_0BDE@IGHHDMOK@Wavelet?5kernels?5to?5use?4?5?5The?5spe@ DB 'Wavelet '
	DB	'kernels to use.  The special value, `ATK'' means that an ATK '
	DB	'(Arbitrary Transform Kernel) marker segment is used to store '
	DB	'the DWT kernel.  In this case, the `Catk'' attribute must be '
	DB	'non-zero.', 0aH, 09H, 09H, '[Default is W5X3 if `Creversible'''
	DB	' is true, W9X7 if `Creversible'' is false, and ATK if `Catk'''
	DB	' is non-zero.]', 00H			; `string'
CONST	ENDS
;	COMDAT ??_C@_0BH@OGDGPMGJ@?$CIW9X7?$DN0?0W5X3?$DN1?0ATK?$DN?91?$CJ?$AA@
CONST	SEGMENT
??_C@_0BH@OGDGPMGJ@?$CIW9X7?$DN0?0W5X3?$DN1?0ATK?$DN?91?$CJ?$AA@ DB '(W9X'
	DB	'7=0,W5X3=1,ATK=-1)', 00H			; `string'
CONST	ENDS
;	COMDAT ??_C@_0M@ODOOFFGJ@Creversible?$AA@
CONST	SEGMENT
??_C@_0M@ODOOFFGJ@Creversible?$AA@ DB 'Creversible', 00H ; `string'
CONST	ENDS
;	COMDAT ??_C@_0JI@BJEOBCA@Reversible?5compression?$DP?6?7?7?$FLDefau@
CONST	SEGMENT
??_C@_0JI@BJEOBCA@Reversible?5compression?$DP?6?7?7?$FLDefau@ DB 'Reversi'
	DB	'ble compression?', 0aH, 09H, 09H, '[Default is irreversible, '
	DB	'if `Ckernels'' and `Catk'' are not used.  Otherwise, the reve'
	DB	'rsibility is derived from those values.]', 00H ; `string'
CONST	ENDS
;	COMDAT ??_C@_0MDH@GKKAPHJL@Manages?5the?5information?5associat@
CONST	SEGMENT
??_C@_0MDH@GKKAPHJL@Manages?5the?5information?5associat@ DB 'Manages the '
	DB	'information associated with the JPEG2000 Part-2 `ADS'' and `D'
	DB	'FS'' marker segments, if any, as referenced by the `Cads'' an'
	DB	'd `Cdfs'' attributes.  If neither of these is present, the de'
	DB	'fault value of 3 is used, which yields the conventional Malla'
	DB	't decomposition structure.  Each record describes the subband'
	DB	' splitting processes for one entire DWT level, starting from '
	DB	'the first (highest frequency) level.  The textual form of eac'
	DB	'h record commences with a primary splitting code, which is on'
	DB	'e of the characters: `B'' (split both ways a la Mallat); `H'''
	DB	' (split only horizontally); `V'' (split only vertically); or '
	DB	'`-'' (do not split at all -- degenerate case).  The first opt'
	DB	'ion produces three primary detail subbands, denoted HL, LH an'
	DB	'd HH.  The second and third options produce only one primary '
	DB	'detail subband (HX or XH), while the last option produces no '
	DB	'detail subbands at all.  The primary splitting code is follow'
	DB	'ed by parentheses, containing 0, 1 or 3 colon-separated sub-s'
	DB	'trings, each of which describes the additional splitting oper'
	DB	'ations to be applied to each primary detail subband.  Each su'
	DB	'b-string consists of 1, 3 or 5 characters, drawn from `-'' (m'
	DB	'eaning no-split), `H'' (meaning a horizontal split), `V'' (me'
	DB	'aning a vertical split) and `B'' (meaning a bi-directional sp'
	DB	'lit).  If the sub-string commences with `H'' or `V'', two add'
	DB	'itional characters may be provided to describe further splitt'
	DB	'ing of the low- and high-pass subbands produced by the first '
	DB	'split.  If the sub-string commences with `B'', four additiona'
	DB	'l characters may be provided to describe further splitting of'
	DB	' the LL, HL, LH and HH subbands produced by the primary split'
	DB	'.  Alternatively, the sub-string may consist only of the init'
	DB	'ial character, in which case no further splitting is involved'
	DB	'.  Thus, "B" and "B----" are equivalent sub-strings, as are "'
	DB	'H" and "H--".', 0aH, 09H, '   If insufficient parameters are '
	DB	'supplied to accommodate the number of desired DWT levels, the'
	DB	' final value is simply replicated.  Note, however, that the l'
	DB	'ast value must conform to some specific rules, which derive f'
	DB	'rom the way in which JPEG2000 Part-2 defines extrapolation fo'
	DB	'r information found in the ADS and DFS marker segments.  In p'
	DB	'articular, the terminal parameter must have identical splitti'
	DB	'ng descriptors for all primary detail subbands (remember ther'
	DB	'e are 0, 1 or 3 of these).  Moreover, within each of these de'
	DB	'scriptors, all splitting codes (`-'', `H'', ''V'' and ''B'') '
	DB	'must be identical.  The only exception to this occurs where a'
	DB	'll primary detail subbands are split only once, in which case'
	DB	' all primary detail subbands must have identical sub-strings '
	DB	'holding one of the patterns, "B----", "H--", "V--" or "-".  T'
	DB	'hus, "B(-:-:-)", "H(BBBBB)", "B(HHH:HHH:HHH)", "V(H--)" and "'
	DB	'B(V--:V--:V--)" are all legal terminal values, while "B(B:B:-'
	DB	')" and "V(VV-)" are not legal.', 0aH, 09H, 09H, '[If `Cdecomp'
	DB	''' is not specified, a value is determined from the ADS and/o'
	DB	'r DFS information referenced by `Cads'' and `Cdfs''.  If ther'
	DB	'e is no such information, the default `Cdecomp'' value is "B('
	DB	'-,-,-)", which translates to the integer value, 3.  All Part-'
	DB	'1 codestreams must use this Mallat decomposition style.]', 00H ; `string'
CONST	ENDS
;	COMDAT ??_C@_0DIF@JIOHBMHM@Index?5of?5the?5DFS?5marker?5segment?5@
CONST	SEGMENT
??_C@_0DIF@JIOHBMHM@Index?5of?5the?5DFS?5marker?5segment?5@ DB 'Index of '
	DB	'the DFS marker segment used to hold Downsampling Factor Style'
	DB	' information.  If DFS information is involved, the value of t'
	DB	'he `Cdfs'' index must be in the range 1 to 127.  A value of 0'
	DB	' means that no DFS marker segment is referenced.  This attrib'
	DB	'ute is ignored outside of the main header (i.e., for non-nega'
	DB	'tive tile indices).  You will not normally set this parameter'
	DB	' yourself.  Rather, it is preferable to allow the internal ma'
	DB	'chinery to find a suitable index for you.  In any event, the '
	DB	'DFS instructions recorded in the `DSdfs'' attribute will be g'
	DB	'enerated automatically from information contained in `Cdecomp'
	DB	'''.  During marker segment reading, the DFS instructions will'
	DB	' be read, along with any ADS information (see `Cads'') in ord'
	DB	'er to reconstruct the `Cdecomp'' attribute.', 0aH, 09H, 09H, '['
	DB	'Best not to set this yourself.  An index is selected automati'
	DB	'cally if `Cdecomp'' defines a non-trivial decomposition.]', 00H ; `string'
CONST	ENDS
;	COMDAT ??_C@_0DCE@BCLFNHJE@Index?5of?5the?5ADS?5marker?5segment?5@
CONST	SEGMENT
??_C@_0DCE@BCLFNHJE@Index?5of?5the?5ADS?5marker?5segment?5@ DB 'Index of '
	DB	'the ADS marker segment used to hold Arbitrary Downsampling St'
	DB	'yle information.  If ADS information is involved, the value o'
	DB	'f the `Cads'' index must lie in the range 1 to 127.  A value '
	DB	'of 0 means that no ADS marker segment is referenced.  You wil'
	DB	'l not normally set this parameter yourself.  It is preferable'
	DB	' to allow the internal machinery to find a suitable index.  I'
	DB	'n any event, the ADS information recorded in the `DOads'' and'
	DB	' `DSads'' attributes will be generated automatically from inf'
	DB	'ormation contained in `Cdecomp''.  During marker segment read'
	DB	'ing, the ADS information is used together with any DFS inform'
	DB	'ation (see `Cdfs'') in order to reconstruct the `Cdecomp'' at'
	DB	'tribute.', 0aH, 09H, 09H, '[Best not to set this yourself.  A'
	DB	'n index is selected automatically if `Cdecomp'' defines a non'
	DB	'-trivial decomposition.]', 00H		; `string'
CONST	ENDS
;	COMDAT ??_C@_0FI@ILBHKDEJ@Number?5of?5wavelet?5decomposition?5@
CONST	SEGMENT
??_C@_0FI@ILBHKDEJ@Number?5of?5wavelet?5decomposition?5@ DB 'Number of wa'
	DB	'velet decomposition levels, or stages.  May not exceed 32.', 0aH
	DB	09H, 09H, '[Default is 5]', 00H		; `string'
CONST	ENDS
;	COMDAT ??_C@_0CAO@IFLBKBBI@If?5?$CCyes?$CC?0?5the?5code?9block?5partiti@
CONST	SEGMENT
??_C@_0CAO@IFLBKBBI@If?5?$CCyes?$CC?0?5the?5code?9block?5partiti@ DB 'If '
	DB	'"yes", the code-block partition is aligned so that the last s'
	DB	'ample in each nominal block (ignoring the effect of boundarie'
	DB	's) is aligned at a multiple of the block dimension (a power o'
	DB	'f 2).  Equivalently, the first sample in each nominal block l'
	DB	'ies at a location which is a multiple of the block dimension,'
	DB	' plus 1. By default (i.e., "no"), the first sample of each bl'
	DB	'ock is aligned at a multiple of the block dimension. The alig'
	DB	'nment is specified separately for both dimensions, with the v'
	DB	'ertical dimension specified first.', 00H	; `string'
CONST	ENDS
;	COMDAT ??_C@_02LBOPFCME@BB?$AA@
CONST	SEGMENT
??_C@_02LBOPFCME@BB?$AA@ DB 'BB', 00H			; `string'
CONST	ENDS
;	COMDAT ??_C@_06IKJBDDKO@Corder?$AA@
CONST	SEGMENT
??_C@_06IKJBDDKO@Corder?$AA@ DB 'Corder', 00H		; `string'
CONST	ENDS
;	COMDAT ??_C@_0BFK@PBIMDDLA@Default?5progression?5order?5?$CImay?5b@
CONST	SEGMENT
??_C@_0BFK@PBIMDDLA@Default?5progression?5order?5?$CImay?5b@ DB 'Default '
	DB	'progression order (may be overridden by Porder).  The four ch'
	DB	'aracter identifiers have the following interpretation: L=laye'
	DB	'r; R=resolution; C=component; P=position. The first character'
	DB	' in the identifier refers to the index which progresses most '
	DB	'slowly, while the last refers to the index which progresses m'
	DB	'ost quickly.', 0aH, 09H, 09H, '[Default is LRCP]', 00H ; `string'
CONST	ENDS
;	COMDAT ??_C@_0CF@FILGKLGM@?$CILRCP?$DN0?0RLCP?$DN1?0RPCL?$DN2?0PCRL?$DN3?0CPR@
CONST	SEGMENT
??_C@_0CF@FILGKLGM@?$CILRCP?$DN0?0RLCP?$DN1?0RPCL?$DN2?0PCRL?$DN3?0CPR@ DB '('
	DB	'LRCP=0,RLCP=1,RPCL=2,PCRL=3,CPRL=4)', 00H	; `string'
CONST	ENDS
;	COMDAT ??_C@_08NAIOMJOM@Cuse_eph?$AA@
CONST	SEGMENT
??_C@_08NAIOMJOM@Cuse_eph?$AA@ DB 'Cuse_eph', 00H	; `string'
CONST	ENDS
;	COMDAT ??_C@_0FG@HPJEBCAG@Include?5EPH?5markers?5?$CImarker?5end?5@
CONST	SEGMENT
??_C@_0FG@HPJEBCAG@Include?5EPH?5markers?5?$CImarker?5end?5@ DB 'Include '
	DB	'EPH markers (marker end of each packet header)?', 0aH, 09H, 09H
	DB	'[Default is no EPH markers]', 00H		; `string'
CONST	ENDS
;	COMDAT ??_C@_08DAJNLNLL@Cuse_sop?$AA@
CONST	SEGMENT
??_C@_08DAJNLNLL@Cuse_sop?$AA@ DB 'Cuse_sop', 00H	; `string'
CONST	ENDS
;	COMDAT ??_C@_0EK@NKHIFEB@Include?5SOP?5markers?5?$CIi?4e?4?0?5resyn@
CONST	SEGMENT
??_C@_0EK@NKHIFEB@Include?5SOP?5markers?5?$CIi?4e?4?0?5resyn@ DB 'Include'
	DB	' SOP markers (i.e., resync markers)?', 0aH, 09H, 09H, '[Defau'
	DB	'lt is no SOP markers]', 00H			; `string'
CONST	ENDS
;	COMDAT ??_C@_07BJCMAMHC@Clayers?$AA@
CONST	SEGMENT
??_C@_07BJCMAMHC@Clayers?$AA@ DB 'Clayers', 00H		; `string'
CONST	ENDS
;	COMDAT ??_C@_0EB@BJCCPLJM@Number?5of?5quality?5layers?4?5May?5no@
CONST	SEGMENT
??_C@_0EB@BJCCPLJM@Number?5of?5quality?5layers?4?5May?5no@ DB 'Number of '
	DB	'quality layers. May not exceed 16384.', 0aH, 09H, 09H, '[Defa'
	DB	'ult is 1]', 00H				; `string'
CONST	ENDS
;	COMDAT ??_C@_04OOAAMMCO@Cmct?$AA@
CONST	SEGMENT
??_C@_04OOAAMMCO@Cmct?$AA@ DB 'Cmct', 00H		; `string'
CONST	ENDS
;	COMDAT ??_C@_0FCM@DHPAPCJF@This?5parameter?5should?5be?50?5unles@
CONST	SEGMENT
??_C@_0FCM@DHPAPCJF@This?5parameter?5should?5be?50?5unles@ DB 'This param'
	DB	'eter should be 0 unless a Part 2 multi-component transform is'
	DB	' being used, in which case it contains one or both of the `AR'
	DB	'RAY'' and `DWT'' options -- if both options are present, they'
	DB	' are separated by a `|''.  The `ARRAY'' option will be presen'
	DB	't if and only if an array-based multi-component transform blo'
	DB	'ck is associated with the image, or the relevant tile (for ti'
	DB	'le-specific instances of the attribute).  The `DWT'' option w'
	DB	'ill be present if and only if a DWT-based multi-component tra'
	DB	'nsform block is associated with the image, or the relevant ti'
	DB	'le (for tile-specific instances of the COD marker segment).  '
	DB	'Both flags will be present if both types of multi-component t'
	DB	'ransform block are employed for the image or tile, as appropr'
	DB	'iate.  During codestream generation, the information in this '
	DB	'parameter is generated automatically to conform with the info'
	DB	'rmation provided via the `Mstages'' and `Mstage_xforms'' attr'
	DB	'ibutes.  When reading an existing codestream, the information'
	DB	' in this parameter should either be correct or 0.  In the lat'
	DB	'ter case, the internal machinery interprets the codestream as'
	DB	' one generated by versions of Kakadu prior to v6.0, wherein t'
	DB	'he transform coefficients for reversible matrix-based transfo'
	DB	'rms were accidentally transposed -- the transposition error i'
	DB	's corrected automatically in this case.', 00H ; `string'
CONST	ENDS
;	COMDAT ??_C@_0BA@NBBPEJNG@?$FLARRAY?$DN2?$HMDWT?$DN4?$FN?$AA@
CONST	SEGMENT
??_C@_0BA@NBBPEJNG@?$FLARRAY?$DN2?$HMDWT?$DN4?$FN?$AA@ DB '[ARRAY=2|DWT=4'
	DB	']', 00H					; `string'
CONST	ENDS
;	COMDAT ??_C@_04DEPIIIHA@Cycc?$AA@
CONST	SEGMENT
??_C@_04DEPIIIHA@Cycc?$AA@ DB 'Cycc', 00H		; `string'
CONST	ENDS
;	COMDAT ??_C@_0KP@IBLLLJAN@RGB?5to?5Luminance?9Chrominance?5con@
CONST	SEGMENT
??_C@_0KP@IBLLLJAN@RGB?5to?5Luminance?9Chrominance?5con@ DB 'RGB to Lumin'
	DB	'ance-Chrominance conversion?', 0aH, 09H, 09H, '[Default is to'
	DB	' convert images with 3 or more components, unless a Part 2 mu'
	DB	'lti-component transform is defined -- `Mcomponents'' > 0]', 00H ; `string'
CONST	ENDS
;	COMDAT ??_C@_03ELMDPBLM@QCD?$AA@
CONST	SEGMENT
??_C@_03ELMDPBLM@QCD?$AA@ DB 'QCD', 00H			; `string'
CONST	ENDS
;	COMDAT ??_C@_0JA@OGLNENPI@Cannot?5write?5ATK?5?$CIarbitrary?5tran@
CONST	SEGMENT
??_C@_0JA@OGLNENPI@Cannot?5write?5ATK?5?$CIarbitrary?5tran@ DB 'Cannot wr'
	DB	'ite ATK (arbitrary transform kernel) marker segment with a sy'
	DB	'mmetric wavelet kernel whose Ls value (see `Ksteps'') is grea'
	DB	'ter than 510.', 00H				; `string'
CONST	ENDS
;	COMDAT ??_C@_0JK@FJJJODFB@Cannot?5write?5ATK?5?$CIarbitrary?5tran@
CONST	SEGMENT
??_C@_0JK@FJJJODFB@Cannot?5write?5ATK?5?$CIarbitrary?5tran@ DB 'Cannot wr'
	DB	'ite ATK (arbitrary transform kernel) marker segment with a no'
	DB	'n-symmetric wavelet kernel whose Ns or Ls value (see `Ksteps'''
	DB	') is greater than 255.', 00H		; `string'
CONST	ENDS
;	COMDAT ??_C@_0DI@KAHDNOFP@lifting?5steps?4?5?5Maximum?5number?5o@
CONST	SEGMENT
??_C@_0DI@KAHDNOFP@lifting?5steps?4?5?5Maximum?5number?5o@ DB 'lifting st'
	DB	'eps.  Maximum number of lifting steps is 255.', 00H ; `string'
CONST	ENDS
;	COMDAT ??_C@_0EC@DFOKDDOA@Cannot?5write?5ATK?5?$CIarbitrary?5tran@
CONST	SEGMENT
??_C@_0EC@DFOKDDOA@Cannot?5write?5ATK?5?$CIarbitrary?5tran@ DB 'Cannot wr'
	DB	'ite ATK (arbitrary transform kernel) marker segment with', 00H ; `string'
CONST	ENDS
;	COMDAT ??_C@_0DL@COILGNIP@Unable?5to?5write?5ATK?5marker?5segme@
CONST	SEGMENT
??_C@_0DL@COILGNIP@Unable?5to?5write?5ATK?5marker?5segme@ DB 'Unable to w'
	DB	'rite ATK marker segment yet! Some info missing.', 00H ; `string'
CONST	ENDS
;	COMDAT ??_C@_0DF@MILOCDIO@Malformed?5ATK?5marker?5segment?5enc@
CONST	SEGMENT
??_C@_0DF@MILOCDIO@Malformed?5ATK?5marker?5segment?5enc@ DB 'Malformed AT'
	DB	'K marker segment encountered. The final ', 00H ; `string'
CONST	ENDS
;	COMDAT ??_C@_0EI@CBNJBHNF@Malformed?5ATK?5marker?5segment?5enc@
CONST	SEGMENT
??_C@_0EI@CBNJBHNF@Malformed?5ATK?5marker?5segment?5enc@ DB 'Malformed AT'
	DB	'K marker segment encountered.  Marker segment is too small.', 00H ; `string'
CONST	ENDS
;	COMDAT ??_C@_0HD@HJBDDKNG@Cannot?5process?5ATK?5marker?5segmen@
CONST	SEGMENT
??_C@_0HD@HJBDDKNG@Cannot?5process?5ATK?5marker?5segmen@ DB 'Cannot proce'
	DB	'ss ATK marker segment describing a reversible transform kerne'
	DB	'l with floating-point coefficient values.', 00H ; `string'
CONST	ENDS
;	COMDAT ??_C@_0JJ@EJINJNCB@Malformed?5ATK?5marker?5segment?5enc@
CONST	SEGMENT
??_C@_0JJ@EJINJNCB@Malformed?5ATK?5marker?5segment?5enc@ DB 'Malformed AT'
	DB	'K marker segment encountered.  Transform kernels identified a'
	DB	's whole-sample symmetric must also use the symmetric boundary'
	DB	' extension method.', 00H			; `string'
CONST	ENDS
;	COMDAT ??_C@_0GL@MACCMDJG@Cannot?5process?5ATK?5marker?5segmen@
CONST	SEGMENT
??_C@_0GL@MACCMDJG@Cannot?5process?5ATK?5marker?5segmen@ DB 'Cannot proce'
	DB	'ss ATK marker segment which uses more than 8 bytes to represe'
	DB	'nt each lifting step coefficient.', 00H	; `string'
CONST	ENDS
;	COMDAT ??_C@_0OH@MFIHEDLO@Invalid?5?$GAKsymmetric?8?5value?5found@
CONST	SEGMENT
??_C@_0OH@MFIHEDLO@Invalid?5?$GAKsymmetric?8?5value?5found@ DB 'Invalid `'
	DB	'Ksymmetric'' value found while in `atk_params::finalize''.  T'
	DB	'he lifting step alignment and coefficients are not compatible'
	DB	' with the whole-sample symmetric class of wavelet kernels def'
	DB	'ined by Part-2 of the JPEG2000 standard.', 00H ; `string'
CONST	ENDS
;	COMDAT ??_C@_0HP@IHFGAOCO@Reversible?5lifting?5steps?5defined@
CONST	SEGMENT
??_C@_0HP@IHFGAOCO@Reversible?5lifting?5steps?5defined@ DB 'Reversible li'
	DB	'fting steps defined by `Ksteps'' and `Kcoeffs'' produce a low'
	DB	'-pass analysis filter whose DC gain is not equal to 1.', 00H ; `string'
CONST	ENDS
;	COMDAT ??_C@_0LH@KFFJGFML@Too?5many?5?$GAKcoeffs?8?5records?5found@
CONST	SEGMENT
??_C@_0LH@KFFJGFML@Too?5many?5?$GAKcoeffs?8?5records?5found@ DB 'Too many'
	DB	' `Kcoeffs'' records found while in `atk_params::finalize''.  '
	DB	'The number of coefficients must be equal to the sum of the li'
	DB	'fting step lengths recorded in the `Ksteps'' attribute.', 00H ; `string'
CONST	ENDS
;	COMDAT ??_C@_0LL@ICCFCJEB@Insufficient?5?$GAKcoeffs?8?5records?5f@
CONST	SEGMENT
??_C@_0LL@ICCFCJEB@Insufficient?5?$GAKcoeffs?8?5records?5f@ DB 'Insuffici'
	DB	'ent `Kcoeffs'' records found while in `atk_params::finalize'''
	DB	'.  The number of coefficients must be equal to the sum of the'
	DB	' lifting step lengths recorded in the `Ksteps'' attribute.', 00H ; `string'
CONST	ENDS
;	COMDAT ??_C@_0IK@EBAJKINC@For?5irreversible?5transforms?5?$CI?$GAKr@
CONST	SEGMENT
??_C@_0IK@EBAJKINC@For?5irreversible?5transforms?5?$CI?$GAKr@ DB 'For irr'
	DB	'eversible transforms (`Kreversible'' = false), the third and '
	DB	'fourth fields in each record of the `Ksteps'' attribute must '
	DB	'both be 0.', 00H				; `string'
CONST	ENDS
;	COMDAT ??_C@_0IB@GILFGDAI@Invalid?5downshifting?5value?5?$CI3?8rd@
CONST	SEGMENT
??_C@_0IB@GILFGDAI@Invalid?5downshifting?5value?5?$CI3?8rd@ DB 'Invalid d'
	DB	'ownshifting value (3''rd field) found while checking supplied'
	DB	' `Ksteps'' attributes.  Values must be in the range 0 to 24.', 00H ; `string'
CONST	ENDS
;	COMDAT ??_C@_0GB@HNGPDMEK@Incomplete?5?$GAKsteps?8?5record?5?$CIneed@
CONST	SEGMENT
??_C@_0GB@HNGPDMEK@Incomplete?5?$GAKsteps?8?5record?5?$CIneed@ DB 'Incomp'
	DB	'lete `Ksteps'' record (need 4 fields in each record) found wh'
	DB	'ile in `atk_params::finalize''.', 00H	; `string'
CONST	ENDS
;	COMDAT ??_C@_0IK@HMACHLFE@You?5cannot?5provide?5custom?5transf@
CONST	SEGMENT
??_C@_0IK@HMACHLFE@You?5cannot?5provide?5custom?5transf@ DB 'You cannot p'
	DB	'rovide custom transform kernel data via `Ksteps'' or `Kcoeffs'
	DB	''' without also providing a value for the `Kreversible'' attr'
	DB	'ibute.', 00H				; `string'
CONST	ENDS
;	COMDAT ??_C@_0BIA@GBIBAJFK@Cannot?5transpose?5ATK?5marker?5segm@
CONST	SEGMENT
??_C@_0BIA@GBIBAJFK@Cannot?5transpose?5ATK?5marker?5segm@ DB 'Cannot tran'
	DB	'spose ATK marker segment information to a new codestream whic'
	DB	'h has flippped geometry unless the transform filters are whol'
	DB	'e-sample symmetric, or flipping is to be applied in both the '
	DB	'vertical and horizontal directions.  The reason for this is t'
	DB	'hat the same transform kernels must be used in both direction'
	DB	's, only one of which requires reversal of the lifting coeffic'
	DB	'ients.', 00H				; `string'
CONST	ENDS
;	COMDAT ??_C@_0CIE@OIBNHEMA@Holds?5the?5lifting?5coefficients?0?5@
CONST	SEGMENT
??_C@_0CIE@OIBNHEMA@Holds?5the?5lifting?5coefficients?0?5@ DB 'Holds the '
	DB	'lifting coefficients, Cs[n].  The first L0 records describe t'
	DB	'he coefficients of the first lifting step.  These are followe'
	DB	'd by the L1 coefficients of the second lifting step, and so f'
	DB	'orth.  The Ls values are identified by the first field in eac'
	DB	'h `Ksteps'' record.  Lifting step s may be described by X_s[2'
	DB	'k+1-p] += TRUNC(sum_{Ns<=n<Ns+Ls} Cs[n]*X_{s-1}[2k+p+2n]).  I'
	DB	'n the case of an irreversible transform, the TRUNC operator d'
	DB	'oes nothing and all arithmetic is performed (at least notiona'
	DB	'lly) in floating point.  For reversible transforms, TRUNC(a) '
	DB	'= floor(a + Rs*2^{-Ds}) and Cs[n] is guaranteed to be an inte'
	DB	'ger multiple of 2^{-Ds}.', 00H		; `string'
CONST	ENDS
;	COMDAT ??_C@_0DMN@NFEELAKF@Array?5with?5one?5entry?5for?5each?5li@
CONST	SEGMENT
??_C@_0DMN@NFEELAKF@Array?5with?5one?5entry?5for?5each?5li@ DB 'Array wit'
	DB	'h one entry for each lifting step.  The first entry corrspond'
	DB	's to lifting step s=0, which updates odd indexed samples, bas'
	DB	'ed on even indexed samples; the second entry corresponds to l'
	DB	'ifting step s=1, which updates even indexed samples, based on'
	DB	' odd indexed samples; and so forth.  The first field in each '
	DB	'record holds the length, Ls, of the coefficient array Cs[n], '
	DB	'for the relevant step s.  The second field is the location of'
	DB	' the first entry, Ns, where Cs[n] is defined for n=Ns to Ns+L'
	DB	's-1.  The value of Ns is typically negative, but need not be.'
	DB	'  For symmetric kernels, Ls must be even and Ns must satisfy '
	DB	'Ns=-floor((Ls+p-1)/2), where p is the lifting step parity (0 '
	DB	'if s is even, 1 if s is odd).  The third and fourth fields mu'
	DB	'st both be 0 if `Kreversible'' is false.  For reversible tran'
	DB	'sform kernels, however, the third field holds the downshift v'
	DB	'alue, Ds, while the fourth field holds the rounding offset, R'
	DB	's, to be added immediately prior to downshifting.', 00H ; `string'
CONST	ENDS
;	COMDAT ??_C@_04NENCGHGO@IIII?$AA@
CONST	SEGMENT
??_C@_04NENCGHGO@IIII?$AA@ DB 'IIII', 00H		; `string'
CONST	ENDS
;	COMDAT ??_C@_0L@JOGHAEOB@Kextension?$AA@
CONST	SEGMENT
??_C@_0L@JOGHAEOB@Kextension?$AA@ DB 'Kextension', 00H	; `string'
CONST	ENDS
;	COMDAT ??_C@_0CNF@DACPPFDL@Identifies?5the?5boundary?5extensio@
CONST	SEGMENT
??_C@_0CNF@DACPPFDL@Identifies?5the?5boundary?5extensio@ DB 'Identifies t'
	DB	'he boundary extension method to be applied in each lifting st'
	DB	'ep.  If `CON'', boundary samples are simply replicated.  The '
	DB	'other possible value, `SYM'', means that boundary samples are'
	DB	' symmetrically extended.  The centre of symmetry in this case'
	DB	' is the boundary sample location within an interleaved repres'
	DB	'entation in which low-pass samples occupy the even indexed lo'
	DB	'cations and high-pass samples occupy the odd indexed location'
	DB	's.  The `SYM'' method must be used if `Ksymmetric'' is true. '
	DB	' Conversely, for filters which do not have the whole-sample s'
	DB	'ymmetric property, you are strongly recommended to use the `C'
	DB	'ON'' extension method.', 0aH, 09H, 09H, '[Defaults to `SYM'' '
	DB	'if the filters are whole-sample symmetric and `CON'' otherwis'
	DB	'e.]', 00H					; `string'
CONST	ENDS
;	COMDAT ??_C@_0O@PBGDLPEF@?$CICON?$DN0?0SYM?$DN1?$CJ?$AA@
CONST	SEGMENT
??_C@_0O@PBGDLPEF@?$CICON?$DN0?0SYM?$DN1?$CJ?$AA@ DB '(CON=0,SYM=1)', 00H ; `string'
CONST	ENDS
;	COMDAT ??_C@_0COP@MOCEJKKL@If?5true?0?5the?5transform?5kernel?5be@
CONST	SEGMENT
??_C@_0COP@MOCEJKKL@If?5true?0?5the?5transform?5kernel?5be@ DB 'If true, '
	DB	'the transform kernel belongs to the whole-sample symmetric cl'
	DB	'ass, which is treated specially by JPEG2000 Part-2.  The tran'
	DB	'slated impulse responses of these kernels are all symmetric a'
	DB	'bout 0 -- see the Taubman & Marcellin book, Chapter 6, for a '
	DB	'definition of translated impulse responses.  Equivalently, al'
	DB	'l lifting steps involve even-length symmetric lifting coeffic'
	DB	'ients, Cs[n], where the coefficients associated with steps s='
	DB	'0, 2, 4, ... are symmetric about n = 1/2 and the coefficients'
	DB	' associated with steps s=1, 3, 5, ... are symmetric about n ='
	DB	' -1/2.', 0aH, 09H, 09H, '[If you do not explicitly specify th'
	DB	'is attribute, it will be determined automatically from the li'
	DB	'fting coefficient values supplied via `Krev_coeffs'' or `Kirv'
	DB	'_coeffs'', as appropriate.]', 00H		; `string'
CONST	ENDS
;	COMDAT ??_C@_0M@OFOCCDJH@Kreversible?$AA@
CONST	SEGMENT
??_C@_0M@OFOCCDJH@Kreversible?$AA@ DB 'Kreversible', 00H ; `string'
CONST	ENDS
;	COMDAT ??_C@_0CGL@OFBGPMKE@This?5attribute?5determines?5how?5th@
CONST	SEGMENT
??_C@_0CGL@OFBGPMKE@This?5attribute?5determines?5how?5th@ DB 'This attrib'
	DB	'ute determines how the `Ksteps'' and `Kcoeffs'' attributes sh'
	DB	'ould be treated.  In the end, this parameter attribute must a'
	DB	'gree with the value of the `Creversible'' attribute, for any '
	DB	'tile-component which uses this transformation kernel.  Howeve'
	DB	'r this consistency may be created by specifying `Kreversible'''
	DB	' and leaving `Creversible'' unspecified, so that an appropria'
	DB	'te default value will be selected.', 0aH, 09H, 09H, '[A defau'
	DB	'lt value cannot be created automatically, so you must explici'
	DB	'tly specify a value if you want ATK information to become ava'
	DB	'ilable for any particular instance index in the main header o'
	DB	'r a tile header.]', 00H			; `string'
CONST	ENDS
;	COMDAT ??_C@_0EP@OLCFAFPF@Cannot?5write?5MCO?5marker?5segment?$DL@
CONST	SEGMENT
??_C@_0EP@OLCFAFPF@Cannot?5write?5MCO?5marker?5segment?$DL@ DB 'Cannot wr'
	DB	'ite MCO marker segment; `Mnum_stages'' value exceeds the limi'
	DB	't of 255.', 00H				; `string'
CONST	ENDS
;	COMDAT ??_C@_0EH@FMIBNLCC@Malformed?5MCO?5marker?5segment?5enc@
CONST	SEGMENT
??_C@_0EH@FMIBNLCC@Malformed?5MCO?5marker?5segment?5enc@ DB 'Malformed MC'
	DB	'O marker segment encountered. Marker segment is too small.', 00H ; `string'
CONST	ENDS
;	COMDAT ??_C@_0DF@IOEIPGFI@Malformed?5MCO?5marker?5segment?5enc@
CONST	SEGMENT
??_C@_0DF@IOEIPGFI@Malformed?5MCO?5marker?5segment?5enc@ DB 'Malformed MC'
	DB	'O marker segment encountered. The final ', 00H ; `string'
CONST	ENDS
;	COMDAT ??_C@_0GN@BOBKGGGG@The?5number?5of?5records?5supplied?5f@
CONST	SEGMENT
??_C@_0GN@BOBKGGGG@The?5number?5of?5records?5supplied?5f@ DB 'The number '
	DB	'of records supplied for the `Mstages'' attribute must match t'
	DB	'he value identified by `Mnum_stages''.', 00H ; `string'
CONST	ENDS
;	COMDAT ??_C@_0JP@JHGJOPNH@You?5may?5not?5provide?5a?5value?5for?5@
CONST	SEGMENT
??_C@_0JP@JHGJOPNH@You?5may?5not?5provide?5a?5value?5for?5@ DB 'You may n'
	DB	'ot provide a value for the `Mnum_stages'' attribute without a'
	DB	'lso supplying a non-zero number of MCT output components via '
	DB	'the `Mcomponents'' attribute.', 00H		; `string'
CONST	ENDS
;	COMDAT ??_C@_0BCA@FMBIIPEN@Unable?5to?5modify?5the?5existing?5mu@
CONST	SEGMENT
??_C@_0BCA@FMBIIPEN@Unable?5to?5modify?5the?5existing?5mu@ DB 'Unable to '
	DB	'modify the existing multi-component transform to work with a '
	DB	'reduced number of codestream image components during transcod'
	DB	'ing.  Cannot create a taylored null transform to interface th'
	DB	'e components, since all allowed MCC marker segment instance i'
	DB	'ndices have been used up already.', 00H	; `string'
CONST	ENDS
;	COMDAT ??_C@_07CNNLMAHC@Mstages?$AA@
CONST	SEGMENT
??_C@_07CNNLMAHC@Mstages?$AA@ DB 'Mstages', 00H		; `string'
CONST	ENDS
;	COMDAT ??_C@_0BKE@DNMMMJKF@Provides?5?$GAMnum_stages?8?5records?0?5@
CONST	SEGMENT
??_C@_0BKE@DNMMMJKF@Provides?5?$GAMnum_stages?8?5records?0?5@ DB 'Provide'
	DB	's `Mnum_stages'' records, each of which holds the instance in'
	DB	'dex (in the range 0 to 255) associated with the `Mstage_input'
	DB	's'', `Mstage_outputs'', `Mstage_blocks'' and `Mstage_xforms'''
	DB	' attributes which describe the corresponding stage in the inv'
	DB	'erse multi-component transform procedure.  The last stage is '
	DB	'the one which produces the final decompressed components desc'
	DB	'ribed by `Mcomponents'', `Msigned'' and `Mprecision''.', 00H ; `string'
CONST	ENDS
;	COMDAT ??_C@_0M@BMJAMMCN@Mnum_stages?$AA@
CONST	SEGMENT
??_C@_0M@BMJAMMCN@Mnum_stages?$AA@ DB 'Mnum_stages', 00H ; `string'
CONST	ENDS
;	COMDAT ??_C@_0FCK@KEJNIDFA@Identifies?5the?5number?5of?5stages?5@
CONST	SEGMENT
??_C@_0FCK@KEJNIDFA@Identifies?5the?5number?5of?5stages?5@ DB 'Identifies'
	DB	' the number of stages in the multi-component transform to be '
	DB	'applied to this tile, or (for main header attributes) as a de'
	DB	'fault for tiles which do not specify the `Mnum_stages'' attri'
	DB	'bute.  If this value is 0, the spatially transformed codestre'
	DB	'am components associated with the relevant tile are mapped di'
	DB	'rectly to the output components specified via the global `Mco'
	DB	'mponents'', `Msigned'' and `Mprecision'' attributes.  If `Mco'
	DB	'mponents'' is larger than `Scomponents'', some final componen'
	DB	'ts are automatically set to 0.  Where the number of stages is'
	DB	' 0, codestream components which are identified as unsigned by'
	DB	' the `Ssigned'' attribute are first offset (at least nominall'
	DB	'y) by half their dynamic range, in the usual fashion.  If, on'
	DB	' the other hand, `Mnum_stages'' specifies a non-zero number o'
	DB	'f transform stages, component offsets must be provided by the'
	DB	' multi-component transform stages themselves.', 0aH, 09H, 09H
	DB	'   It is worth noting that the above description applies to i'
	DB	'nverse transformation (synthesis) during decompression.  For '
	DB	'a discussion of the conditions under which an appropriate for'
	DB	'ward transform can be performed during compression, see the d'
	DB	'escription of the `Mcomponents'' attribute.', 0aH, 09H, 09H, '['
	DB	'This attribute defaults to 0 if a non-zero `Mcomponents'' val'
	DB	'ue exists, indicating the presence of a multi-component trans'
	DB	'form.]', 00H				; `string'
CONST	ENDS
;	COMDAT ??_C@_03LCPIMAFA@MCO?$AA@
CONST	SEGMENT
??_C@_03LCPIMAFA@MCO?$AA@ DB 'MCO', 00H			; `string'
CONST	ENDS
;	COMDAT ??_C@_0DJM@PGFFJOFI@You?5can?5no?5longer?5generate?5a?5cod@
CONST	SEGMENT
??_C@_0DJM@PGFFJOFI@You?5can?5no?5longer?5generate?5a?5cod@ DB 'You can n'
	DB	'o longer generate a codestream which uses the `MAT'' (`Mxform'
	DB	'_MAT'' in source code) option for the `Mstage_xforms'' parame'
	DB	'ter attribute.  From Kakadu v6.0, matrix-based multi-componen'
	DB	't transform blocks should use the `MATRIX'' (`Mxform_MATRIX'''
	DB	' in source code) identifier.  This change is designed to forc'
	DB	'e awareness of the fact that the organization of matrix coeff'
	DB	'icients for reversible matrix decorrelation transforms has be'
	DB	'en altered, in order to comply with IS15444-2.  In particular'
	DB	', versions prior to v6.0 considered the coefficients for reve'
	DB	'rsible (SERM) matrix transforms to have a transposed order, r'
	DB	'elative to that specified in the standard.  If you are trying'
	DB	' to generate a codestream which employs only irreversible mat'
	DB	'rix transforms, you have simply to substitute `MATRIX'' for `'
	DB	'MAT''.  If you are working with reversible matrix multi-compo'
	DB	'nent transforms, you should first transpose the coefficient m'
	DB	'atrix.', 00H				; `string'
CONST	ENDS
;	COMDAT ??_C@_0BIP@MNLLGAPJ@Unable?5to?5write?5MCC?5?$CIMulti?9compo@
CONST	SEGMENT
??_C@_0BIP@MNLLGAPJ@Unable?5to?5write?5MCC?5?$CIMulti?9compo@ DB 'Unable '
	DB	'to write MCC (Multi-component transform Component Collection)'
	DB	' marker segment, since the amount of information is too large'
	DB	' to fit within a single marker segment.  The codestream synta'
	DB	'x for this Part-2 marker segment allows the information to be'
	DB	' split across multiple marker segments, but this feature is n'
	DB	'ot yet implemented in Kakadu -- it is a rare application inde'
	DB	'ed that should need this.', 00H		; `string'
CONST	ENDS
;	COMDAT ??_C@_0DF@LFIMCEFC@Malformed?5MCC?5marker?5segment?5enc@
CONST	SEGMENT
??_C@_0DF@LFIMCEFC@Malformed?5MCC?5marker?5segment?5enc@ DB 'Malformed MC'
	DB	'C marker segment encountered. The final ', 00H ; `string'
CONST	ENDS
;	COMDAT ??_C@_0EI@NPIHMIKE@Malformed?5MCC?5marker?5segment?5enc@
CONST	SEGMENT
??_C@_0EI@NPIHMIKE@Malformed?5MCC?5marker?5segment?5enc@ DB 'Malformed MC'
	DB	'C marker segment encountered.  Marker segment is too small.', 00H ; `string'
CONST	ENDS
;	COMDAT ??_C@_0HM@HFEFAMNA@Malformed?5MCC?5marker?5segment?5enc@
CONST	SEGMENT
??_C@_0HM@HFEFAMNA@Malformed?5MCC?5marker?5segment?5enc@ DB 'Malformed MC'
	DB	'C marker segment encountered.  Invalid component collection d'
	DB	'imensions, transform type or number of DWT levels.', 00H ; `string'
CONST	ENDS
;	COMDAT ??_C@_0BEB@BKBLPOMO@Encountered?5MCC?5?$CIMulti?9component@
CONST	SEGMENT
??_C@_0BEB@BKBLPOMO@Encountered?5MCC?5?$CIMulti?9component@ DB 'Encounter'
	DB	'ed MCC (Multi-component transform Component Collection) infor'
	DB	'mation which has been split across multiple marker segments. '
	DB	' While this is not illegal, Kakadu does not currently support'
	DB	' such massive multi-component transform descriptions.  It is '
	DB	'a rare application indeed that would need multiple marker seg'
	DB	'ments.', 00H				; `string'
CONST	ENDS
;	COMDAT ??_C@_0LD@CNACCFCO@Malformed?5?$GAMstage_xforms?8?5attrib@
CONST	SEGMENT
??_C@_0LD@CNACCFCO@Malformed?5?$GAMstage_xforms?8?5attrib@ DB 'Malformed '
	DB	'`Mstage_xforms'' attribute encountered in `mcc_params::finali'
	DB	'ze''.  The number of records in this attribute must be identi'
	DB	'cal to the number of records in `Mstage_blocks''.', 00H ; `string'
CONST	ENDS
;	COMDAT ??_C@_0NL@PJCAENA@Malformed?5?$GAMstage_xforms?8?5attrib@
CONST	SEGMENT
??_C@_0NL@PJCAENA@Malformed?5?$GAMstage_xforms?8?5attrib@ DB 'Malformed `'
	DB	'Mstage_xforms'' attribute encountered in `mcc_params::finaliz'
	DB	'e''.  The fourth field in a DEP or MATRIX record must hold on'
	DB	'e of the values 0 (irreversible) or 1 (reversible), with the '
	DB	'fifth field equal to zero.', 00H		; `string'
CONST	ENDS
;	COMDAT ??_C@_0KH@KFJPFAEH@Malformed?5?$GAMstage_xforms?8?5attrib@
CONST	SEGMENT
??_C@_0KH@KFJPFAEH@Malformed?5?$GAMstage_xforms?8?5attrib@ DB 'Malformed '
	DB	'`Mstage_xforms'' attribute encountered in `mcc_params::finali'
	DB	'ze''.  The fourth field in a DWT record must contain a number'
	DB	' of DWT levels in the range 0 to 32.', 00H	; `string'
CONST	ENDS
;	COMDAT ??_C@_0KK@DLAOAECJ@Malformed?5?$GAMstage_xforms?8?5attrib@
CONST	SEGMENT
??_C@_0KK@DLAOAECJ@Malformed?5?$GAMstage_xforms?8?5attrib@ DB 'Malformed '
	DB	'`Mstage_xforms'' attribute encountered in `mcc_params::finali'
	DB	'ze''.  Each record must have 5 fields, the second and third o'
	DB	'f which must lie in the range 0 to 255.', 00H ; `string'
CONST	ENDS
;	COMDAT ??_C@_0BBC@MHOANFBM@Malformed?5?$GAMstage_blocks?8?5attrib@
CONST	SEGMENT
??_C@_0BBC@MHOANFBM@Malformed?5?$GAMstage_blocks?8?5attrib@ DB 'Malformed'
	DB	' `Mstage_blocks'' attribute encountered in `mcc_params::final'
	DB	'ize''.  The transform blocks must together consume all input '
	DB	'components defined by `Mstage_inputs'' (no more and no less) '
	DB	'and produce all output components defined by `Mstage_outputs'''
	DB	' (no more and no less).', 00H		; `string'
CONST	ENDS
;	COMDAT ??_C@_0KN@DKKKLGFN@Malformed?5?$GAMstage_blocks?8?5attrib@
CONST	SEGMENT
??_C@_0KN@DKKKLGFN@Malformed?5?$GAMstage_blocks?8?5attrib@ DB 'Malformed '
	DB	'`Mstage_blocks'' attribute encountered in `mcc_params::finali'
	DB	'ze''.  Each transform block must be assigned a strictly posit'
	DB	'ive number of input and output components.', 00H ; `string'
CONST	ENDS
;	COMDAT ??_C@_0NA@EPMHNEKF@Illegal?5parameters?5supplied?5for?5@
CONST	SEGMENT
??_C@_0NA@EPMHNEKF@Illegal?5parameters?5supplied?5for?5@ DB 'Illegal para'
	DB	'meters supplied for `Mstage_outputs'' attribute.  Component i'
	DB	'ndex ranges must have lower bounds which do not exceed their '
	DB	'corresponding upper bounds, both of which must be in the rang'
	DB	'e 0 to 16383.', 00H				; `string'
CONST	ENDS
;	COMDAT ??_C@_0MP@KPAJGLC@Illegal?5parameters?5supplied?5for?5@
CONST	SEGMENT
??_C@_0MP@KPAJGLC@Illegal?5parameters?5supplied?5for?5@ DB 'Illegal param'
	DB	'eters supplied for `Mstage_inputs'' attribute.  Component ind'
	DB	'ex ranges must have lower bounds which do not exceed their co'
	DB	'rresponding upper bounds, both of which must be in the range '
	DB	'0 to 16383.', 00H				; `string'
CONST	ENDS
;	COMDAT ??_C@_0O@FPIFFAOF@Mstage_xforms?$AA@
CONST	SEGMENT
??_C@_0O@FPIFFAOF@Mstage_xforms?$AA@ DB 'Mstage_xforms', 00H ; `string'
CONST	ENDS
;	COMDAT ??_C@_0IIP@CHGEJKJG@This?5attribute?5provides?5one?5reco@
CONST	SEGMENT
??_C@_0IIP@CHGEJKJG@This?5attribute?5provides?5one?5reco@ DB 'This attrib'
	DB	'ute provides one record for each transform block, which descr'
	DB	'ibes the type of transform to be implemented in that block an'
	DB	'd the parameters of the transform.  The first field identifie'
	DB	's the transform as one of "dependency transform" (`DEP''), "d'
	DB	'ecorrelation matrix transform" (`MATRIX''), or "discrete wave'
	DB	'let transform" (`DWT'').  Do not use the `MAT'' option; that '
	DB	'option is provided to catch backward compatibility problems w'
	DB	'ith Kakadu versions prior to v6.0, in which reversible decorr'
	DB	'elation matrix transforms used a non-compliant organization f'
	DB	'or the coefficient values.  Kakadu will refuse to generate co'
	DB	'destreams which use the `MAT'' option, although it should be '
	DB	'able to correctly recover and render codestreams generated wi'
	DB	'th this option prior to v6.0.  It does this by recognizing th'
	DB	'e absence of the `Cmct'' parameter attribute (another oversig'
	DB	'ht prior to v6.0) as an indication that the non-compliant org'
	DB	'anization is being used.', 0aH, 09H, 09H, '   The 2''nd field'
	DB	' of each record holds the instance index of the `Mtriang_coef'
	DB	'fs'' (for dependency transforms) or `Mmatrix_coeffs'' (for de'
	DB	'correlation matrix transforms) attributes, which provide the '
	DB	'actual transform coefficients, unless the transform is a DWT;'
	DB	' in this last case the 2''nd field holds 0 for the 9/7 DWT, 1'
	DB	' for the 5/3 DWT, or the instance index (in the range 2 to 25'
	DB	'5) of an `ATK'' marker segment whose `Kreversible'', `Ksymmet'
	DB	'ric'', `Kextension'', `Ksteps'' and `Kcoeffs'' attributes des'
	DB	'cribe the DWT kernel.', 0aH, 09H, 09H, '   The 3''rd field of'
	DB	' each record holds the instance index of the `Mvector_coeffs'''
	DB	' attribute which describes any offsets to be applied after in'
	DB	'verse transformation of the input components to the block.  A'
	DB	' value of 0 for this field means that there is no offset; oth'
	DB	'erwise, the value must be in the range 1 to 255.', 0aH, 09H, 09H
	DB	'   For DWT transforms, the 4''th field in the record identifi'
	DB	'es the number of DWT levels to be used, in the range 0 to 32,'
	DB	' while the final field holds the transform origin, which play'
	DB	's the same role as `Sorigin'', but along the component axis. '
	DB	' For dependency and decorrelation transforms, the 4''th field'
	DB	' must hold 0 if the transform is irreversible, or 1 if it is '
	DB	'reversible, while the 5''th field must hold 0.', 00H ; `string'
CONST	ENDS
;	COMDAT ??_C@_0CE@JIOANCKI@?$CIDEP?$DN0?0MATRIX?$DN9?0DWT?$DN3?0MAT?$DN1000?$CJI@
CONST	SEGMENT
??_C@_0CE@JIOANCKI@?$CIDEP?$DN0?0MATRIX?$DN9?0DWT?$DN3?0MAT?$DN1000?$CJI@ DB '('
	DB	'DEP=0,MATRIX=9,DWT=3,MAT=1000)IIII', 00H	; `string'
CONST	ENDS
;	COMDAT ??_C@_0BD@ONKCHMLA@Mstage_collections?$AA@
CONST	SEGMENT
??_C@_0BD@ONKCHMLA@Mstage_collections?$AA@ DB 'Mstage_collections', 00H ; `string'
CONST	ENDS
;	COMDAT ??_C@_0CLK@PPHGAGLD@This?5attribute?5provides?5the?5valu@
CONST	SEGMENT
??_C@_0CLK@PPHGAGLD@This?5attribute?5provides?5the?5valu@ DB 'This attrib'
	DB	'ute provides the values Nc and Mc which appear in the descrip'
	DB	'tions of `Mstage_inputs'' and `Mstage_outputs'', for each tra'
	DB	'nsform block (equivalently, each component collection), c.  T'
	DB	'he `Mstage_blocks'' parameter attribute should contain one re'
	DB	'cord for each transform.  Each record contains two strictly p'
	DB	'ositive integers, identifying the number of input components '
	DB	'Nk, and the number of output components, Mk, produced by the '
	DB	'k''th transform.  No transform may consume or produce 0 compo'
	DB	'nents.  Between them, the various transform blocks must consu'
	DB	'me all components in the input list described by `Mstage_inpu'
	DB	'ts'' and produce all components in the output list described '
	DB	'by `Mstage_outputs''.', 00H			; `string'
CONST	ENDS
;	COMDAT ??_C@_0P@HHFGMPDO@Mstage_outputs?$AA@
CONST	SEGMENT
??_C@_0P@HHFGMPDO@Mstage_outputs?$AA@ DB 'Mstage_outputs', 00H ; `string'
CONST	ENDS
;	COMDAT ??_C@_0DLG@NNDEDDPH@This?5attribute?5is?5used?5to?5descri@
CONST	SEGMENT
??_C@_0DLG@NNDEDDPH@This?5attribute?5is?5used?5to?5descri@ DB 'This attri'
	DB	'bute is used to describe a list of output component indices w'
	DB	'hich are produced by this stage.  This list  of component ind'
	DB	'ices is a concatenation of the index ranges <A1>-<B1>, <A2>-<'
	DB	'B2>, ..., where An <= Bn are the first and second fields in t'
	DB	'he n''th record of the `Mstage_outputs'' attribute.  The list'
	DB	' of output component indices may not contain any repeated com'
	DB	'ponent indices, but it may contain "holes".  The transform st'
	DB	'age is considered to generate components with indices from 0 '
	DB	'to the largest index in the output list; any components in th'
	DB	'is range which are not listed (these are the holes) are taken'
	DB	' to be identically equal to 0.  The first transform block in '
	DB	'the stage processes the first N1 components in the list to pr'
	DB	'oduces the first M1 components in the output list; the second'
	DB	' transform block in the stage processes the next N1 component'
	DB	's in the input list, producing the next M2 components in the '
	DB	'output list; and so forth.', 00H		; `string'
CONST	ENDS
;	COMDAT ??_C@_0O@BOOPOFOH@Mstage_inputs?$AA@
CONST	SEGMENT
??_C@_0O@BOOPOFOH@Mstage_inputs?$AA@ DB 'Mstage_inputs', 00H ; `string'
CONST	ENDS
;	COMDAT ??_C@_0DAF@JDFCJPDD@This?5attribute?5is?5used?5to?5descri@
CONST	SEGMENT
??_C@_0DAF@JDFCJPDD@This?5attribute?5is?5used?5to?5descri@ DB 'This attri'
	DB	'bute is used to describe a list of input component indices wh'
	DB	'ich are used by all transform blocks in a single stage of the'
	DB	' multi-component transform.  This list of component indices i'
	DB	's a concatenation of the index ranges <A1>-<B1>, <A2>-<B2>, .'
	DB	'.., where An <= Bn are the first and second fields in the n'''
	DB	'th record of the `Mstage_inputs'' attribute.   The list of in'
	DB	'put component indices may contain repeated values, but must c'
	DB	'over all components produced by the previous stage (or all co'
	DB	'destream component indices, if this is the first stage).  In '
	DB	'particular, it must always include 0.  The first transform bl'
	DB	'ock operates on the first N1 components identified by this li'
	DB	'st; the second transform block operates on the next N2 compon'
	DB	'ents in this list; and so forth.', 00H	; `string'
CONST	ENDS
;	COMDAT ??_C@_03BOENIPFM@MCC?$AA@
CONST	SEGMENT
??_C@_03BOENIPFM@MCC?$AA@ DB 'MCC', 00H			; `string'
CONST	ENDS
;	COMDAT ??_C@_0DF@BKIIOFOO@Malformed?5MCT?5marker?5segment?5enc@
CONST	SEGMENT
??_C@_0DF@BKIIOFOO@Malformed?5MCT?5marker?5segment?5enc@ DB 'Malformed MC'
	DB	'T marker segment encountered. The final ', 00H ; `string'
CONST	ENDS
;	COMDAT ??_C@_0EI@NNANLLPB@Malformed?5MCT?5marker?5segment?5enc@
CONST	SEGMENT
??_C@_0EI@NNANLLPB@Malformed?5MCT?5marker?5segment?5enc@ DB 'Malformed MC'
	DB	'T marker segment encountered.  Marker segment is too small.', 00H ; `string'
CONST	ENDS
;	COMDAT ??_C@_0BCP@HHOAMAFM@Encountered?5out?9of?9order?5?$GAZmct?8?5@
CONST	SEGMENT
??_C@_0BCP@HHOAMAFM@Encountered?5out?9of?9order?5?$GAZmct?8?5@ DB 'Encoun'
	DB	'tered out-of-order `Zmct'' field while parsing MCT marker seg'
	DB	'ments belonging to a series.  While this is not strictly ille'
	DB	'gal, it makes no sense for a content creator to write MCT mar'
	DB	'ker segments out of order.  Kakadu does not currently support'
	DB	' reordering of these optional Part-2 marker segments.', 00H ; `string'
CONST	ENDS
;	COMDAT ??_C@_0BBF@IPOKLLIB@Encountered?5repeat?5or?5out?9of?9ran@
CONST	SEGMENT
??_C@_0BBF@IPOKLLIB@Encountered?5repeat?5or?5out?9of?9ran@ DB 'Encountere'
	DB	'd repeat or out-of-range `Zmct'' field while parsing an MCT m'
	DB	'arker segment.  The `Zmct'' field is used to enumerate marker'
	DB	' segments which belong to a common series, but the value enco'
	DB	'untered is inconsistent with the rest of the series.  This is'
	DB	' a malformed codestream.', 00H		; `string'
CONST	ENDS
;	COMDAT ??_C@_0NI@PEHFOKHE@The?5number?5of?5?$GAMmatrix_coeffs?8?0?5@
CONST	SEGMENT
??_C@_0NI@PEHFOKHE@The?5number?5of?5?$GAMmatrix_coeffs?8?0?5@ DB 'The num'
	DB	'ber of `Mmatrix_coeffs'', `Mvector_coeffs'' or `Mtriang_coeff'
	DB	's'' entries found while finalizing MCT transform coefficients'
	DB	' does not match the corresponding `Mmatrix_size'', `Mvector_s'
	DB	'ize'' or `Mtriang_size'' value.', 00H	; `string'
CONST	ENDS
;	COMDAT ??_C@_0OJ@PDOPGBL@It?5is?5illegal?5to?5supply?5?$GAMvector@
CONST	SEGMENT
??_C@_0OJ@PDOPGBL@It?5is?5illegal?5to?5supply?5?$GAMvector@ DB 'It is ill'
	DB	'egal to supply `Mvector_size'', `Mtriang_size'' or `Mvector_s'
	DB	'ize'' attributes with zero-valued instance indices (equivalen'
	DB	'tly, with missing instance indices).  Use the ":I=..." suffix'
	DB	' when providing MCT transform coefficients.', 00H ; `string'
CONST	ENDS
;	COMDAT ??_C@_0JE@JFBAAJII@Illegal?5value?5?$CIanything?5?$DM?$DN?50?$CJ?5fo@
CONST	SEGMENT
??_C@_0JE@JFBAAJII@Illegal?5value?5?$CIanything?5?$DM?$DN?50?$CJ?5fo@ DB 'I'
	DB	'llegal value (anything <= 0) found for `Mmatrix_size'', `Mvec'
	DB	'tor_size'' or `Mtriang_size'' attribute while finalizing the '
	DB	'MCT transform coefficients.', 00H		; `string'
CONST	ENDS
;	COMDAT ??_C@_0KN@OBNKNPAB@Failed?5to?5read?5all?5MCT?5marker?5se@
CONST	SEGMENT
??_C@_0KN@OBNKNPAB@Failed?5to?5read?5all?5MCT?5marker?5se@ DB 'Failed to '
	DB	'read all MCT marker segments in a series associated with a gi'
	DB	'ven `Imct'' index within a main or initial tile-part header. '
	DB	' Codestream is not correctly constructed.', 00H ; `string'
CONST	ENDS
;	COMDAT ??_C@_0P@CMBCAAOP@Mtriang_coeffs?$AA@
CONST	SEGMENT
??_C@_0P@CMBCAAOP@Mtriang_coeffs?$AA@ DB 'Mtriang_coeffs', 00H ; `string'
CONST	ENDS
;	COMDAT ??_C@_0CAB@FHBPNALP@Coefficients?5of?5the?5sub?9triangul@
CONST	SEGMENT
??_C@_0CAB@FHBPNALP@Coefficients?5of?5the?5sub?9triangul@ DB 'Coefficient'
	DB	's of the sub-triangular matrix, if any, whose number of eleme'
	DB	'nts is represented by the `Mtriang_size'' attribute.  The coe'
	DB	'fficients are arranged in row-major order.  Thus, for a depen'
	DB	'dency transform with M inputs and outputs, the first coeffici'
	DB	'ent (first two for reversible transforms) comes from the seco'
	DB	'nd row of the matrix, the next two (three for reversible tran'
	DB	'sforms) comes from the third row of the matrix, and so forth.'
	DB	'  For reversible transforms, the coefficients must all have i'
	DB	'nteger values.', 00H			; `string'
CONST	ENDS
;	COMDAT ??_C@_0N@CCNKIJHO@Mtriang_size?$AA@
CONST	SEGMENT
??_C@_0N@CCNKIJHO@Mtriang_size?$AA@ DB 'Mtriang_size', 00H ; `string'
CONST	ENDS
;	COMDAT ??_C@_0EBK@HDHPILKI@Identifies?5the?5total?5number?5of?5s@
CONST	SEGMENT
??_C@_0EBK@HDHPILKI@Identifies?5the?5total?5number?5of?5s@ DB 'Identifies'
	DB	' the total number of sub-triangular matrix elements, if any, '
	DB	'represented by this object.  A sub-triangular matrix is squar'
	DB	'e, with no coefficients above the diagonal and at least one c'
	DB	'oefficient missing from the diagonal.  A strictly sub-triangu'
	DB	'lar M x M matrix will have M*(M-1)/2 coefficients, all below '
	DB	'the diagonal.  Matrices of this form are used to describe irr'
	DB	'eversible multicomponent dependency transforms.  Reversible d'
	DB	'ependency transforms, however, include all but the upper left'
	DB	' diagonal entry, for a total of M*(M+1)/2-1 coefficients.  De'
	DB	'pendency transforms are described by referencing the current '
	DB	'attribute''s instance index from the second field in each rec'
	DB	'ord of the `Mstage_xforms'' attribute used to describe a mult'
	DB	'i-component transform stage.  Thus, for example, "Mstage_xfor'
	DB	'ms:I1={DEP,5,0,0,0}" declares that a given multi-component tr'
	DB	'ansform stage, having instance index 1, and one component col'
	DB	'lection, employs a dependency transform, whose coefficients a'
	DB	're counted by `Mtriang_size:I5'' and found in `Mtriang_coeffs'
	DB	':I5''.', 00H				; `string'
CONST	ENDS
;	COMDAT ??_C@_0P@DIALIICI@Mvector_coeffs?$AA@
CONST	SEGMENT
??_C@_0P@DIALIICI@Mvector_coeffs?$AA@ DB 'Mvector_coeffs', 00H ; `string'
CONST	ENDS
;	COMDAT ??_C@_0BEO@GFEMDFDK@Coefficients?5of?5the?5vector?0?5if?5t@
CONST	SEGMENT
??_C@_0BEO@GFEMDFDK@Coefficients?5of?5the?5vector?0?5if?5t@ DB 'Coefficie'
	DB	'nts of the vector, if there is one, whose number of elements '
	DB	'is given by `Mvector_size''.  Unlike `Mmatrix_coeffs'' and `M'
	DB	'triang_coeffs'', this attribute is extrapolated if insufficie'
	DB	'nt parameters are supplied -- that is, the last supplied valu'
	DB	'e is replicated as required in order to provide all `Mvector_'
	DB	'size'' vector elements.', 00H		; `string'
CONST	ENDS
;	COMDAT ??_C@_0N@EBBFOCKJ@Mvector_size?$AA@
CONST	SEGMENT
??_C@_0N@EBBFOCKJ@Mvector_size?$AA@ DB 'Mvector_size', 00H ; `string'
CONST	ENDS
;	COMDAT ??_C@_0DNI@IDMIDCPL@Identifies?5the?5number?5of?5vector?5@
CONST	SEGMENT
??_C@_0DNI@IDMIDCPL@Identifies?5the?5number?5of?5vector?5@ DB 'Identifies'
	DB	' the number of vector elements, if any, represented by this o'
	DB	'bject.  The actual vector coefficients are represented by the'
	DB	' `Mvector_coeffs'' attribute.  Vectors are used to describe o'
	DB	'ffsets to be applied to the component sample values after inv'
	DB	'erse transformation.  This is done by referencing the current'
	DB	' attribute''s instance index from the third field in each rec'
	DB	'ord of the `Mstage_xforms'' attribute used to describe a mult'
	DB	'i-component transform stage.  Thus, for example, "Mstage_xfor'
	DB	'ms:I1={MATRIX,1,4,0,0},{MATRIX,3,0,1,0}" declares that a give'
	DB	'n multi-component transform stage, having instance index 1, a'
	DB	'nd two component collections, employs matrix transforms for b'
	DB	'oth collections.  The first collection also involves offsets,'
	DB	' described via `Mvector_size:I4'' and `Mvector_coeffs:I4'', w'
	DB	'hile the second collection does not use offsets.  to understa'
	DB	'nd the remaining fields in each record of the `Mstage_xforms'''
	DB	' attribute, consult the separate description of that attribut'
	DB	'e.', 00H					; `string'
CONST	ENDS
;	COMDAT ??_C@_0P@NJDNNBNG@Mmatrix_coeffs?$AA@
CONST	SEGMENT
??_C@_0P@NJDNNBNG@Mmatrix_coeffs?$AA@ DB 'Mmatrix_coeffs', 00H ; `string'
CONST	ENDS
;	COMDAT ??_C@_0BGK@IHFIBLIK@Coefficients?5of?5the?5matrix?0?5if?5t@
CONST	SEGMENT
??_C@_0BGK@IHFIBLIK@Coefficients?5of?5the?5matrix?0?5if?5t@ DB 'Coefficie'
	DB	'nts of the matrix, if there is one, whose number of elements '
	DB	'is given by `Mmatrix_size''.  The coefficients appear in row-'
	DB	'major order (first row, then second row, etc.).  The height a'
	DB	'nd width of the matrix are not recorded here, but matrices ar'
	DB	'e not required to be square.  For reversible transforms, the '
	DB	'matrix coefficients are required to be integers.', 00H ; `string'
CONST	ENDS
;	COMDAT ??_C@_01BIAFAFID@F?$AA@
CONST	SEGMENT
??_C@_01BIAFAFID@F?$AA@ DB 'F', 00H			; `string'
CONST	ENDS
;	COMDAT ??_C@_0N@FIDBGNAL@Mmatrix_size?$AA@
CONST	SEGMENT
??_C@_0N@FIDBGNAL@Mmatrix_size?$AA@ DB 'Mmatrix_size', 00H ; `string'
CONST	ENDS
;	COMDAT ??_C@_0DPN@GBDINPGJ@Identifies?5the?5number?5of?5matrix?5@
CONST	SEGMENT
??_C@_0DPN@GBDINPGJ@Identifies?5the?5number?5of?5matrix?5@ DB 'Identifies'
	DB	' the number of matrix elements, if any, represented by this o'
	DB	'bject.  The actual matrix coefficients are represented by the'
	DB	' `Mmatrix_coeffs'' attribute.  Matrices are used to describe '
	DB	'reversible and irreversible inverse component decorrelation t'
	DB	'ransforms.  This is done by referencing the current attribute'
	DB	'''s instance index from the second field in each record of th'
	DB	'e `Mstage_xforms'' attribute used to describe a multi-compone'
	DB	'nt transformation stage.  Thus, for example, "Mstage_xforms:I'
	DB	'1={MATRIX,1,4,0,0},{MATRIX,3,0,1,0}" declares that a given mu'
	DB	'lti-component transform stage, having instance index 1, and t'
	DB	'wo component collections, employs matrix transforms for both '
	DB	'collections.  The first collection''s matrix is described by '
	DB	'`Mmatrix_size:I1'' and `Mmatrix_coeffs:I1'', while the second'
	DB	' collection''s matrix is described by `Mmatrix_size:I3'' and '
	DB	'`Mmatrix_coeffs:I3''.  To understand the last two fields in e'
	DB	'ach record of the `Mstage_xforms'' attribute, please refer to'
	DB	' the separate description of that attribute.', 00H ; `string'
CONST	ENDS
;	COMDAT ??_C@_03BLMOALMK@MCT?$AA@
CONST	SEGMENT
??_C@_03BLMOALMK@MCT?$AA@ DB 'MCT', 00H			; `string'
CONST	ENDS
;	COMDAT ??_C@_0BAE@JMBBANBI@Profile?5violation?5detected?4?5?5You@
CONST	SEGMENT
??_C@_0BAE@JMBBANBI@Profile?5violation?5detected?4?5?5You@ DB 'Profile vi'
	DB	'olation detected.  You have supplied `Porder'' attributes whi'
	DB	'ch are not consistent with the 4K Digital Cinema profile (CIN'
	DB	'EMA4K).  You should let the parameter management system set t'
	DB	'hese for you, to ensure compliance with the Digital Cinema pr'
	DB	'ofile.', 00H				; `string'
CONST	ENDS
;	COMDAT ??_C@_06NMKHLFPN@Porder?$AA@
CONST	SEGMENT
??_C@_06NMKHLFPN@Porder?$AA@ DB 'Porder', 00H		; `string'
CONST	ENDS
;	COMDAT ??_C@_03LFCEPJHK@POC?$AA@
CONST	SEGMENT
??_C@_03LFCEPJHK@POC?$AA@ DB 'POC', 00H			; `string'
CONST	ENDS
;	COMDAT ??_C@_0BAO@JPIFODPP@Profile?5violation?5detected?4?5?5Cod@
CONST	SEGMENT
??_C@_0BAO@JPIFODPP@Profile?5violation?5detected?4?5?5Cod@ DB 'Profile vi'
	DB	'olation detected.  Code-streams marked with a Digital Cinema '
	DB	'profile (CINEMA2K or CINEMA4K) must have tile-parts generated'
	DB	' according to the "ORGtparts=C" flavour.  Letting this go for'
	DB	' now, since you may be intending to reorganize tile-parts you'
	DB	'rself later on.', 00H			; `string'
CONST	ENDS
;	COMDAT ??_C@_09CNLDEMAK@ORGtparts?$AA@
CONST	SEGMENT
??_C@_09CNLDEMAK@ORGtparts?$AA@ DB 'ORGtparts', 00H	; `string'
CONST	ENDS
;	COMDAT ??_C@_0L@CIAEHHDE@ORGgen_tlm?$AA@
CONST	SEGMENT
??_C@_0L@CIAEHHDE@ORGgen_tlm?$AA@ DB 'ORGgen_tlm', 00H	; `string'
CONST	ENDS
;	COMDAT ??_C@_03MNMMELJE@ORG?$AA@
CONST	SEGMENT
??_C@_03MNMMELJE@ORG?$AA@ DB 'ORG', 00H			; `string'
CONST	ENDS
;	COMDAT ??_C@_0JJ@DLDOMHMJ@Profile?5violation?5detected?4?5?5Cod@
CONST	SEGMENT
??_C@_0JJ@DLDOMHMJ@Profile?5violation?5detected?4?5?5Cod@ DB 'Profile vio'
	DB	'lation detected.  Code-streams marked with the CINEMA4K Digit'
	DB	'al Cinema profile may have a maximum width of 4096 and a maxi'
	DB	'mum height of 2160.', 00H			; `string'
CONST	ENDS
;	COMDAT ??_C@_0JJ@ELMILGL@Profile?5violation?5detected?4?5?5Cod@
CONST	SEGMENT
??_C@_0JJ@ELMILGL@Profile?5violation?5detected?4?5?5Cod@ DB 'Profile viol'
	DB	'ation detected.  Code-streams marked with the CINEMA2K Digita'
	DB	'l Cinema profile may have a maximum width of 2048 and a maxim'
	DB	'um height of 1080.', 00H			; `string'
CONST	ENDS
;	COMDAT ??_C@_0HP@KEPFIMCP@Profile?5violation?5detected?4?5?5Cod@
CONST	SEGMENT
??_C@_0HP@KEPFIMCP@Profile?5violation?5detected?4?5?5Cod@ DB 'Profile vio'
	DB	'lation detected.  Code-streams marked with a Digital Cinema p'
	DB	'rofile (CINEMA2K or CINEMA4K) must have only one tile.', 00H ; `string'
CONST	ENDS
;	COMDAT ??_C@_0KG@LAENILL@Profile?5violation?5detected?4?5?5Cod@
CONST	SEGMENT
??_C@_0KG@LAENILL@Profile?5violation?5detected?4?5?5Cod@ DB 'Profile viol'
	DB	'ation detected.  Code-streams marked with a Digital Cinema pr'
	DB	'ofile (CINEMA2K or CINEMA4K) must have their image and tile p'
	DB	'artition anchored a the origin.', 00H	; `string'
CONST	ENDS
;	COMDAT ??_C@_0NP@LDCOLEKI@Profile?5violation?5detected?4?5?5Cod@
CONST	SEGMENT
??_C@_0NP@LDCOLEKI@Profile?5violation?5detected?4?5?5Cod@ DB 'Profile vio'
	DB	'lation detected.  Code-streams marked with a Digital Cinema p'
	DB	'rofile (CINEMA2K or CINEMA4K) must have exactly 3 image compo'
	DB	'nents, each unsigned with a precision of 12 bits and all sub-'
	DB	'sampling factors equal to 1.', 00H		; `string'
CONST	ENDS
;	COMDAT ??_C@_0IJ@LMINEOIM@Code?9stream?5profile?5had?5to?5be?5ch@
CONST	SEGMENT
??_C@_0IJ@LMINEOIM@Code?9stream?5profile?5had?5to?5be?5ch@ DB 'Code-strea'
	DB	'm profile had to be changed from a digital cinema profile to '
	DB	'a PART2 profile, since one or more PART2 features have been u'
	DB	'sed.', 00H					; `string'
CONST	ENDS
;	COMDAT ??_C@_0BG@JPDDDEGK@Kakadu?5Core?5Warning?3?6?$AA@
CONST	SEGMENT
??_C@_0BG@JPDDDEGK@Kakadu?5Core?5Warning?3?6?$AA@ DB 'Kakadu Core Warning'
	DB	':', 0aH, 00H				; `string'
CONST	ENDS
;	COMDAT ??_C@_0BA@JFAKJNFN@Calign_blk_last?$AA@
CONST	SEGMENT
??_C@_0BA@JFAKJNFN@Calign_blk_last?$AA@ DB 'Calign_blk_last', 00H ; `string'
CONST	ENDS
;	COMDAT ??_C@_0L@BNGLHLNI@Ksymmetric?$AA@
CONST	SEGMENT
??_C@_0L@BNGLHLNI@Ksymmetric?$AA@ DB 'Ksymmetric', 00H	; `string'
CONST	ENDS
;	COMDAT ??_C@_03IFCLAPBJ@ATK?$AA@
CONST	SEGMENT
??_C@_03IFCLAPBJ@ATK?$AA@ DB 'ATK', 00H			; `string'
CONST	ENDS
;	COMDAT ??_C@_04HAOFMIPN@Catk?$AA@
CONST	SEGMENT
??_C@_04HAOFMIPN@Catk?$AA@ DB 'Catk', 00H		; `string'
CONST	ENDS
;	COMDAT ??_C@_04NKICNHII@Cdfs?$AA@
CONST	SEGMENT
??_C@_04NKICNHII@Cdfs?$AA@ DB 'Cdfs', 00H		; `string'
CONST	ENDS
;	COMDAT ??_C@_04OONIPDNE@Cads?$AA@
CONST	SEGMENT
??_C@_04OONIPDNE@Cads?$AA@ DB 'Cads', 00H		; `string'
CONST	ENDS
;	COMDAT ??_C@_0BFE@FLEIONEE@Illegal?5profile?5index?4?5?5?$CCSprofil@
CONST	SEGMENT
??_C@_0BFE@FLEIONEE@Illegal?5profile?5index?4?5?5?$CCSprofil@ DB 'Illegal'
	DB	' profile index.  "Sprofile" must be in the range 0 to 5: Prof'
	DB	'ile-0 is the most restrictive original Part-1 profile; Profil'
	DB	'e-2 is the unrestricted Part-1 profile; 3 means that the code'
	DB	'stream conforms to Part-2 of the standard; 4 and 5 are for th'
	DB	'e restrictive Digital Cinema profiles, added by an ammendment'
	DB	' to Part-1 of the standard.', 00H		; `string'
CONST	ENDS
;	COMDAT ??_C@_0MN@GGGLGLFK@Problems?5trying?5to?5finalize?5SIZ?5@
CONST	SEGMENT
??_C@_0MN@GGGLGLFK@Problems?5trying?5to?5finalize?5SIZ?5@ DB 'Problems tr'
	DB	'ying to finalize SIZ information. Illegal tile origin coordin'
	DB	'ates.  The first tile must have a non-empty intersection with'
	DB	' the image region on the canvas. Available information is as '
	DB	'follows:', 0aH, 0aH, 00H			; `string'
CONST	ENDS
;	COMDAT ??_C@_0HB@GIGMGNIM@Problem?5trying?5to?5finalize?5SIZ?5i@
CONST	SEGMENT
??_C@_0HB@GIGMGNIM@Problem?5trying?5to?5finalize?5SIZ?5i@ DB 'Problem try'
	DB	'ing to finalize SIZ information. Dimensions are inconsistent.'
	DB	'  Available information is as follows:', 0aH, 0aH, 00H ; `string'
CONST	ENDS
;	COMDAT ??_C@_0JM@LALDBFDG@Problem?5trying?5to?5finalize?5SIZ?5i@
CONST	SEGMENT
??_C@_0JM@LALDBFDG@Problem?5trying?5to?5finalize?5SIZ?5i@ DB 'Problem try'
	DB	'ing to finalize SIZ information. Vertical component dimension'
	DB	's and sub-sampling factors are incompatible. Available inform'
	DB	'ation is as follows:', 0aH, 0aH, 00H	; `string'
CONST	ENDS
;	COMDAT ??_C@_0JO@OKOEKKHK@Problem?5trying?5to?5finalize?5SIZ?5i@
CONST	SEGMENT
??_C@_0JO@OKOEKKHK@Problem?5trying?5to?5finalize?5SIZ?5i@ DB 'Problem try'
	DB	'ing to finalize SIZ information. Horizontal component dimensi'
	DB	'ons and sub-sampling factors are incompatible. Available info'
	DB	'rmation is as follows:', 0aH, 0aH, 00H	; `string'
CONST	ENDS
;	COMDAT ??_C@_0JH@IIBMOHD@Problem?5trying?5to?5finalize?5SIZ?5i@
CONST	SEGMENT
??_C@_0JH@IIBMOHD@Problem?5trying?5to?5finalize?5SIZ?5i@ DB 'Problem tryi'
	DB	'ng to finalize SIZ information. Vertical canvas and image com'
	DB	'ponent dimensions are not compatible.  Available information '
	DB	'is as follows:', 0aH, 0aH, 00H		; `string'
CONST	ENDS
;	COMDAT ??_C@_0JJ@NPLIAPKO@Problem?5trying?5to?5finalize?5SIZ?5i@
CONST	SEGMENT
??_C@_0JJ@NPLIAPKO@Problem?5trying?5to?5finalize?5SIZ?5i@ DB 'Problem try'
	DB	'ing to finalize SIZ information. Horizontal canvas and image '
	DB	'component dimensions are not compatible.  Available informati'
	DB	'on is as follows:', 0aH, 0aH, 00H		; `string'
CONST	ENDS
;	COMDAT ??_C@_0KE@JLIAOLIC@Problem?5trying?5to?5finalize?5SIZ?5i@
CONST	SEGMENT
??_C@_0KE@JLIAOLIC@Problem?5trying?5to?5finalize?5SIZ?5i@ DB 'Problem try'
	DB	'ing to finalize SIZ information Component dimensions are not '
	DB	'consistent with a legal set of sub-sampling factors. Availabl'
	DB	'e information is as follows:', 0aH, 0aH, 00H ; `string'
CONST	ENDS
;	COMDAT ??_C@_0JH@NJJGGCNE@Problem?5trying?5to?5finalize?5SIZ?5i@
CONST	SEGMENT
??_C@_0JH@NJJGGCNE@Problem?5trying?5to?5finalize?5SIZ?5i@ DB 'Problem try'
	DB	'ing to finalize SIZ information. Must have either the image c'
	DB	'omponent dimensions or the canvas size! Available information'
	DB	' is as follows:', 0aH, 0aH, 00H		; `string'
CONST	ENDS
;	COMDAT ??_C@_0II@DHNDEJOJ@Problem?5trying?5to?5finalize?5SIZ?5i@
CONST	SEGMENT
??_C@_0II@DHNDEJOJ@Problem?5trying?5to?5finalize?5SIZ?5i@ DB 'Problem try'
	DB	'ing to finalize SIZ information. Must have either the individ'
	DB	'ual component dimensions or the component sub-sampling factor'
	DB	's.', 00H					; `string'
CONST	ENDS
;	COMDAT ??_C@_0EA@FCCPDFNF@Image?5component?5sub?9sampling?5fac@
CONST	SEGMENT
??_C@_0EA@FCCPDFNF@Image?5component?5sub?9sampling?5fac@ DB 'Image compon'
	DB	'ent sub-sampling factors must be strictly positive!', 00H ; `string'
CONST	ENDS
;	COMDAT ??_C@_0GI@PICGKKPJ@Problem?5trying?5to?5finalize?5SIZ?5i@
CONST	SEGMENT
??_C@_0GI@PICGKKPJ@Problem?5trying?5to?5finalize?5SIZ?5i@ DB 'Problem try'
	DB	'ing to finalize SIZ information Component sub-sampling factor'
	DB	's are only partially available!', 00H	; `string'
CONST	ENDS
;	COMDAT ??_C@_0FP@HBBHOMDC@Problem?5trying?5to?5finalize?5SIZ?5i@
CONST	SEGMENT
??_C@_0FP@HBBHOMDC@Problem?5trying?5to?5finalize?5SIZ?5i@ DB 'Problem try'
	DB	'ing to finalize SIZ information. Component dimensions are onl'
	DB	'y partially available!', 00H		; `string'
CONST	ENDS
;	COMDAT ??_C@_0JL@PLHBNPBC@Problem?5trying?5to?5finalize?5SIZ?5i@
CONST	SEGMENT
??_C@_0JL@PLHBNPBC@Problem?5trying?5to?5finalize?5SIZ?5i@ DB 'Problem try'
	DB	'ing to finalize SIZ information. Insufficient data supplied t'
	DB	'o determine the number of image components! Available informa'
	DB	'tion is as follows:', 0aH, 0aH, 00H		; `string'
CONST	ENDS
;	COMDAT ??_C@_0EH@FOFCLFAN@Malformed?5CBD?5marker?5segment?5enc@
CONST	SEGMENT
??_C@_0EH@FOFCLFAN@Malformed?5CBD?5marker?5segment?5enc@ DB 'Malformed CB'
	DB	'D marker segment encountered. Marker segment is too small.', 00H ; `string'
CONST	ENDS
;	COMDAT ??_C@_0DF@PNFFNEFI@Malformed?5CBD?5marker?5segment?5enc@
CONST	SEGMENT
??_C@_0DF@PNFFNEFI@Malformed?5CBD?5marker?5segment?5enc@ DB 'Malformed CB'
	DB	'D marker segment encountered. The final ', 00H ; `string'
CONST	ENDS
;	COMDAT ??_C@_0EH@PJEAPICM@Malformed?5SIZ?5marker?5segment?5enc@
CONST	SEGMENT
??_C@_0EH@PJEAPICM@Malformed?5SIZ?5marker?5segment?5enc@ DB 'Malformed SI'
	DB	'Z marker segment encountered. Marker segment is too small.', 00H ; `string'
CONST	ENDS
;	COMDAT ??_C@_0BK@CHACHIIH@?5bytes?5were?5not?5consumed?$CB?$AA@
CONST	SEGMENT
??_C@_0BK@CHACHIIH@?5bytes?5were?5not?5consumed?$CB?$AA@ DB ' bytes were '
	DB	'not consumed!', 00H				; `string'
CONST	ENDS
;	COMDAT ??_C@_0DF@MIHNMLL@Malformed?5SIZ?5marker?5segment?5enc@
CONST	SEGMENT
??_C@_0DF@MIHNMLL@Malformed?5SIZ?5marker?5segment?5enc@ DB 'Malformed SIZ'
	DB	' marker segment encountered. The final ', 00H ; `string'
CONST	ENDS
;	COMDAT ??_C@_0CI@CLEFFBLP@Invalid?5SIZ?5marker?5segment?5encou@
CONST	SEGMENT
??_C@_0CI@CLEFFBLP@Invalid?5SIZ?5marker?5segment?5encou@ DB 'Invalid SIZ '
	DB	'marker segment encountered!', 00H		; `string'
CONST	ENDS
;	COMDAT ??_C@_0CN@JHCHBCDJ@Illegal?5precision?5for?5MCT?5output@
CONST	SEGMENT
??_C@_0CN@JHCHBCDJ@Illegal?5precision?5for?5MCT?5output@ DB 'Illegal prec'
	DB	'ision for MCT output component, ', 00H	; `string'
CONST	ENDS
;	COMDAT ??_C@_0HM@MMCEOMEI@Unable?5to?5write?5CBD?5marker?5segme@
CONST	SEGMENT
??_C@_0HM@MMCEOMEI@Unable?5to?5write?5CBD?5marker?5segme@ DB 'Unable to w'
	DB	'rite CBD marker segment! Precision or signed/unsigned informa'
	DB	'tion missing for at least one MCT output component.', 00H ; `string'
CONST	ENDS
;	COMDAT ??_C@_0CB@HBCCFDNA@?$HN?4?5Legal?5range?5is?5from?51?5to?5255?4@
CONST	SEGMENT
??_C@_0CB@HBCCFDNA@?$HN?4?5Legal?5range?5is?5from?51?5to?5255?4@ DB '}. L'
	DB	'egal range is from 1 to 255.', 00H		; `string'
CONST	ENDS
;	COMDAT ??_C@_0CK@FCLHCLL@Illegal?5component?5sub?9sampling?5f@
CONST	SEGMENT
??_C@_0CK@FCLHCLL@Illegal?5component?5sub?9sampling?5f@ DB 'Illegal compo'
	DB	'nent sub-sampling factors, {', 00H		; `string'
CONST	ENDS
;	COMDAT ??_C@_0CP@NJAPNNOL@?4?5Legal?5range?5is?5from?51?5to?538?5bi@
CONST	SEGMENT
??_C@_0CP@NJAPNNOL@?4?5Legal?5range?5is?5from?51?5to?538?5bi@ DB '. Legal'
	DB	' range is from 1 to 38 bits per sample.', 00H ; `string'
CONST	ENDS
;	COMDAT ??_C@_0CB@NEMDCGAB@Illegal?5image?5sample?5bit?9depth?0?5@
CONST	SEGMENT
??_C@_0CB@NEMDCGAB@Illegal?5image?5sample?5bit?9depth?0?5@ DB 'Illegal im'
	DB	'age sample bit-depth, ', 00H		; `string'
CONST	ENDS
;	COMDAT ??_C@_0GO@MOMFJPHA@Unable?5to?5write?5SIZ?5marker?5segme@
CONST	SEGMENT
??_C@_0GO@MOMFJPHA@Unable?5to?5write?5SIZ?5marker?5segme@ DB 'Unable to w'
	DB	'rite SIZ marker segment! Precision or sub-sampling informatio'
	DB	'n missing for at least one component.', 00H	; `string'
CONST	ENDS
;	COMDAT ??_C@_0HF@BDHEFLHF@Illegal?5profile?5index?4?5?5?$CCSprofil@
CONST	SEGMENT
??_C@_0HF@BDHEFLHF@Illegal?5profile?5index?4?5?5?$CCSprofil@ DB 'Illegal '
	DB	'profile index.  "Sprofile" must be set in the range 0 to 5; 3'
	DB	' is required if Part 2 features are to be used.', 00H ; `string'
CONST	ENDS
;	COMDAT ??_C@_0JL@PMLPBNBK@Cannot?5write?5SIZ?5marker?5with?5ill@
CONST	SEGMENT
??_C@_0JL@PMLPBNBK@Cannot?5write?5SIZ?5marker?5with?5ill@ DB 'Cannot writ'
	DB	'e SIZ marker with illegal canvas coordinates.  The first tile'
	DB	' is required to have a non-empty intersection with the image '
	DB	'region on the canvas.', 00H			; `string'
CONST	ENDS
;	COMDAT ??_C@_0OI@OALKHBMD@Error?5attempting?5to?5convert?5geom@
CONST	SEGMENT
??_C@_0OI@OALKHBMD@Error?5attempting?5to?5convert?5geom@ DB 'Error attemp'
	DB	'ting to convert geometrically transformed canvas coordinates '
	DB	'to legal marker ranges.  Try using a smaller precinct size (y'
	DB	'ou can use the transcoding utility to achieve this at the sam'
	DB	'e time as geometric transformations.', 00H	; `string'
CONST	ENDS
;	COMDAT ??_C@_0L@KGBLICHL@Cprecincts?$AA@
CONST	SEGMENT
??_C@_0L@KGBLICHL@Cprecincts?$AA@ DB 'Cprecincts', 00H	; `string'
CONST	ENDS
;	COMDAT ??_C@_0NO@JDICNLBH@Attempting?5to?5write?5geometricall@
CONST	SEGMENT
??_C@_0NO@JDICNLBH@Attempting?5to?5write?5geometricall@ DB 'Attempting to'
	DB	' write geometrically transformed SIZ marker information witho'
	DB	'ut attaching and finalizing all tile-component COD marker inf'
	DB	'ormation.  This is essential to establish canvas coordinate e'
	DB	'quivalence relationships.', 00H		; `string'
CONST	ENDS
;	COMDAT ??_C@_0P@LMCGKBAC@Cuse_precincts?$AA@
CONST	SEGMENT
??_C@_0P@LMCGKBAC@Cuse_precincts?$AA@ DB 'Cuse_precincts', 00H ; `string'
CONST	ENDS
;	COMDAT ??_C@_07BGFFFHMP@Clevels?$AA@
CONST	SEGMENT
??_C@_07BGFFFHMP@Clevels?$AA@ DB 'Clevels', 00H		; `string'
CONST	ENDS
;	COMDAT ??_C@_0FJ@POPHKFAB@Illegal?5number?5of?5MCT?5output?5com@
CONST	SEGMENT
??_C@_0FJ@POPHKFAB@Illegal?5number?5of?5MCT?5output?5com@ DB 'Illegal num'
	DB	'ber of MCT output components, `Mcomponents''! Must be in the '
	DB	'range 0 to 16384.', 00H			; `string'
CONST	ENDS
;	COMDAT ??_C@_0EF@JGBMKHNL@Illegal?5number?5of?5image?5componen@
CONST	SEGMENT
??_C@_0EF@JGBMKHNL@Illegal?5number?5of?5image?5componen@ DB 'Illegal numb'
	DB	'er of image components! Must be in the range 1 to 16384.', 00H ; `string'
CONST	ENDS
;	COMDAT ??_C@_0CI@CMGIGAHL@Unable?5to?5write?5SIZ?5marker?5segme@
CONST	SEGMENT
??_C@_0CI@CMGIGAHL@Unable?5to?5write?5SIZ?5marker?5segme@ DB 'Unable to w'
	DB	'rite SIZ marker segment yet!', 00H		; `string'
CONST	ENDS
;	COMDAT ??_C@_0OO@EELGDABM@Cannot?5apply?5requested?5resolutio@
CONST	SEGMENT
??_C@_0OO@EELGDABM@Cannot?5apply?5requested?5resolutio@ DB 'Cannot apply '
	DB	'requested resolution reduction without creating a SIZ marker '
	DB	'segment with illegal component sub-sampling factors.  For the'
	DB	' current code-stream, sub-sampling factors would be required '
	DB	'which exceed the legal range of 1 to 255.', 00H ; `string'
CONST	ENDS
;	COMDAT ??_C@_03LIMJJHMM@COD?$AA@
CONST	SEGMENT
??_C@_03LIMJJHMM@COD?$AA@ DB 'COD', 00H			; `string'
CONST	ENDS
;	COMDAT ??_C@_0EK@BLNJMGGP@Attempting?5to?5discard?5all?5of?5the@
CONST	SEGMENT
??_C@_0EK@BLNJMGGP@Attempting?5to?5discard?5all?5of?5the@ DB 'Attempting '
	DB	'to discard all of the components from an existing code-stream'
	DB	'!', 00H					; `string'
CONST	ENDS
;	COMDAT ??_C@_0IK@CCHOHMJN@Unable?5to?5copy?5SIZ?5parameters?0?5u@
CONST	SEGMENT
??_C@_0IK@CCHOHMJN@Unable?5to?5copy?5SIZ?5parameters?0?5u@ DB 'Unable to '
	DB	'copy SIZ parameters, unless all canvas coordinates are availa'
	DB	'ble.  Try using `siz_params::finalize'' before attempting the'
	DB	' copy.', 00H				; `string'
CONST	ENDS
;	COMDAT ??_C@_0L@OMLPDKKH@Mprecision?$AA@
CONST	SEGMENT
??_C@_0L@OMLPDKKH@Mprecision?$AA@ DB 'Mprecision', 00H	; `string'
CONST	ENDS
;	COMDAT ??_C@_0BFE@NNIAEAJM@Indicates?5the?5bit?9depth?5of?5each?5@
CONST	SEGMENT
??_C@_0BFE@NNIAEAJM@Indicates?5the?5bit?9depth?5of?5each?5@ DB 'Indicates'
	DB	' the bit-depth of each MCT output component (see `Mcomponents'
	DB	''' for a definition of "MCT output components").  If fewer th'
	DB	'an `Mcomponents'' values are provided, the last supplied iden'
	DB	'tifier is repeated indefinitely for all remaining components.'
	DB	0aH, 09H, 09H, '[Compressors might be able to deduce this info'
	DB	'rmation from the image files supplied.]', 00H ; `string'
CONST	ENDS
;	COMDAT ??_C@_07GFFIOPIL@Msigned?$AA@
CONST	SEGMENT
??_C@_07GFFIOPIL@Msigned?$AA@ DB 'Msigned', 00H		; `string'
CONST	ENDS
;	COMDAT ??_C@_0BHF@DJPMMPEM@Indicates?5whether?5each?5MCT?5outpu@
CONST	SEGMENT
??_C@_0BHF@DJPMMPEM@Indicates?5whether?5each?5MCT?5outpu@ DB 'Indicates w'
	DB	'hether each MCT output component (see `Mcomponents'' for a de'
	DB	'finition of "MCT output components") contains signed or unsig'
	DB	'ned sample values.  If fewer than `Mcomponents'' values are p'
	DB	'rovided, the last supplied identifier is repeated indefinitel'
	DB	'y for all remaining components.', 0aH, 09H, 09H, '[Compressor'
	DB	's might be able to deduce this information from the image fil'
	DB	'es supplied.]', 00H				; `string'
CONST	ENDS
;	COMDAT ??_C@_0M@FAIBBHLL@Mcomponents?$AA@
CONST	SEGMENT
??_C@_0M@FAIBBHLL@Mcomponents?$AA@ DB 'Mcomponents', 00H ; `string'
CONST	ENDS
;	COMDAT ??_C@_0FFB@NCBJOMEF@Number?5of?5image?5components?5produ@
CONST	SEGMENT
??_C@_0FFB@NCBJOMEF@Number?5of?5image?5components?5produ@ DB 'Number of i'
	DB	'mage components produced at the output of the inverse multi-c'
	DB	'omponent transform -- during compression, you may think of th'
	DB	'ese as original image comonents.  In any event, we refer to t'
	DB	'hem as "MCT output components", taking the perspective of the'
	DB	' decompressor.  The value of `Mcomponents'' may be smaller th'
	DB	'an or larger than the `Scomponents'' value, which refers to t'
	DB	'he number of "codestream image components".  The codestream i'
	DB	'mage components are supplied to the input of the inverse mult'
	DB	'i-component transform.  Note carefully, however, that for Kak'
	DB	'adu to perform a forward multi-component transform on image d'
	DB	'ata supplied to a compressor, the value of `Mcomponents'' mus'
	DB	't be at least as large as `Scomponents'' and the inverse mult'
	DB	'i-component transform must provide sufficient invertible tran'
	DB	'sform blocks to derive the codestream components from the out'
	DB	'put image components.  In the special case where `Mcomponents'
	DB	''' is 0, or not specified, there is no multi-component transf'
	DB	'orm.  In this case, `Scomponents'', `Ssigned'' and `Sprecisio'
	DB	'n'' define the output image components.', 09H, 09H, '[Default'
	DB	's to 0.  You must explicitly set a non-zero value for this at'
	DB	'tribute if you want to use Part-2 multi-component transforms.'
	DB	'  Compressors might be able to deduce this information from t'
	DB	'he input files, if they are aware that you want to perform a '
	DB	'multi-component transform.]', 00H		; `string'
CONST	ENDS
;	COMDAT ??_C@_05KKKGDPEH@Sdims?$AA@
CONST	SEGMENT
??_C@_05KKKGDPEH@Sdims?$AA@ DB 'Sdims', 00H		; `string'
CONST	ENDS
;	COMDAT ??_C@_0BGE@DJOJEOK@Indicates?5the?5dimensions?5?$CIvertic@
CONST	SEGMENT
??_C@_0BGE@DJOJEOK@Indicates?5the?5dimensions?5?$CIvertic@ DB 'Indicates '
	DB	'the dimensions (vertical, then horizontal) of each individual'
	DB	' image component. The last supplied record is repeated indefi'
	DB	'nitely for all remaining components.', 0aH, 09H, 09H, '[For c'
	DB	'ompressors, the image component dimensions will normally be d'
	DB	'educed from the image files supplied to the compressor, but m'
	DB	'ay be explicitly set if raw input files are to be used.]', 00H ; `string'
CONST	ENDS
;	COMDAT ??_C@_09IGDOMJM@Ssampling?$AA@
CONST	SEGMENT
??_C@_09IGDOMJM@Ssampling?$AA@ DB 'Ssampling', 00H	; `string'
CONST	ENDS
;	COMDAT ??_C@_0BIA@NFIIFPMP@Indicates?5the?5sub?9sampling?5facto@
CONST	SEGMENT
??_C@_0BIA@NFIIFPMP@Indicates?5the?5sub?9sampling?5facto@ DB 'Indicates t'
	DB	'he sub-sampling factors for each codestream image component. '
	DB	'In each record, the vertical factor appears first, followed b'
	DB	'y the horizontal sub-sampling factor. The last supplied recor'
	DB	'd is repeated indefinitely for all remaining components.', 0aH
	DB	09H, 09H, '[For compressors, a suitable set of sub-sampling fa'
	DB	'ctors will normally be deduced from the individual image comp'
	DB	'onent dimensions.]', 00H			; `string'
CONST	ENDS
;	COMDAT ??_C@_0L@BADPNFGK@Sprecision?$AA@
CONST	SEGMENT
??_C@_0L@BADPNFGK@Sprecision?$AA@ DB 'Sprecision', 00H	; `string'
CONST	ENDS
;	COMDAT ??_C@_0CLK@EPFPBPLL@Indicates?5the?5bit?9depth?5of?5each?5@
CONST	SEGMENT
??_C@_0CLK@EPFPBPLL@Indicates?5the?5bit?9depth?5of?5each?5@ DB 'Indicates'
	DB	' the bit-depth of each codestream image component.', 0aH, 09H
	DB	09H, '[For compressors, this will normally be deduced from the'
	DB	' image files supplied to the compressor, but may need to be e'
	DB	'xplicitly set if raw input files are to be used.  Also, if yo'
	DB	'u happen to be using the Part-2 multi-component transform cap'
	DB	'abilities, the precision of the original image components sho'
	DB	'uld be expressed by `Mprecision''; in this case, you will nee'
	DB	'd to explicitly set `Sprecision'' to reflect the bit-depth of'
	DB	' the codestream image components produced after subjecting th'
	DB	'e original components to the forward multi-component transfor'
	DB	'm.  Note that the last supplied value is repeated indefinitel'
	DB	'y for all remaining components.]', 00H	; `string'
CONST	ENDS
;	COMDAT ??_C@_07MGJMMJC@Ssigned?$AA@
CONST	SEGMENT
??_C@_07MGJMMJC@Ssigned?$AA@ DB 'Ssigned', 00H		; `string'
CONST	ENDS
;	COMDAT ??_C@_0DAJ@MODEBBAE@Indicates?5whether?5each?5codestrea@
CONST	SEGMENT
??_C@_0DAJ@MODEBBAE@Indicates?5whether?5each?5codestrea@ DB 'Indicates wh'
	DB	'ether each codestream image component contains signed or unsi'
	DB	'gned sample values.', 0aH, 09H, 09H, '[For compressors, this '
	DB	'will normally be deduced from the image files supplied to the'
	DB	' compressor, but may be explicitly set if raw input files are'
	DB	' to be used.  Also, if you happen to be using the Part-2 mult'
	DB	'i-component transform capabilities, the signed/unsigned attri'
	DB	'butes of the original image components should be expressed by'
	DB	' `Msigned''; in this case, you will need to explicitly set `S'
	DB	'signed'' in a manner which reflects the signed/unsigned chara'
	DB	'cteristics of the codestream image components produced after '
	DB	'subjecting the original components to the forward multi-compo'
	DB	'nent transform.  Note that the last supplied identifier is re'
	DB	'peated indefinitely for all remaining components.]', 00H ; `string'
CONST	ENDS
;	COMDAT ??_C@_0M@LFKICJFJ@Scomponents?$AA@
CONST	SEGMENT
??_C@_0M@LFKICJFJ@Scomponents?$AA@ DB 'Scomponents', 00H ; `string'
CONST	ENDS
;	COMDAT ??_C@_0CDM@NAGNLIBN@Number?5of?5codestream?5image?5compo@
CONST	SEGMENT
??_C@_0CDM@NAGNLIBN@Number?5of?5codestream?5image?5compo@ DB 'Number of c'
	DB	'odestream image components.', 0aH, 09H, 09H, '[For compressor'
	DB	's, this will normally be deduced from the number and type of '
	DB	'image files supplied to the compressor.  Note carefully, howe'
	DB	'ver, that if a multi-component transform is used, the number '
	DB	'of codestream image components might not be equal to the numb'
	DB	'er of `output image components'' given by `Mcomponents''.  In'
	DB	' this case, the value of `Mcomponents'' and the corresponding'
	DB	' `Mprecision'' and `Msigned'' attributes should generally be '
	DB	'associated with the image files being read (for compression) '
	DB	'or written (for decompression).]', 00H	; `string'
CONST	ENDS
;	COMDAT ??_C@_0N@KMIIMNEN@Stile_origin?$AA@
CONST	SEGMENT
??_C@_0N@KMIIMNEN@Stile_origin?$AA@ DB 'Stile_origin', 00H ; `string'
CONST	ENDS
;	COMDAT ??_C@_0EM@GFLJDJGF@Tile?5origin?5on?5the?5canvas?3?5verti@
CONST	SEGMENT
??_C@_0EM@GFLJDJGF@Tile?5origin?5on?5the?5canvas?3?5verti@ DB 'Tile origi'
	DB	'n on the canvas: vertical coordinate first.', 0aH, 09H, 09H, '['
	DB	'Defaults to {0,0}]', 00H			; `string'
CONST	ENDS
;	COMDAT ??_C@_06EPMBOCAF@Stiles?$AA@
CONST	SEGMENT
??_C@_06EPMBOCAF@Stiles?$AA@ DB 'Stiles', 00H		; `string'
CONST	ENDS
;	COMDAT ??_C@_0EF@BCOJOGJB@Tile?5partition?5size?3?5vertical?5di@
CONST	SEGMENT
??_C@_0EF@BCOJOGJB@Tile?5partition?5size?3?5vertical?5di@ DB 'Tile partit'
	DB	'ion size: vertical dimension first.', 0aH, 09H, 09H, '[Defaul'
	DB	'ts to {0,0}]', 00H				; `string'
CONST	ENDS
;	COMDAT ??_C@_07PEMLCIHF@Sorigin?$AA@
CONST	SEGMENT
??_C@_07PEMLCIHF@Sorigin?$AA@ DB 'Sorigin', 00H		; `string'
CONST	ENDS
;	COMDAT ??_C@_0GN@LGNONLIP@Image?5origin?5on?5canvas?3?5vertical@
CONST	SEGMENT
??_C@_0GN@LGNONLIP@Image?5origin?5on?5canvas?3?5vertical@ DB 'Image origi'
	DB	'n on canvas: vertical coordinate first.', 0aH, 09H, 09H, '[De'
	DB	'faults to {0,0}, or the tile origin if one is given]', 00H ; `string'
CONST	ENDS
;	COMDAT ??_C@_05HNJHHEPH@Ssize?$AA@
CONST	SEGMENT
??_C@_05HNJHHEPH@Ssize?$AA@ DB 'Ssize', 00H		; `string'
CONST	ENDS
;	COMDAT ??_C@_0BDP@GFLEIBAO@Canvas?5dimensions?3?5vertical?5dime@
CONST	SEGMENT
??_C@_0BDP@GFLEIBAO@Canvas?5dimensions?3?5vertical?5dime@ DB 'Canvas dime'
	DB	'nsions: vertical dimension first.', 0aH, 09H, 09H, '[For comp'
	DB	'ressors, this will normally be derived from the dimensions of'
	DB	' the individual image components. Explicitly supplying the ca'
	DB	'nvas dimensions may be desirable if the source image files do'
	DB	' not indicate their dimensions, or if custom sub-sampling fac'
	DB	'tors are desired.]', 00H			; `string'
CONST	ENDS
;	COMDAT ??_C@_02FOEOGEOO@II?$AA@
CONST	SEGMENT
??_C@_02FOEOGEOO@II?$AA@ DB 'II', 00H			; `string'
CONST	ENDS
;	COMDAT ??_C@_0M@NJJFAENN@Sextensions?$AA@
CONST	SEGMENT
??_C@_0M@NJJFAENN@Sextensions?$AA@ DB 'Sextensions', 00H ; `string'
CONST	ENDS
;	COMDAT ??_C@_0DFB@NHCICMJL@Logical?5OR?5of?5any?5combination?5of@
CONST	SEGMENT
??_C@_0DFB@NHCICMJL@Logical?5OR?5of?5any?5combination?5of@ DB 'Logical OR'
	DB	' of any combination of a number of flags, indicating extended'
	DB	' features from Part 2 of the JPEG2000 standard which may be f'
	DB	'ound in this codestream.  Note that the Kakadu codestream gen'
	DB	'eration machinery will set these flags automatically based on'
	DB	' features which are detected in other parameter objects.  Exp'
	DB	'lanation: DC means arbitrary DC offset; VARQ means variable q'
	DB	'uantization; TCQ means trellis-coded quantization; PRECQ mean'
	DB	's precinct-dependent quantization; VIS means visual masking; '
	DB	'SSO means single-sample-overlap transform; DECOMP means arbit'
	DB	'rary decomposition styles; ANY_KNL means arbitrary transform '
	DB	'kernels; SYM_KNL means arbitrary whole sample symmetric trans'
	DB	'form kernels; MCT means multi-component transform; CURVE mean'
	DB	's arbitrary point-transformation; and ROI means extended regi'
	DB	'on-of-interest signalling.', 0aH, 09H, 09H, '[Defaults to 0.]'
	DB	00H						; `string'
CONST	ENDS
;	COMDAT ??_C@_0GI@IJELGHMP@?$FLDC?$DN1?$HMVARQ?$DN2?$HMTCQ?$DN4?$HMPRECQ?$DN2048?$HMVI@
CONST	SEGMENT
??_C@_0GI@IJELGHMP@?$FLDC?$DN1?$HMVARQ?$DN2?$HMTCQ?$DN4?$HMPRECQ?$DN2048?$HMVI@ DB '['
	DB	'DC=1|VARQ=2|TCQ=4|PRECQ=2048|VIS=8|SSO=16|DECOMP=32|ANY_KNL=6'
	DB	'4|SYM_KNL=128|MCT=256|CURVE=512|ROI=1024]', 00H ; `string'
CONST	ENDS
;	COMDAT ??_C@_04JNHDNPF@Scap?$AA@
CONST	SEGMENT
??_C@_04JNHDNPF@Scap?$AA@ DB 'Scap', 00H		; `string'
CONST	ENDS
;	COMDAT ??_C@_0ML@FCKJPFCA@Flag?5indicating?5whether?5or?5not?5c@
CONST	SEGMENT
??_C@_0ML@FCKJPFCA@Flag?5indicating?5whether?5or?5not?5c@ DB 'Flag indica'
	DB	'ting whether or not capabilities from additional parts (beyon'
	DB	'd parts 1 and 2) in the JPEG2000 family of standards are defi'
	DB	'ned in a separate capabilities marker segment.', 0aH, 09H, 09H
	DB	'[Defaults to false.]', 00H			; `string'
CONST	ENDS
;	COMDAT ??_C@_01HMGJMAIH@B?$AA@
CONST	SEGMENT
??_C@_01HMGJMAIH@B?$AA@ DB 'B', 00H			; `string'
CONST	ENDS
;	COMDAT ??_C@_08HFDHOMDN@Sprofile?$AA@
CONST	SEGMENT
??_C@_08HFDHOMDN@Sprofile?$AA@ DB 'Sprofile', 00H	; `string'
CONST	ENDS
;	COMDAT ??_C@_0GIB@OAPGMEGC@Restricted?5profile?5to?5which?5the?5@
CONST	SEGMENT
??_C@_0GIB@OAPGMEGC@Restricted?5profile?5to?5which?5the?5@ DB 'Restricted'
	DB	' profile to which the code-stream conforms.  The value must b'
	DB	'e an integer in the range 0 to 5, corresponding to the identi'
	DB	'fiers `PROFILE0'', `PROFILE1'', `PROFILE2'', `PART2'', `CINEM'
	DB	'A2K'' and `CINEMA4K''.  PROFILE0 is the most restrictive prof'
	DB	'ile for Part 1 conforming codestreams.  PROFILE2 places no re'
	DB	'strictions on the code-stream other than those restrictions d'
	DB	'efined in ISO/IEC 15444-1 (JPEG2000, Part 1).  A value of 3 ('
	DB	'`PART2'') means that the codestream requires support for one '
	DB	'or more features defined in ISO/IEC 15444-2 (JPEG2000, Part 2'
	DB	').  If the system determines that support for Part 2 features'
	DB	' is  required, the profile will be set automatically to 3.  O'
	DB	'therwise, the profile is not adjusted by Kakadu''s codestream'
	DB	' creation machinery.  However, if the profile is found to be '
	DB	'insufficient, the system will generate a warning at the point'
	DB	' where it first encounters an inconsistency; this might not o'
	DB	'ccur until near the end of the processing in certain rare cir'
	DB	'cumstances.  The `CINEMA2K'' (4) and `CINEMA4K'' (5) profiles'
	DB	' were added later via an ammendment to Part 1.  They are in f'
	DB	'act highly restrictive subsets of the Part 1 standard, taylor'
	DB	'ed for the needs of digital cinema projection equipment.  To '
	DB	'be sure that you generate code-stream compatible with one of '
	DB	'the digital cinema profiles, you should use the "Creslengths"'
	DB	' attributes to explicitly constrain the compressed lengths of'
	DB	' resolution/component subsets.  The actual constraints depend'
	DB	' upon the intended frame-rate, as described in the standard. '
	DB	' Some suggestions are provided via a warning message if you f'
	DB	'ail to supply the `Creslengths'' attribute yourself.', 0aH, 09H
	DB	09H, '[Defaults to Profile-2.]', 00H		; `string'
CONST	ENDS
;	COMDAT ??_C@_0EB@MCBBIPAI@?$CIPROFILE0?$DN0?0PROFILE1?$DN1?0PROFILE2?$DN@
CONST	SEGMENT
??_C@_0EB@MCBBIPAI@?$CIPROFILE0?$DN0?0PROFILE1?$DN1?0PROFILE2?$DN@ DB '(P'
	DB	'ROFILE0=0,PROFILE1=1,PROFILE2=2,PART2=3,CINEMA2K=4,CINEMA4K=5'
	DB	')', 00H					; `string'
CONST	ENDS
;	COMDAT ??_C@_03DIBMIDDO@SIZ?$AA@
CONST	SEGMENT
??_C@_03DIBMIDDO@SIZ?$AA@ DB 'SIZ', 00H			; `string'
CONST	ENDS
;	COMDAT ??_C@_0BD@PIKIAENG@component?5index?5is?$AA@
CONST	SEGMENT
??_C@_0BD@PIKIAENG@component?5index?5is?$AA@ DB 'component index is', 00H ; `string'
CONST	ENDS
;	COMDAT ??_C@_02LNAEAIDO@?$DL?5?$AA@
CONST	SEGMENT
??_C@_02LNAEAIDO@?$DL?5?$AA@ DB '; ', 00H		; `string'
CONST	ENDS
;	COMDAT ??_C@_0BD@MMGLAGCF@?5?$CIstarting?5from?50?$CJ?$AA@
CONST	SEGMENT
??_C@_0BD@MMGLAGCF@?5?$CIstarting?5from?50?$CJ?$AA@ DB ' (starting from 0'
	DB	')', 00H					; `string'
CONST	ENDS
;	COMDAT ??_C@_0BA@MNKEPDKJ@?5?$FLi?4e?4?0?5global?$FN?$AA@
CONST	SEGMENT
??_C@_0BA@MNKEPDKJ@?5?$FLi?4e?4?0?5global?$FN?$AA@ DB ' [i.e., global]', 00H ; `string'
CONST	ENDS
;	COMDAT ??_C@_01CLKCMJKC@?5?$AA@
CONST	SEGMENT
??_C@_01CLKCMJKC@?5?$AA@ DB ' ', 00H			; `string'
CONST	ENDS
;	COMDAT ??_C@_0P@DOHDMGMJ@tile?5number?5is?$AA@
CONST	SEGMENT
??_C@_0P@DOHDMGMJ@tile?5number?5is?$AA@ DB 'tile number is', 00H ; `string'
CONST	ENDS
;	COMDAT ??_C@_03GJDKGJIF@?$CC?$DL?5?$AA@
CONST	SEGMENT
??_C@_03GJDKGJIF@?$CC?$DL?5?$AA@ DB '"; ', 00H		; `string'
CONST	ENDS
;	COMDAT ??_C@_0HA@MENEFAMH@Codestream?5contains?5a?5parameter?5@
CONST	SEGMENT
??_C@_0HA@MENEFAMH@Codestream?5contains?5a?5parameter?5@ DB 'Codestream c'
	DB	'ontains a parameter marker segment with an invalid image comp'
	DB	'onent or tile index: parameter type is', 00H ; `string'
CONST	ENDS
;	COMDAT ??_C@_0FM@CALBKEL@Attempting?5to?5delete?5a?5non?9exist@
CONST	SEGMENT
??_C@_0FM@CALBKEL@Attempting?5to?5delete?5a?5non?9exist@ DB 'Attempting t'
	DB	'o delete a non-existent attribute with "kdu_params::delete_un'
	DB	'parsed_attribute".', 00H			; `string'
CONST	ENDS
;	COMDAT ??_C@_0EO@MMDBDEFI@?$CCkdu_params?3?3describe_attribute?$CC@
CONST	SEGMENT
??_C@_0EO@MMDBDEFI@?$CCkdu_params?3?3describe_attribute?$CC@ DB '"kdu_par'
	DB	'ams::describe_attribute" invoked with an invalid attribute id'
	DB	'entifier', 00H				; `string'
CONST	ENDS
;	COMDAT ??_C@_0M@LIKKDBIM@?5of?5record?5?$AA@
CONST	SEGMENT
??_C@_0M@LIKKDBIM@?5of?5record?5?$AA@ DB ' of record ', 00H ; `string'
CONST	ENDS
;	COMDAT ??_C@_09GBLFFAMG@in?5field?5?$AA@
CONST	SEGMENT
??_C@_09GBLFFAMG@in?5field?5?$AA@ DB 'in field ', 00H	; `string'
CONST	ENDS
;	COMDAT ??_C@_0HL@JPCGMMAG@Attempting?5to?5textualize?5a?5code?9@
CONST	SEGMENT
??_C@_0HL@JPCGMMAG@Attempting?5to?5textualize?5a?5code?9@ DB 'Attempting '
	DB	'to textualize a code-stream parameter attribute, which has on'
	DB	'ly partially been set!', 0aH, 'Error occurred in attribute', 00H ; `string'
CONST	ENDS
;	COMDAT ??_C@_01JPJNBJEM@I?$AA@
CONST	SEGMENT
??_C@_01JPJNBJEM@I?$AA@ DB 'I', 00H			; `string'
CONST	ENDS
;	COMDAT ??_C@_01GFHCPBMG@C?$AA@
CONST	SEGMENT
??_C@_01GFHCPBMG@C?$AA@ DB 'C', 00H			; `string'
CONST	ENDS
;	COMDAT ??_C@_01GAPBHFFA@T?$AA@
CONST	SEGMENT
??_C@_01GAPBHFFA@T?$AA@ DB 'T', 00H			; `string'
CONST	ENDS
;	COMDAT ??_C@_0DM@ODMOHKAB@Opening?5brace?5for?5record?5is?5not?5@
CONST	SEGMENT
??_C@_0DM@ODMOHKAB@Opening?5brace?5for?5record?5is?5not?5@ DB 'Opening br'
	DB	'ace for record is not matched by a closing brace.', 00H ; `string'
CONST	ENDS
;	COMDAT ??_C@_0EB@EHIGLBBC@Expected?5a?5boolean?5field?5identif@
CONST	SEGMENT
??_C@_0EB@EHIGLBBC@Expected?5a?5boolean?5field?5identif@ DB 'Expected a b'
	DB	'oolean field identifier, i.e., one of "yes" or "no".', 00H ; `string'
CONST	ENDS
;	COMDAT ??_C@_02KAJCLHKP@no?$AA@
CONST	SEGMENT
??_C@_02KAJCLHKP@no?$AA@ DB 'no', 00H			; `string'
CONST	ENDS
;	COMDAT ??_C@_03ICICOMAL@yes?$AA@
CONST	SEGMENT
??_C@_03ICICOMAL@yes?$AA@ DB 'yes', 00H			; `string'
CONST	ENDS
;	COMDAT ??_C@_0FJ@PANFLKHK@Attempt?5to?5parse?5custom?5string?5r@
CONST	SEGMENT
??_C@_0FJ@PANFLKHK@Attempt?5to?5parse?5custom?5string?5r@ DB 'Attempt to '
	DB	'parse custom string representation failed.  Read usage inform'
	DB	'ation carefully.', 00H			; `string'
CONST	ENDS
;	COMDAT ??_C@_0BL@KODNALJB@Expected?5an?5integer?5field?4?$AA@
CONST	SEGMENT
??_C@_0BL@KODNALJB@Expected?5an?5integer?5field?4?$AA@ DB 'Expected an in'
	DB	'teger field.', 00H				; `string'
CONST	ENDS
;	COMDAT ??_C@_0CB@KHDANEEK@Expected?5a?5floating?5point?5field?4@
CONST	SEGMENT
??_C@_0CB@KHDANEEK@Expected?5a?5floating?5point?5field?4@ DB 'Expected a '
	DB	'floating point field.', 00H			; `string'
CONST	ENDS
;	COMDAT ??_C@_0CE@EELOEALG@Fields?5must?5be?5separated?5by?5comm@
CONST	SEGMENT
??_C@_0CE@EELOEALG@Fields?5must?5be?5separated?5by?5comm@ DB 'Fields must'
	DB	' be separated by commas.', 00H		; `string'
CONST	ENDS
;	COMDAT ??_C@_0DN@ONBLBBIB@Records?5must?5be?5enclosed?5by?5curl@
CONST	SEGMENT
??_C@_0DN@ONBLBBIB@Records?5must?5be?5enclosed?5by?5curl@ DB 'Records mus'
	DB	't be enclosed by curly braces, i.e., ''{'' and ''}''.', 00H ; `string'
CONST	ENDS
;	COMDAT ??_C@_0DH@MBMGHEML@Attribute?5does?5not?5support?5multi@
CONST	SEGMENT
??_C@_0DH@MBMGHEML@Attribute?5does?5not?5support?5multi@ DB 'Attribute do'
	DB	'es not support multiple parameter records!', 00H ; `string'
CONST	ENDS
;	COMDAT ??_C@_0CF@KHIJHBHP@Records?5must?5be?5separated?5by?5com@
CONST	SEGMENT
??_C@_0CF@KHIJHBHP@Records?5must?5be?5separated?5by?5com@ DB 'Records mus'
	DB	't be separated by commas.', 00H		; `string'
CONST	ENDS
;	COMDAT ??_C@_0BH@DPGABFPI@Problem?5encountered?5at?$AA@
CONST	SEGMENT
??_C@_0BH@DPGABFPI@Problem?5encountered?5at?$AA@ DB 'Problem encountered '
	DB	'at', 00H					; `string'
CONST	ENDS
;	COMDAT ??_C@_0JM@LMPOLJGM@refers?5to?5code?9stream?5parameters@
CONST	SEGMENT
??_C@_0JM@LMPOLJGM@refers?5to?5code?9stream?5parameters@ DB 'refers to co'
	DB	'de-stream parameters which have already been parsed out of so'
	DB	'me string.  Moreover, multiple instances of this attribute ar'
	DB	'e not permitted here!', 00H			; `string'
CONST	ENDS
;	COMDAT ??_C@_0BO@NIAMPCJJ@The?5supplied?5attribute?5string?$AA@
CONST	SEGMENT
??_C@_0BO@NIAMPCJJ@The?5supplied?5attribute?5string?$AA@ DB 'The supplied'
	DB	' attribute string', 00H			; `string'
CONST	ENDS
;	COMDAT ??_C@_0GM@BCPIKDJF@Parameter?5values?5must?5be?5separat@
CONST	SEGMENT
??_C@_0GM@BCPIKDJF@Parameter?5values?5must?5be?5separat@ DB 'Parameter va'
	DB	'lues must be separated from the attribute name and optional l'
	DB	'ocation specifiers by an ''='' sign!', 00H	; `string'
CONST	ENDS
;	COMDAT ??_C@_0IG@JNAPNKGG@Attempt?5to?5set?5a?5non?9tile?9specif@
CONST	SEGMENT
??_C@_0IG@JNAPNKGG@Attempt?5to?5set?5a?5non?9tile?9specif@ DB 'Attempt to'
	DB	' set a non-tile-specific code-stream attribute in a specific '
	DB	'component!', 0aH, 'Problem occurred while parsing the attribu'
	DB	'te string', 00H				; `string'
CONST	ENDS
;	COMDAT ??_C@_0CJ@BPCCBEIL@refers?5to?5a?5non?9existent?5tile?9co@
CONST	SEGMENT
??_C@_0CJ@BPCCBEIL@refers?5to?5a?5non?9existent?5tile?9co@ DB 'refers to '
	DB	'a non-existent tile-component!', 00H	; `string'
CONST	ENDS
;	COMDAT ??_C@_0BB@FCCGFNIO@Attribute?5string?$AA@
CONST	SEGMENT
??_C@_0BB@FCCGFNIO@Attribute?5string?$AA@ DB 'Attribute string', 00H ; `string'
CONST	ENDS
;	COMDAT ??_C@_0GI@IAODNOI@This?5type?5of?5parameter?5cannot?5be@
CONST	SEGMENT
??_C@_0GI@IAODNOI@This?5type?5of?5parameter?5cannot?5be@ DB 'This type of'
	DB	' parameter cannot be used with an index specifier (i.e., a sp'
	DB	'ecifier of the form "I<num>").', 00H	; `string'
CONST	ENDS
;	COMDAT ??_C@_0FE@PMHLCCDF@You?5must?5supply?5an?5index?5specifi@
CONST	SEGMENT
??_C@_0FE@PMHLCCDF@You?5must?5supply?5an?5index?5specifi@ DB 'You must su'
	DB	'pply an index specifier of the form "I<num>" for this type of'
	DB	' parameter.', 00H				; `string'
CONST	ENDS
;	COMDAT ??_C@_0NA@FLKOAPNM@Tile?5specifiers?5following?5the?5th@
CONST	SEGMENT
??_C@_0NA@FLKOAPNM@Tile?5specifiers?5following?5the?5th@ DB 'Tile specifi'
	DB	'ers following the the colon must have the form "T<num>", whil'
	DB	'e component specifiers must have the form "C<num>" and index '
	DB	'specifiers must have the form "I<num>". There may be at most '
	DB	'one of each!', 00H				; `string'
CONST	ENDS
;	COMDAT ??_C@_0DN@JMPBALKA@Malformed?5location?5specifier?5enc@
CONST	SEGMENT
??_C@_0DN@JMPBALKA@Malformed?5location?5specifier?5enc@ DB 'Malformed loc'
	DB	'ation specifier encountered in attribute string', 00H ; `string'
CONST	ENDS
;	COMDAT ??_C@_0GO@DPHCDBCK@?6Parameter?5values?5must?5be?5separa@
CONST	SEGMENT
??_C@_0GO@DPHCDBCK@?6Parameter?5values?5must?5be?5separa@ DB 0aH, 'Parame'
	DB	'ter values must be separated from the attribute name and opti'
	DB	'onal location specifiers by an ''='' sign!', 0aH, 00H ; `string'
CONST	ENDS
;	COMDAT ??_C@_0BK@DEPOJPCI@is?5missing?5parameters?3?6?6?7?$AA@
CONST	SEGMENT
??_C@_0BK@DEPOJPCI@is?5missing?5parameters?3?6?6?7?$AA@ DB 'is missing pa'
	DB	'rameters:', 0aH, 0aH, 09H, 00H		; `string'
CONST	ENDS
;	COMDAT ??_C@_02KOPDJAMB@?$CC?5?$AA@
CONST	SEGMENT
??_C@_02KOPDJAMB@?$CC?5?$AA@ DB '" ', 00H		; `string'
CONST	ENDS
;	COMDAT ??_C@_09EIDFECNJ@Attribute?$AA@
CONST	SEGMENT
??_C@_09EIDFECNJ@Attribute?$AA@ DB 'Attribute', 00H	; `string'
CONST	ENDS
;	COMDAT ??_C@_0CE@NNLGGFEF@White?5space?5characters?5are?5illeg@
CONST	SEGMENT
??_C@_0CE@NNLGGFEF@White?5space?5characters?5are?5illeg@ DB 'White space '
	DB	'characters are illegal!', 00H		; `string'
CONST	ENDS
;	COMDAT ??_C@_03BHOAIDAL@?$CC?$CB?6?$AA@
CONST	SEGMENT
??_C@_03BHOAIDAL@?$CC?$CB?6?$AA@ DB '"!', 0aH, 00H	; `string'
CONST	ENDS
;	COMDAT ??_C@_0BL@HMOBPPGB@Malformed?5attribute?5string?$AA@
CONST	SEGMENT
??_C@_0BL@HMOBPPGB@Malformed?5attribute?5string?$AA@ DB 'Malformed attrib'
	DB	'ute string', 00H				; `string'
CONST	ENDS
;	COMDAT ??_C@_0DE@NFMHJCHA@supplied?5to?5the?5?$GAkdu_params?3?3set@
CONST	SEGMENT
??_C@_0DE@NFMHJCHA@supplied?5to?5the?5?$GAkdu_params?3?3set@ DB 'supplied'
	DB	' to the `kdu_params::set_derived'' function.', 00H ; `string'
CONST	ENDS
;	COMDAT ??_C@_03HAFDNMHA@?$CC?0?5?$AA@
CONST	SEGMENT
??_C@_03HAFDNMHA@?$CC?0?5?$AA@ DB '", ', 00H		; `string'
CONST	ENDS
;	COMDAT ??_C@_0BH@HIFAHFHM@Invalid?5attribute?5name?$AA@
CONST	SEGMENT
??_C@_0BH@HIFAHFHM@Invalid?5attribute?5name?$AA@ DB 'Invalid attribute na'
	DB	'me', 00H					; `string'
CONST	ENDS
;	COMDAT ??_C@_0IA@DFMOHAGA@Attempting?5to?5set?5an?5integer?5cod@
CONST	SEGMENT
??_C@_0IA@DFMOHAGA@Attempting?5to?5set?5an?5integer?5cod@ DB 'Attempting '
	DB	'to set an integer code-stream parameter attribute field with '
	DB	'the floating point access method!', 0aH, 'The attribute name '
	DB	'is', 00H					; `string'
CONST	ENDS
;	COMDAT ??_C@_0HM@KMNJIEPO@Attempting?5to?5set?5a?5non?9boolean?5@
CONST	SEGMENT
??_C@_0HM@KMNJIEPO@Attempting?5to?5set?5a?5non?9boolean?5@ DB 'Attempting'
	DB	' to set a non-boolean code-stream parameter attribute field w'
	DB	'ith the boolean access method!', 0aH, 'The attribute name is', 00H ; `string'
CONST	ENDS
;	COMDAT ??_C@_0JJ@BKCJHECD@Attempting?5to?5set?5a?5code?9stream?5@
CONST	SEGMENT
??_C@_0JJ@BKCJHECD@Attempting?5to?5set?5a?5code?9stream?5@ DB 'Attempting'
	DB	' to set a code-stream attribute field using an integer value '
	DB	'which is incompatible with the flags defined for the field!', 0aH
	DB	'The attribute name is', 00H			; `string'
CONST	ENDS
;	COMDAT ??_C@_0KH@JEELPMNH@Attempting?5to?5set?5a?5code?9stream?5@
CONST	SEGMENT
??_C@_0KH@JEELPMNH@Attempting?5to?5set?5a?5code?9stream?5@ DB 'Attempting'
	DB	' to set a code-stream attribute field using an integer value '
	DB	'which does not match any of the defined translation values fo'
	DB	'r the field!', 0aH, 'The attribute name is', 00H ; `string'
CONST	ENDS
;	COMDAT ??_C@_0HN@MGKBDNAF@Attempting?5to?5set?5a?5boolean?5code@
CONST	SEGMENT
??_C@_0HN@MGKBDNAF@Attempting?5to?5set?5a?5boolean?5code@ DB 'Attempting '
	DB	'to set a boolean code-stream parameter attribute field with a'
	DB	'n integer not equal to 0 or 1!', 0aH, 'The attribute name is', 00H ; `string'
CONST	ENDS
;	COMDAT ??_C@_0HP@BOHKEADG@Attempting?5to?5set?5a?5floating?5poi@
CONST	SEGMENT
??_C@_0HP@BOHKEADG@Attempting?5to?5set?5a?5floating?5poi@ DB 'Attempting '
	DB	'to set a floating point code-stream parameter attribute field'
	DB	' with the integer access method!', 0aH, 'The attribute name i'
	DB	's', 00H					; `string'
CONST	ENDS
;	COMDAT ??_C@_0FL@DIDANAGC@Attempt?5to?5set?5a?5code?9stream?5att@
CONST	SEGMENT
??_C@_0FL@DIDANAGC@Attempt?5to?5set?5a?5code?9stream?5att@ DB 'Attempt to'
	DB	' set a code-stream attribute, with an invalid field index!', 0aH
	DB	'The attribute name is', 00H			; `string'
CONST	ENDS
;	COMDAT ??_C@_0GI@PNBMMBJE@Attempt?5to?5set?5a?5non?9tile?9specif@
CONST	SEGMENT
??_C@_0GI@PNBMMBJE@Attempt?5to?5set?5a?5non?9tile?9specif@ DB 'Attempt to'
	DB	' set a non-tile-specific code-stream attribute in a specific '
	DB	'component!', 0aH, 'The attribute name is', 00H ; `string'
CONST	ENDS
;	COMDAT ??_C@_0DO@JOGJAIGA@Attempt?5to?5set?5a?5code?9stream?5att@
CONST	SEGMENT
??_C@_0DO@JOGJAIGA@Attempt?5to?5set?5a?5code?9stream?5att@ DB 'Attempt to'
	DB	' set a code-stream attribute using the invalid name', 00H ; `string'
CONST	ENDS
;	COMDAT ??_C@_0ID@NIKNNMAJ@Attempting?5to?5access?5an?5integer?5@
CONST	SEGMENT
??_C@_0ID@NIKNNMAJ@Attempting?5to?5access?5an?5integer?5@ DB 'Attempting '
	DB	'to access an integer code-stream parameter attribute field wi'
	DB	'th the floating point access method!', 0aH, 'The attribute na'
	DB	'me is', 00H					; `string'
CONST	ENDS
;	COMDAT ??_C@_0HF@JLGEHIN@Attempting?5to?5access?5a?5non?9boole@
CONST	SEGMENT
??_C@_0HF@JLGEHIN@Attempting?5to?5access?5a?5non?9boole@ DB 'Attempting t'
	DB	'o access a non-boolean code-stream attribute field with the b'
	DB	'oolean access method!', 0aH, 'The attribute name is', 00H ; `string'
CONST	ENDS
;	COMDAT ??_C@_0HI@GBKDDDEC@Attempting?5to?5access?5a?5floating?5@
CONST	SEGMENT
??_C@_0HI@GBKDDDEC@Attempting?5to?5access?5a?5floating?5@ DB 'Attempting '
	DB	'to access a floating point code-stream attribute field with t'
	DB	'he integer access method!', 0aH, 'The attribute name is', 00H ; `string'
CONST	ENDS
;	COMDAT ??_C@_01LFCBOECM@?4?$AA@
CONST	SEGMENT
??_C@_01LFCBOECM@?4?$AA@ DB '.', 00H			; `string'
CONST	ENDS
;	COMDAT ??_C@_0BE@NMPECGEH@The?5field?5index?5is?5?$AA@
CONST	SEGMENT
??_C@_0BE@NMPECGEH@The?5field?5index?5is?5?$AA@ DB 'The field index is ', 00H ; `string'
CONST	ENDS
;	COMDAT ??_C@_03BMLMMEDG@?$CC?4?6?$AA@
CONST	SEGMENT
??_C@_03BMLMMEDG@?$CC?4?6?$AA@ DB '".', 0aH, 00H	; `string'
CONST	ENDS
;	COMDAT ??_C@_02JPEBCGCN@?5?$CC?$AA@
CONST	SEGMENT
??_C@_02JPEBCGCN@?5?$CC?$AA@ DB ' "', 00H		; `string'
CONST	ENDS
;	COMDAT ??_C@_0FO@BDPPHOIA@Attempt?5to?5access?5a?5code?9stream?5@
CONST	SEGMENT
??_C@_0FO@BDPPHOIA@Attempt?5to?5access?5a?5code?9stream?5@ DB 'Attempt to'
	DB	' access a code-stream attribute, with an invalid field index!'
	DB	0aH, 'The attribute name is', 00H		; `string'
CONST	ENDS
;	COMDAT ??_C@_02LHOIKBIA@?$CC?$CB?$AA@
CONST	SEGMENT
??_C@_02LHOIKBIA@?$CC?$CB?$AA@ DB '"!', 00H		; `string'
CONST	ENDS
;	COMDAT ??_C@_0EB@JLDBDJJO@Attempt?5to?5access?5a?5code?9stream?5@
CONST	SEGMENT
??_C@_0EB@JLDBDJJO@Attempt?5to?5access?5a?5code?9stream?5@ DB 'Attempt to'
	DB	' access a code-stream attribute using the invalid name', 00H ; `string'
CONST	ENDS
;	COMDAT ??_C@_0EB@KNIJAOBN@Invalid?5?$GAtile_idx?8?5supplied?5to?5?$GA@
CONST	SEGMENT
??_C@_0EB@KNIJAOBN@Invalid?5?$GAtile_idx?8?5supplied?5to?5?$GA@ DB 'Inval'
	DB	'id `tile_idx'' supplied to `kdu_params::check_typical_tile''.'
	DB	00H						; `string'
CONST	ENDS
;	COMDAT ??_C@_0JH@PHOILHHH@Trying?5to?5use?5?$GAkdu_params?3?3copy_@
CONST	SEGMENT
??_C@_0JH@PHOILHHH@Trying?5to?5use?5?$GAkdu_params?3?3copy_@ DB 'Trying t'
	DB	'o use `kdu_params::copy_all'' to copy an object which is not '
	DB	'a cluster head, or to copy to another object which is not the'
	DB	' head of its cluster.', 00H			; `string'
CONST	ENDS
;	COMDAT ??_C@_0GC@FAEHIHF@Trying?5to?5use?5?$GAkdu_params?3?3copy_@
CONST	SEGMENT
??_C@_0GC@FAEHIHF@Trying?5to?5use?5?$GAkdu_params?3?3copy_@ DB 'Trying to'
	DB	' use `kdu_params::copy_all'' to copy an object to one which h'
	DB	'as been derived differently.', 00H		; `string'
CONST	ENDS
;	COMDAT ??_C@_0EP@FFHPHGIF@Illegal?5attempt?5to?5modify?5a?5?$GAkdu@
CONST	SEGMENT
??_C@_0EP@FFHPHGIF@Illegal?5attempt?5to?5modify?5a?5?$GAkdu@ DB 'Illegal '
	DB	'attempt to modify a `kdu_params'' object which has already be'
	DB	'en marked!', 00H				; `string'
CONST	ENDS
;	COMDAT ??_C@_0JI@GAIBBJLH@Trying?5to?5use?5?$GAkdu_params?3?3copy_@
CONST	SEGMENT
??_C@_0JI@GAIBBJLH@Trying?5to?5use?5?$GAkdu_params?3?3copy_@ DB 'Trying t'
	DB	'o use `kdu_params::copy_from'' to copy an object which is not'
	DB	' a cluster head, or to copy to another object which is not th'
	DB	'e head of its cluster.', 00H		; `string'
CONST	ENDS
;	COMDAT ??_C@_0GD@HANNBBLP@Trying?5to?5use?5?$GAkdu_params?3?3copy_@
CONST	SEGMENT
??_C@_0GD@HANNBBLP@Trying?5to?5use?5?$GAkdu_params?3?3copy_@ DB 'Trying t'
	DB	'o use `kdu_params::copy_from'' to copy an object to one which'
	DB	' has been derived differently.', 00H	; `string'
CONST	ENDS
;	COMDAT ??_C@_0KA@FKBGPIEK@Call?5to?5?$GAkdu_params?3?3link?8?5speci@
CONST	SEGMENT
??_C@_0KA@FKBGPIEK@Call?5to?5?$GAkdu_params?3?3link?8?5speci@ DB 'Call to'
	DB	' `kdu_params::link'' specifies the same cluster name, tile an'
	DB	'd component indices as an existing linked object, which does '
	DB	'not support multiple instances.', 00H	; `string'
CONST	ENDS
;	COMDAT ??_C@_0KB@EJFHGKHN@Call?5to?5?$GAkdu_params?3?3link?8?5speci@
CONST	SEGMENT
??_C@_0KB@EJFHGKHN@Call?5to?5?$GAkdu_params?3?3link?8?5speci@ DB 'Call to'
	DB	' `kdu_params::link'' specifies a different number of tiles or'
	DB	' components to the number with which the first parameter obje'
	DB	'ct of the same class was linked.', 00H	; `string'
CONST	ENDS
;	COMDAT ??_C@_0OO@BFNLONCD@Illegal?5tile?5or?5component?5indice@
CONST	SEGMENT
??_C@_0OO@BFNLONCD@Illegal?5tile?5or?5component?5indice@ DB 'Illegal tile'
	DB	' or component indices supplied to `kdu_params::link''.  Proba'
	DB	'bly attempting to specialize a parameter object to a specific'
	DB	' tile or component, where the parameter class in questions do'
	DB	'es not support tile or component diversity.', 00H ; `string'
CONST	ENDS
;	COMDAT ??_C@_01GPOEFGEJ@?7?$AA@
CONST	SEGMENT
??_C@_01GPOEFGEJ@?7?$AA@ DB 09H, 00H			; `string'
CONST	ENDS
;	COMDAT ??_C@_01EEMJAFIK@?6?$AA@
CONST	SEGMENT
??_C@_01EEMJAFIK@?6?$AA@ DB 0aH, 00H			; `string'
CONST	ENDS
;	COMDAT ??_C@_05MIHDFBBJ@?0?4?4?4?6?$AA@
CONST	SEGMENT
??_C@_05MIHDFBBJ@?0?4?4?4?6?$AA@ DB ',...', 0aH, 00H	; `string'
CONST	ENDS
;	COMDAT ??_C@_01CELHOKLL@?$HN?$AA@
CONST	SEGMENT
??_C@_01CELHOKLL@?$HN?$AA@ DB '}', 00H			; `string'
CONST	ENDS
;	COMDAT ??_C@_06EDILFCLO@FLAGS?$DM?$AA@
CONST	SEGMENT
??_C@_06EDILFCLO@FLAGS?$DM?$AA@ DB 'FLAGS<', 00H	; `string'
CONST	ENDS
;	COMDAT ??_C@_01PPODPGHN@?$DO?$AA@
CONST	SEGMENT
??_C@_01PPODPGHN@?$DO?$AA@ DB '>', 00H			; `string'
CONST	ENDS
;	COMDAT ??_C@_05BAJLLFH@ENUM?$DM?$AA@
CONST	SEGMENT
??_C@_05BAJLLFH@ENUM?$DM?$AA@ DB 'ENUM<', 00H		; `string'
CONST	ENDS
;	COMDAT ??_C@_0N@LECANFFL@?$DMcustom?5int?$DO?$AA@
CONST	SEGMENT
??_C@_0N@LECANFFL@?$DMcustom?5int?$DO?$AA@ DB '<custom int>', 00H ; `string'
CONST	ENDS
;	COMDAT ??_C@_07FFCKHLFB@?$DMfloat?$DO?$AA@
CONST	SEGMENT
??_C@_07FFCKHLFB@?$DMfloat?$DO?$AA@ DB '<float>', 00H	; `string'
CONST	ENDS
;	COMDAT ??_C@_08KMPCOBIE@?$DMyes?1no?$DO?$AA@
CONST	SEGMENT
??_C@_08KMPCOBIE@?$DMyes?1no?$DO?$AA@ DB '<yes/no>', 00H ; `string'
CONST	ENDS
;	COMDAT ??_C@_05GAGDNHHH@?$DMint?$DO?$AA@
CONST	SEGMENT
??_C@_05GAGDNHHH@?$DMint?$DO?$AA@ DB '<int>', 00H	; `string'
CONST	ENDS
;	COMDAT ??_C@_01IHBHIGKO@?0?$AA@
CONST	SEGMENT
??_C@_01IHBHIGKO@?0?$AA@ DB ',', 00H			; `string'
CONST	ENDS
;	COMDAT ??_C@_04PONDAPIE@?$DO?$FN?$DN?$HL?$AA@
CONST	SEGMENT
??_C@_04PONDAPIE@?$DO?$FN?$DN?$HL?$AA@ DB '>]={', 00H	; `string'
CONST	ENDS
;	COMDAT ??_C@_03JILILBPJ@?$FL?3?$DM?$AA@
CONST	SEGMENT
??_C@_03JILILBPJ@?$FL?3?$DM?$AA@ DB '[:<', 00H		; `string'
CONST	ENDS
;	COMDAT ??_C@_02OAMGPABD@?$DN?$HL?$AA@
CONST	SEGMENT
??_C@_02OAMGPABD@?$DN?$HL?$AA@ DB '={', 00H		; `string'
CONST	ENDS
;	COMDAT ??_C@_0CM@EMGKNDJI@?$CC?0?5which?5can?5accept?5only?5single?5@
CONST	SEGMENT
??_C@_0CM@EMGKNDJI@?$CC?0?5which?5can?5accept?5only?5single?5@ DB '", whi'
	DB	'ch can accept only single attributes!', 00H	; `string'
CONST	ENDS
;	COMDAT ??_C@_03KLKADAKF@?0?5?$CC?$AA@
CONST	SEGMENT
??_C@_03KLKADAKF@?0?5?$CC?$AA@ DB ', "', 00H		; `string'
CONST	ENDS
;	COMDAT ??_C@_0EA@NIBLGMMC@Attempting?5to?5write?5multiple?5rec@
CONST	SEGMENT
??_C@_0EA@NIBLGMMC@Attempting?5to?5write?5multiple?5rec@ DB 'Attempting t'
	DB	'o write multiple records to a code-stream attribute', 00H ; `string'
CONST	ENDS
;	COMDAT __CT??_R0PAD@84
xdata$x	SEGMENT
__CT??_R0PAD@84 DD 01H
	DD	FLAT:??_R0PAD@8
	DD	00H
	DD	0ffffffffH
	ORG $+4
	DD	04H
	DD	00H
xdata$x	ENDS
;	COMDAT ??_R0PAD@8
data$r	SEGMENT
??_R0PAD@8 DD	FLAT:??_7type_info@@6B@			; char * `RTTI Type Descriptor'
	DD	00H
	DB	'.PAD', 00H
data$r	ENDS
;	COMDAT __CTA2PAD
xdata$x	SEGMENT
__CTA2PAD DD	02H
	DD	FLAT:__CT??_R0PAD@84
	DD	FLAT:__CT??_R0PAX@84
xdata$x	ENDS
;	COMDAT __TI2CPAD
xdata$x	SEGMENT
__TI2CPAD DD	01H
	DD	00H
	DD	00H
	DD	FLAT:__CTA2PAD
xdata$x	ENDS
;	COMDAT ??_C@_0L@ELEFPJIC@Qabs_steps?$AA@
CONST	SEGMENT
??_C@_0L@ELEFPJIC@Qabs_steps?$AA@ DB 'Qabs_steps', 00H	; `string'
CONST	ENDS
;	COMDAT ??_C@_0M@FADGJEKJ@Qabs_ranges?$AA@
CONST	SEGMENT
??_C@_0M@FADGJEKJ@Qabs_ranges?$AA@ DB 'Qabs_ranges', 00H ; `string'
CONST	ENDS
;	COMDAT ??_C@_07MIOINIMK@Cdecomp?$AA@
CONST	SEGMENT
??_C@_07MIOINIMK@Cdecomp?$AA@ DB 'Cdecomp', 00H		; `string'
CONST	ENDS
;	COMDAT ??_C@_07KKABNIJP@Kcoeffs?$AA@
CONST	SEGMENT
??_C@_07KKABNIJP@Kcoeffs?$AA@ DB 'Kcoeffs', 00H		; `string'
CONST	ENDS
;	COMDAT ??_C@_06PJGAHNDG@Ksteps?$AA@
CONST	SEGMENT
??_C@_06PJGAHNDG@Ksteps?$AA@ DB 'Ksteps', 00H		; `string'
CONST	ENDS
;	COMDAT ??_C@_08IDCJHBJK@Ckernels?$AA@
CONST	SEGMENT
??_C@_08IDCJHBJK@Ckernels?$AA@ DB 'Ckernels', 00H	; `string'
CONST	ENDS
;	COMDAT ??_C@_0BN@BJKINHLE@?$CC?0?5separated?5by?5?$GA?$HM?8?5symbols?4?$AA@
CONST	SEGMENT
??_C@_0BN@BJKINHLE@?$CC?0?5separated?5by?5?$GA?$HM?8?5symbols?4?$AA@ DB '"'
	DB	', separated by `|'' symbols.', 00H		; `string'
CONST	ENDS
;	COMDAT ??_C@_0CK@HEDJDDBK@Expected?5one?5or?5more?5of?5the?5iden@
CONST	SEGMENT
??_C@_0CK@HEDJDDBK@Expected?5one?5or?5more?5of?5the?5iden@ DB 'Expected o'
	DB	'ne or more of the identifiers, ', 00H	; `string'
CONST	ENDS
;	COMDAT ??_C@_04FJKIFICP@?5or?5?$AA@
CONST	SEGMENT
??_C@_04FJKIFICP@?5or?5?$AA@ DB ' or ', 00H		; `string'
CONST	ENDS
;	COMDAT ??_C@_01BJJEKLCA@?$CC?$AA@
CONST	SEGMENT
??_C@_01BJJEKLCA@?$CC?$AA@ DB '"', 00H			; `string'
CONST	ENDS
;	COMDAT ??_C@_02KEGNLNML@?0?5?$AA@
CONST	SEGMENT
??_C@_02KEGNLNML@?0?5?$AA@ DB ', ', 00H			; `string'
CONST	ENDS
;	COMDAT ??_C@_0CC@LLCJBDHK@Expected?5one?5of?5the?5identifiers?0@
CONST	SEGMENT
??_C@_0CC@LLCJBDHK@Expected?5one?5of?5the?5identifiers?0@ DB 'Expected on'
	DB	'e of the identifiers, ', 00H		; `string'
CONST	ENDS
;	COMDAT ??_C@_0IM@FCIPKKGG@String?5translators?5in?5code?9strea@
CONST	SEGMENT
??_C@_0IM@FCIPKKGG@String?5translators?5in?5code?9strea@ DB 'String trans'
	DB	'lators in code-stream attribute specifications must be identi'
	DB	'fied with integers and correctly delimited! Problem encounter'
	DB	'ed at', 00H					; `string'
CONST	ENDS
;	COMDAT ??_C@_0CO@KGDOBALG@?5characters?5in?5length?$CB?5Problem?5e@
CONST	SEGMENT
??_C@_0CO@KGDOBALG@?5characters?5in?5length?$CB?5Problem?5e@ DB ' charact'
	DB	'ers in length! Problem encountered at', 00H	; `string'
CONST	ENDS
;	COMDAT ??_C@_0EL@BICNPJDD@String?5translators?5in?5code?9strea@
CONST	SEGMENT
??_C@_0EL@BICNPJDD@String?5translators?5in?5code?9strea@ DB 'String trans'
	DB	'lators in code-stream attribute specifications may not exceed'
	DB	' ', 00H					; `string'
CONST	ENDS
;	COMDAT ??_C@_02DAHALNEP@?$CC?4?$AA@
CONST	SEGMENT
??_C@_02DAHALNEP@?$CC?4?$AA@ DB '".', 00H		; `string'
CONST	ENDS
;	COMDAT ??_C@_03NONCDIOG@?3?5?$CC?$AA@
CONST	SEGMENT
??_C@_03NONCDIOG@?3?5?$CC?$AA@ DB ': "', 00H		; `string'
CONST	ENDS
;	COMDAT ??_C@_0GM@JHCOHHHI@String?5translators?5in?5code?9strea@
CONST	SEGMENT
??_C@_0GM@JHCOHHHI@String?5translators?5in?5code?9strea@ DB 'String trans'
	DB	'lators in code-stream attribute specifications must contain a'
	DB	'n ''='' sign! Problem encountered at', 00H	; `string'
CONST	ENDS
;	COMDAT ??_C@_0DM@BIIABMGK@Absolute?5quantization?5step?5sizes@
CONST	SEGMENT
??_C@_0DM@BIIABMGK@Absolute?5quantization?5step?5sizes@ DB 'Absolute quan'
	DB	'tization step sizes must be strictly positive.', 00H ; `string'
CONST	ENDS
;	COMDAT ??_C@_0BE@KMIJLGEL@Kakadu?5Core?5Error?3?6?$AA@
CONST	SEGMENT
??_C@_0BE@KMIJLGEL@Kakadu?5Core?5Error?3?6?$AA@ DB 'Kakadu Core Error:', 0aH
	DB	00H						; `string'
CONST	ENDS
;	COMDAT ??_7org_params@@6B@
CONST	SEGMENT
??_7org_params@@6B@ DD FLAT:??_R4org_params@@6B@	; org_params::`vftable'
	DD	FLAT:?new_object@org_params@@MAEPAVkdu_params@@XZ
	DD	FLAT:??_Eorg_params@@UAEPAXI@Z
	DD	FLAT:?copy_with_xforms@org_params@@MAEXPAVkdu_params@@HH_N11@Z
	DD	FLAT:?write_marker_segment@kdu_params@@MAEHPAVkdu_output@@PAV1@H@Z
	DD	FLAT:?check_marker_segment@org_params@@MAE_NGHQAEAAH@Z
	DD	FLAT:?read_marker_segment@org_params@@MAE_NGHQAEH@Z
	DD	FLAT:?custom_parse_field@kdu_params@@UAEHPBD0HAAH@Z
	DD	FLAT:?custom_textualize_field@kdu_params@@UAEXAAVkdu_message@@PBDHH@Z
	DD	FLAT:?finalize@kdu_params@@UAEX_N@Z
CONST	ENDS
;	COMDAT ??_7crg_params@@6B@
CONST	SEGMENT
??_7crg_params@@6B@ DD FLAT:??_R4crg_params@@6B@	; crg_params::`vftable'
	DD	FLAT:?new_object@crg_params@@MAEPAVkdu_params@@XZ
	DD	FLAT:??_Ecrg_params@@UAEPAXI@Z
	DD	FLAT:?copy_with_xforms@crg_params@@MAEXPAVkdu_params@@HH_N11@Z
	DD	FLAT:?write_marker_segment@crg_params@@MAEHPAVkdu_output@@PAVkdu_params@@H@Z
	DD	FLAT:?check_marker_segment@crg_params@@MAE_NGHQAEAAH@Z
	DD	FLAT:?read_marker_segment@crg_params@@MAE_NGHQAEH@Z
	DD	FLAT:?custom_parse_field@kdu_params@@UAEHPBD0HAAH@Z
	DD	FLAT:?custom_textualize_field@kdu_params@@UAEXAAVkdu_message@@PBDHH@Z
	DD	FLAT:?finalize@kdu_params@@UAEX_N@Z
CONST	ENDS
;	COMDAT ??_7poc_params@@6B@
CONST	SEGMENT
??_7poc_params@@6B@ DD FLAT:??_R4poc_params@@6B@	; poc_params::`vftable'
	DD	FLAT:?new_object@poc_params@@MAEPAVkdu_params@@XZ
	DD	FLAT:??_Epoc_params@@UAEPAXI@Z
	DD	FLAT:?copy_with_xforms@poc_params@@MAEXPAVkdu_params@@HH_N11@Z
	DD	FLAT:?write_marker_segment@poc_params@@MAEHPAVkdu_output@@PAVkdu_params@@H@Z
	DD	FLAT:?check_marker_segment@poc_params@@MAE_NGHQAEAAH@Z
	DD	FLAT:?read_marker_segment@poc_params@@MAE_NGHQAEH@Z
	DD	FLAT:?custom_parse_field@kdu_params@@UAEHPBD0HAAH@Z
	DD	FLAT:?custom_textualize_field@kdu_params@@UAEXAAVkdu_message@@PBDHH@Z
	DD	FLAT:?finalize@kdu_params@@UAEX_N@Z
CONST	ENDS
;	COMDAT ??_7rgn_params@@6B@
CONST	SEGMENT
??_7rgn_params@@6B@ DD FLAT:??_R4rgn_params@@6B@	; rgn_params::`vftable'
	DD	FLAT:?new_object@rgn_params@@MAEPAVkdu_params@@XZ
	DD	FLAT:??_Ergn_params@@UAEPAXI@Z
	DD	FLAT:?copy_with_xforms@rgn_params@@MAEXPAVkdu_params@@HH_N11@Z
	DD	FLAT:?write_marker_segment@rgn_params@@MAEHPAVkdu_output@@PAVkdu_params@@H@Z
	DD	FLAT:?check_marker_segment@rgn_params@@MAE_NGHQAEAAH@Z
	DD	FLAT:?read_marker_segment@rgn_params@@MAE_NGHQAEH@Z
	DD	FLAT:?custom_parse_field@kdu_params@@UAEHPBD0HAAH@Z
	DD	FLAT:?custom_textualize_field@kdu_params@@UAEXAAVkdu_message@@PBDHH@Z
	DD	FLAT:?finalize@rgn_params@@MAEX_N@Z
CONST	ENDS
;	COMDAT ??_7qcd_params@@6B@
CONST	SEGMENT
??_7qcd_params@@6B@ DD FLAT:??_R4qcd_params@@6B@	; qcd_params::`vftable'
	DD	FLAT:?new_object@qcd_params@@MAEPAVkdu_params@@XZ
	DD	FLAT:??_Eqcd_params@@UAEPAXI@Z
	DD	FLAT:?copy_with_xforms@qcd_params@@MAEXPAVkdu_params@@HH_N11@Z
	DD	FLAT:?write_marker_segment@qcd_params@@MAEHPAVkdu_output@@PAVkdu_params@@H@Z
	DD	FLAT:?check_marker_segment@qcd_params@@MAE_NGHQAEAAH@Z
	DD	FLAT:?read_marker_segment@qcd_params@@MAE_NGHQAEH@Z
	DD	FLAT:?custom_parse_field@kdu_params@@UAEHPBD0HAAH@Z
	DD	FLAT:?custom_textualize_field@kdu_params@@UAEXAAVkdu_message@@PBDHH@Z
	DD	FLAT:?finalize@qcd_params@@MAEX_N@Z
CONST	ENDS
;	COMDAT ??_7dfs_params@@6B@
CONST	SEGMENT
??_7dfs_params@@6B@ DD FLAT:??_R4dfs_params@@6B@	; dfs_params::`vftable'
	DD	FLAT:?new_object@dfs_params@@MAEPAVkdu_params@@XZ
	DD	FLAT:??_Edfs_params@@UAEPAXI@Z
	DD	FLAT:?copy_with_xforms@dfs_params@@MAEXPAVkdu_params@@HH_N11@Z
	DD	FLAT:?write_marker_segment@dfs_params@@MAEHPAVkdu_output@@PAVkdu_params@@H@Z
	DD	FLAT:?check_marker_segment@dfs_params@@MAE_NGHQAEAAH@Z
	DD	FLAT:?read_marker_segment@dfs_params@@MAE_NGHQAEH@Z
	DD	FLAT:?custom_parse_field@kdu_params@@UAEHPBD0HAAH@Z
	DD	FLAT:?custom_textualize_field@kdu_params@@UAEXAAVkdu_message@@PBDHH@Z
	DD	FLAT:?finalize@dfs_params@@MAEX_N@Z
CONST	ENDS
;	COMDAT ??_7ads_params@@6B@
CONST	SEGMENT
??_7ads_params@@6B@ DD FLAT:??_R4ads_params@@6B@	; ads_params::`vftable'
	DD	FLAT:?new_object@ads_params@@MAEPAVkdu_params@@XZ
	DD	FLAT:??_Eads_params@@UAEPAXI@Z
	DD	FLAT:?copy_with_xforms@ads_params@@MAEXPAVkdu_params@@HH_N11@Z
	DD	FLAT:?write_marker_segment@ads_params@@MAEHPAVkdu_output@@PAVkdu_params@@H@Z
	DD	FLAT:?check_marker_segment@ads_params@@MAE_NGHQAEAAH@Z
	DD	FLAT:?read_marker_segment@ads_params@@MAE_NGHQAEH@Z
	DD	FLAT:?custom_parse_field@kdu_params@@UAEHPBD0HAAH@Z
	DD	FLAT:?custom_textualize_field@ads_params@@MAEXAAVkdu_message@@PBDHH@Z
	DD	FLAT:?finalize@ads_params@@MAEX_N@Z
CONST	ENDS
;	COMDAT ??_7cod_params@@6B@
CONST	SEGMENT
??_7cod_params@@6B@ DD FLAT:??_R4cod_params@@6B@	; cod_params::`vftable'
	DD	FLAT:?new_object@cod_params@@MAEPAVkdu_params@@XZ
	DD	FLAT:??_Ecod_params@@UAEPAXI@Z
	DD	FLAT:?copy_with_xforms@cod_params@@MAEXPAVkdu_params@@HH_N11@Z
	DD	FLAT:?write_marker_segment@cod_params@@MAEHPAVkdu_output@@PAVkdu_params@@H@Z
	DD	FLAT:?check_marker_segment@cod_params@@MAE_NGHQAEAAH@Z
	DD	FLAT:?read_marker_segment@cod_params@@MAE_NGHQAEH@Z
	DD	FLAT:?custom_parse_field@cod_params@@MAEHPBD0HAAH@Z
	DD	FLAT:?custom_textualize_field@cod_params@@MAEXAAVkdu_message@@PBDHH@Z
	DD	FLAT:?finalize@cod_params@@MAEX_N@Z
CONST	ENDS
;	COMDAT ??_7atk_params@@6B@
CONST	SEGMENT
??_7atk_params@@6B@ DD FLAT:??_R4atk_params@@6B@	; atk_params::`vftable'
	DD	FLAT:?new_object@atk_params@@MAEPAVkdu_params@@XZ
	DD	FLAT:??_Eatk_params@@UAEPAXI@Z
	DD	FLAT:?copy_with_xforms@atk_params@@MAEXPAVkdu_params@@HH_N11@Z
	DD	FLAT:?write_marker_segment@atk_params@@MAEHPAVkdu_output@@PAVkdu_params@@H@Z
	DD	FLAT:?check_marker_segment@atk_params@@MAE_NGHQAEAAH@Z
	DD	FLAT:?read_marker_segment@atk_params@@MAE_NGHQAEH@Z
	DD	FLAT:?custom_parse_field@kdu_params@@UAEHPBD0HAAH@Z
	DD	FLAT:?custom_textualize_field@kdu_params@@UAEXAAVkdu_message@@PBDHH@Z
	DD	FLAT:?finalize@atk_params@@MAEX_N@Z
CONST	ENDS
;	COMDAT ??_7mco_params@@6B@
CONST	SEGMENT
??_7mco_params@@6B@ DD FLAT:??_R4mco_params@@6B@	; mco_params::`vftable'
	DD	FLAT:?new_object@mco_params@@MAEPAVkdu_params@@XZ
	DD	FLAT:??_Emco_params@@UAEPAXI@Z
	DD	FLAT:?copy_with_xforms@mco_params@@MAEXPAVkdu_params@@HH_N11@Z
	DD	FLAT:?write_marker_segment@mco_params@@MAEHPAVkdu_output@@PAVkdu_params@@H@Z
	DD	FLAT:?check_marker_segment@mco_params@@MAE_NGHQAEAAH@Z
	DD	FLAT:?read_marker_segment@mco_params@@MAE_NGHQAEH@Z
	DD	FLAT:?custom_parse_field@kdu_params@@UAEHPBD0HAAH@Z
	DD	FLAT:?custom_textualize_field@kdu_params@@UAEXAAVkdu_message@@PBDHH@Z
	DD	FLAT:?finalize@mco_params@@MAEX_N@Z
CONST	ENDS
;	COMDAT ??_7mcc_params@@6B@
CONST	SEGMENT
??_7mcc_params@@6B@ DD FLAT:??_R4mcc_params@@6B@	; mcc_params::`vftable'
	DD	FLAT:?new_object@mcc_params@@MAEPAVkdu_params@@XZ
	DD	FLAT:??_Emcc_params@@UAEPAXI@Z
	DD	FLAT:?copy_with_xforms@mcc_params@@MAEXPAVkdu_params@@HH_N11@Z
	DD	FLAT:?write_marker_segment@mcc_params@@MAEHPAVkdu_output@@PAVkdu_params@@H@Z
	DD	FLAT:?check_marker_segment@mcc_params@@MAE_NGHQAEAAH@Z
	DD	FLAT:?read_marker_segment@mcc_params@@MAE_NGHQAEH@Z
	DD	FLAT:?custom_parse_field@kdu_params@@UAEHPBD0HAAH@Z
	DD	FLAT:?custom_textualize_field@kdu_params@@UAEXAAVkdu_message@@PBDHH@Z
	DD	FLAT:?finalize@mcc_params@@MAEX_N@Z
CONST	ENDS
;	COMDAT ??_7mct_params@@6B@
CONST	SEGMENT
??_7mct_params@@6B@ DD FLAT:??_R4mct_params@@6B@	; mct_params::`vftable'
	DD	FLAT:?new_object@mct_params@@MAEPAVkdu_params@@XZ
	DD	FLAT:??_Emct_params@@UAEPAXI@Z
	DD	FLAT:?copy_with_xforms@mct_params@@MAEXPAVkdu_params@@HH_N11@Z
	DD	FLAT:?write_marker_segment@mct_params@@MAEHPAVkdu_output@@PAVkdu_params@@H@Z
	DD	FLAT:?check_marker_segment@mct_params@@MAE_NGHQAEAAH@Z
	DD	FLAT:?read_marker_segment@mct_params@@MAE_NGHQAEH@Z
	DD	FLAT:?custom_parse_field@kdu_params@@UAEHPBD0HAAH@Z
	DD	FLAT:?custom_textualize_field@kdu_params@@UAEXAAVkdu_message@@PBDHH@Z
	DD	FLAT:?finalize@mct_params@@MAEX_N@Z
CONST	ENDS
;	COMDAT ??_7siz_params@@6B@
CONST	SEGMENT
??_7siz_params@@6B@ DD FLAT:??_R4siz_params@@6B@	; siz_params::`vftable'
	DD	FLAT:?new_object@siz_params@@MAEPAVkdu_params@@XZ
	DD	FLAT:??_Esiz_params@@UAEPAXI@Z
	DD	FLAT:?copy_with_xforms@siz_params@@MAEXPAVkdu_params@@HH_N11@Z
	DD	FLAT:?write_marker_segment@siz_params@@MAEHPAVkdu_output@@PAVkdu_params@@H@Z
	DD	FLAT:?check_marker_segment@siz_params@@MAE_NGHQAEAAH@Z
	DD	FLAT:?read_marker_segment@siz_params@@MAE_NGHQAEH@Z
	DD	FLAT:?custom_parse_field@kdu_params@@UAEHPBD0HAAH@Z
	DD	FLAT:?custom_textualize_field@kdu_params@@UAEXAAVkdu_message@@PBDHH@Z
	DD	FLAT:?finalize@siz_params@@MAEX_N@Z
CONST	ENDS
;	COMDAT ??_7kdu_params@@6B@
CONST	SEGMENT
??_7kdu_params@@6B@ DD FLAT:??_R4kdu_params@@6B@	; kdu_params::`vftable'
	DD	FLAT:__purecall
	DD	FLAT:??_Ekdu_params@@UAEPAXI@Z
	DD	FLAT:__purecall
	DD	FLAT:?write_marker_segment@kdu_params@@MAEHPAVkdu_output@@PAV1@H@Z
	DD	FLAT:__purecall
	DD	FLAT:__purecall
	DD	FLAT:?custom_parse_field@kdu_params@@UAEHPBD0HAAH@Z
	DD	FLAT:?custom_textualize_field@kdu_params@@UAEXAAVkdu_message@@PBDHH@Z
	DD	FLAT:?finalize@kdu_params@@UAEX_N@Z
CONST	ENDS
;	COMDAT __CT??_R0PAX@84
xdata$x	SEGMENT
__CT??_R0PAX@84 DD 01H
	DD	FLAT:??_R0PAX@8
	DD	00H
	DD	0ffffffffH
	ORG $+4
	DD	04H
	DD	00H
xdata$x	ENDS
;	COMDAT ??_R0PAX@8
data$r	SEGMENT
??_R0PAX@8 DD	FLAT:??_7type_info@@6B@			; void * `RTTI Type Descriptor'
	DD	00H
	DB	'.PAX', 00H
data$r	ENDS
;	COMDAT __CT??_R0PAE@84
xdata$x	SEGMENT
__CT??_R0PAE@84 DD 01H
	DD	FLAT:??_R0PAE@8
	DD	00H
	DD	0ffffffffH
	ORG $+4
	DD	04H
	DD	00H
xdata$x	ENDS
;	COMDAT ??_R0PAE@8
data$r	SEGMENT
